Certificate:
    Data:
        Version: 3 (0x2)
        Serial Number: 2 (0x2)
        Signature Algorithm: md5WithRSAEncryption
        Issuer: C=US, ST=Florida, L=Palm Beach Gardens, O=ZeroC, Inc., OU=Ice, CN=ZeroC Test CA/emailAddress=info@zeroc.com
        Validity
            Not Before: Mar 27 17:11:27 2006 GMT
            Not After : Mar 26 17:11:27 2011 GMT
        Subject: C=US, ST=Florida, O=ZeroC, Inc., OU=Ice/emailAddress=info@zeroc.com, CN=Client
        Subject Public Key Info:
            Public Key Algorithm: dsaEncryption
            DSA Public Key:
                pub: 
                    7b:0f:23:89:4a:d3:06:f0:e6:85:83:bc:58:eb:80:
                    60:22:82:c1:96:0c:6e:82:24:2d:b0:3e:2b:3f:f9:
                    d6:37:df:08:31:6c:61:08:58:7e:ba:c9:a8:4e:ad:
                    39:22:98:46:7a:1f:22:b1:4d:fd:de:bf:19:fa:1d:
                    9b:e2:b3:ab:bb:0f:21:00:90:6a:6d:4e:f5:d6:42:
                    f0:ba:42:00:c4:a1:8d:2c:51:8f:9a:ac:35:38:e3:
                    71:29:9b:7d:0b:15:2d:ad:6f:a9:55:99:e1:ed:83:
                    ee:c3:4d:4c:b4:56:cc:a6:40:e2:18:11:0d:33:d0:
                    07:68:cb:6e:9a:78:c8:3d
                P:   
                    00:85:c7:eb:9b:7b:10:b5:ea:8a:8b:81:60:ea:e0:
                    fd:59:12:04:44:63:77:87:c8:95:97:75:84:e3:be:
                    fa:06:4f:be:62:3c:cd:a1:d1:8d:fb:fb:a9:51:7c:
                    a1:ec:76:3b:95:e6:f6:1f:55:77:c9:30:2f:80:7d:
                    e5:ea:e0:be:a7:20:c4:3a:40:ec:fb:b4:55:c3:0d:
                    9c:a9:8e:a3:9d:84:c1:74:2b:60:97:8b:ae:56:f5:
                    8e:d6:78:01:e7:43:a6:b7:76:cd:47:71:c5:37:cf:
                    55:c0:85:c5:bf:76:5e:ce:aa:52:59:63:07:09:1b:
                    d0:c0:b2:6a:e7:64:09:15:47
                Q:   
                    00:dc:01:54:6b:03:8b:65:03:36:30:6c:56:94:cd:
                    24:cf:e6:e6:fc:a1
                G:   
                    05:33:7f:4c:31:a8:a6:84:71:af:30:41:1e:52:8f:
                    a5:9f:81:df:07:c4:67:a1:9a:10:84:29:89:bd:37:
                    c2:6e:7b:fc:14:20:43:fd:2b:f7:0e:40:56:a5:b0:
                    d5:0b:32:5d:a1:e2:70:a6:0e:c8:f3:49:47:c0:1d:
                    46:fa:3b:b2:ee:10:f8:1c:e5:2a:99:f7:d2:df:8a:
                    dc:81:fc:ea:31:ca:86:f6:9d:61:a6:34:84:e9:a0:
                    fd:7a:ae:b1:8d:21:84:60:97:c7:4b:7f:03:b1:a4:
                    05:54:d9:7a:1e:8d:c6:6b:8d:3a:bb:e4:04:d6:68:
                    26:c5:ed:b3:f0:ea:7c:a4
        X509v3 extensions:
            X509v3 Basic Constraints: 
            CA:FALSE
            X509v3 Subject Key Identifier: 
            95:20:93:AA:43:0E:06:7D:F3:7E:3C:75:6B:CD:F9:C5:15:DD:0E:0E
            X509v3 Authority Key Identifier: 
            keyid:9F:A2:17:D5:F0:19:FA:38:09:39:AA:22:26:BF:7A:B5:42:7B:66:EE
            DirName:/C=US/ST=Florida/L=Palm Beach Gardens/O=ZeroC, Inc./OU=Ice/CN=ZeroC Test CA/emailAddress=info@zeroc.com
            serial:00

            X509v3 Subject Alternative Name: 
            DNS:client, IP Address:127.0.0.1
    Signature Algorithm: md5WithRSAEncryption
        97:ab:56:bc:ea:04:e5:f2:f1:dd:6c:eb:85:f4:21:5a:25:75:
        c6:58:cb:85:87:7f:34:a9:51:c7:a2:32:1a:b0:73:a1:e9:9f:
        70:bc:98:c7:3e:cb:3c:1e:55:8d:60:e7:7b:14:ee:05:f3:8d:
        78:8d:a2:a4:06:4a:e1:d8:57:10:39:e4:b7:cd:b3:a4:13:56:
        0e:92:8e:59:a9:6b:5d:ab:87:a1:77:62:a9:3b:a4:b4:a0:fe:
        96:68:1c:dc:5a:27:50:71:c3:7c:a8:0a:03:81:92:aa:24:d7:
        04:39:db:e3:13:b4:14:01:00:10:c1:45:51:5e:48:93:0d:c6:
        71:a3:bf:a0:d9:df:c0:cc:10:44:f1:9e:2d:c0:42:49:f2:a8:
        f4:77:5b:40:96:79:34:9b:b3:00:54:69:ad:91:56:22:82:72:
        05:1b:a0:e6:b0:35:eb:4d:7c:17:30:c3:07:79:6b:ab:51:47:
        fe:e0:60:65:88:8d:86:b3:57:95:9c:75:d7:5a:f9:e2:2f:8c:
        fb:2c:60:b8:36:ac:93:07:a7:b4:14:c5:7e:bb:6f:d0:1d:e0:
        44:08:54:92:ff:55:7c:39:f4:07:65:15:74:ad:a8:1b:99:68:
        a6:b3:d1:6e:74:92:a2:24:bb:4d:87:60:a2:50:6b:71:a5:49:
        4b:ba:24:eb
-----BEGIN CERTIFICATE-----
MIIFKjCCBBKgAwIBAgIBAjANBgkqhkiG9w0BAQQFADCBlzELMAkGA1UEBhMCVVMx
EDAOBgNVBAgTB0Zsb3JpZGExGzAZBgNVBAcTElBhbG0gQmVhY2ggR2FyZGVuczEU
MBIGA1UEChMLWmVyb0MsIEluYy4xDDAKBgNVBAsTA0ljZTEWMBQGA1UEAxMNWmVy
b0MgVGVzdCBDQTEdMBsGCSqGSIb3DQEJARYOaW5mb0B6ZXJvYy5jb20wHhcNMDYw
MzI3MTcxMTI3WhcNMTEwMzI2MTcxMTI3WjBzMQswCQYDVQQGEwJVUzEQMA4GA1UE
CBMHRmxvcmlkYTEUMBIGA1UEChMLWmVyb0MsIEluYy4xDDAKBgNVBAsTA0ljZTEd
MBsGCSqGSIb3DQEJARYOaW5mb0B6ZXJvYy5jb20xDzANBgNVBAMTBkNsaWVudDCC
AbYwggErBgcqhkjOOAQBMIIBHgKBgQCFx+ubexC16oqLgWDq4P1ZEgREY3eHyJWX
dYTjvvoGT75iPM2h0Y37+6lRfKHsdjuV5vYfVXfJMC+AfeXq4L6nIMQ6QOz7tFXD
DZypjqOdhMF0K2CXi65W9Y7WeAHnQ6a3ds1HccU3z1XAhcW/dl7OqlJZYwcJG9DA
smrnZAkVRwIVANwBVGsDi2UDNjBsVpTNJM/m5vyhAoGABTN/TDGopoRxrzBBHlKP
pZ+B3wfEZ6GaEIQpib03wm57/BQgQ/0r9w5AVqWw1QsyXaHicKYOyPNJR8AdRvo7
su4Q+BzlKpn30t+K3IH86jHKhvadYaY0hOmg/XqusY0hhGCXx0t/A7GkBVTZeh6N
xmuNOrvkBNZoJsXts/DqfKQDgYQAAoGAew8jiUrTBvDmhYO8WOuAYCKCwZYMboIk
LbA+Kz/51jffCDFsYQhYfrrJqE6tOSKYRnofIrFN/d6/Gfodm+Kzq7sPIQCQam1O
9dZC8LpCAMShjSxRj5qsNTjjcSmbfQsVLa1vqVWZ4e2D7sNNTLRWzKZA4hgRDTPQ
B2jLbpp4yD2jggEOMIIBCjAJBgNVHRMEAjAAMB0GA1UdDgQWBBSVIJOqQw4GffN+
PHVrzfnFFd0ODjCBxAYDVR0jBIG8MIG5gBSfohfV8Bn6OAk5qiImv3q1Qntm7qGB
naSBmjCBlzELMAkGA1UEBhMCVVMxEDAOBgNVBAgTB0Zsb3JpZGExGzAZBgNVBAcT
ElBhbG0gQmVhY2ggR2FyZGVuczEUMBIGA1UEChMLWmVyb0MsIEluYy4xDDAKBgNV
BAsTA0ljZTEWMBQGA1UEAxMNWmVyb0MgVGVzdCBDQTEdMBsGCSqGSIb3DQEJARYO
aW5mb0B6ZXJvYy5jb22CAQAwFwYDVR0RBBAwDoIGY2xpZW50hwR/AAABMA0GCSqG
SIb3DQEBBAUAA4IBAQCXq1a86gTl8vHdbOuF9CFaJXXGWMuFh380qVHHojIasHOh
6Z9wvJjHPss8HlWNYOd7FO4F8414jaKkBkrh2FcQOeS3zbOkE1YOko5ZqWtdq4eh
d2KpO6S0oP6WaBzcWidQccN8qAoDgZKqJNcEOdvjE7QUAQAQwUVRXkiTDcZxo7+g
2d/AzBBE8Z4twEJJ8qj0d1tAlnk0m7MAVGmtkVYignIFG6DmsDXrTXwXMMMHeWur
UUf+4GBliI2Gs1eVnHXXWvniL4z7LGC4NqyTB6e0FMV+u2/QHeBECFSS/1V8OfQH
ZRV0ragbmWims9FudJKiJLtNh2CiUGtxpUlLuiTr
-----END CERTIFICATE-----
