Certificate:
    Data:
        Version: 3 (0x2)
        Serial Number: 1 (0x1)
        Signature Algorithm: md5WithRSAEncryption
        Issuer: C=US, ST=Florida, L=Palm Beach Gardens, O=ZeroC, Inc., OU=Ice, CN=ZeroC Test CA/emailAddress=info@zeroc.com
        Validity
            Not Before: Jul  3 08:17:52 2012 GMT
            Not After : Jul  2 08:17:52 2017 GMT
        Subject: C=US, ST=Florida, O=ZeroC, Inc., OU=Ice/emailAddress=info@zeroc.com, CN=Client
        Subject Public Key Info:
            Public Key Algorithm: dsaEncryption
            DSA Public Key:
                pub: 
                    00:84:c5:1a:7c:97:34:18:b3:cb:cb:3c:12:08:34:
                    c6:7e:b0:66:8e:16:b9:83:29:6d:2e:11:be:a5:05:
                    7b:dc:14:d2:b4:cf:f5:6e:94:4c:90:f3:da:a9:89:
                    4f:f6:b9:2d:34:48:38:19:4a:90:c9:d5:05:03:a2:
                    38:55:ae:22:6a:b8:fe:90:da:b0:a5:7d:af:86:e3:
                    a7:a1:af:86:4c:ae:47:cd:a4:f6:13:98:f6:7f:11:
                    b8:b0:ef:7a:06:a6:d3:8f:23:73:5e:99:18:a1:20:
                    13:54:a2:4a:eb:9c:cf:0a:30:e6:62:cc:11:02:c0:
                    01:65:54:45:a5:63:72:2b:9b
                P:   
                    00:f6:58:f5:b0:ca:9c:77:d1:bd:b1:b0:40:5f:f6:
                    2d:1f:6c:fb:43:40:89:b7:18:ff:8e:5a:93:fe:48:
                    c9:d3:08:61:cf:47:fc:cb:34:36:ba:32:5e:19:93:
                    d6:5a:0e:48:59:ef:da:42:df:c3:b7:e9:19:9f:16:
                    56:18:d6:e8:4b:d6:bb:cc:47:9a:ea:7a:15:53:c0:
                    4d:d0:3a:be:6f:4e:0e:25:d3:c0:01:da:57:44:73:
                    b7:fa:97:fd:dc:d8:b5:42:d8:ad:bf:00:16:e9:3c:
                    5b:56:34:cf:62:65:5c:cf:bb:a0:31:51:93:cd:75:
                    59:d8:0b:d9:84:2e:c9:61:9f
                Q:   
                    00:c6:25:e7:49:54:f3:5c:55:7f:71:65:27:62:bc:
                    8f:9c:61:f5:ce:17
                G:   
                    60:57:b6:bf:4c:c8:fb:36:bf:7e:fd:e9:57:34:7c:
                    55:41:38:00:ed:ff:83:b2:98:e1:ea:0b:80:d3:e5:
                    13:c5:90:f7:5d:58:3c:a8:dd:33:f4:c7:b3:53:79:
                    3e:ac:8f:d8:88:7f:af:49:0c:31:bc:f0:fa:3c:69:
                    49:e8:3d:a9:7a:d3:c6:85:84:3c:97:5b:a3:df:7c:
                    5f:84:a3:d1:2b:e1:95:91:fe:17:15:c1:40:dd:21:
                    2c:54:f5:68:a5:2c:7e:f6:4e:36:08:04:19:f4:3b:
                    6f:7a:3a:22:4e:e5:2c:6b:6e:a2:6e:bf:1a:25:7b:
                    f5:c9:00:fa:e0:4c:69:1e
        X509v3 extensions:
            X509v3 Basic Constraints: 
                CA:FALSE
            X509v3 Subject Key Identifier: 
                4B:00:79:3C:5A:9E:EB:85:82:2F:29:DA:D1:50:95:64:EE:FF:76:F8
            X509v3 Authority Key Identifier: 
                keyid:8A:AE:B4:AA:C5:54:D5:CE:D0:6A:0C:FF:3D:83:8C:60:B4:AD:70:DB
                DirName:/C=US/ST=Florida/L=Palm Beach Gardens/O=ZeroC, Inc./OU=Ice/CN=ZeroC Test CA/emailAddress=info@zeroc.com
                serial:DB:C1:07:84:72:86:C9:56

            X509v3 Subject Alternative Name: 
                DNS:client, IP Address:127.0.0.1
    Signature Algorithm: md5WithRSAEncryption
        57:3d:8c:cc:aa:f2:8e:8f:04:78:f7:9d:61:36:4e:2c:d0:a3:
        bb:aa:95:a6:f8:0b:c1:a7:f8:fe:af:cf:f7:2c:02:5e:d3:f5:
        a7:a7:8a:8a:98:c1:0b:63:dc:9f:d7:6f:86:eb:c4:2f:df:85:
        c2:9c:ef:b5:3a:d7:96:cc:32:6c:ad:a7:db:f3:a1:3e:a7:a9:
        61:91:2b:8d:37:4f:4e:ca:df:ce:f3:11:c8:f6:bc:5e:35:67:
        7b:b0:2f:7c:9e:59:0d:cc:71:29:cd:95:96:00:55:d8:1b:fb:
        39:76:d9:93:fe:f9:41:28:ec:37:9a:37:98:eb:cc:88:f2:65:
        d2:4d
-----BEGIN CERTIFICATE-----
MIIEsjCCBBugAwIBAgIBATANBgkqhkiG9w0BAQQFADCBlzELMAkGA1UEBhMCVVMx
EDAOBgNVBAgTB0Zsb3JpZGExGzAZBgNVBAcTElBhbG0gQmVhY2ggR2FyZGVuczEU
MBIGA1UEChMLWmVyb0MsIEluYy4xDDAKBgNVBAsTA0ljZTEWMBQGA1UEAxMNWmVy
b0MgVGVzdCBDQTEdMBsGCSqGSIb3DQEJARYOaW5mb0B6ZXJvYy5jb20wHhcNMTIw
NzAzMDgxNzUyWhcNMTcwNzAyMDgxNzUyWjBzMQswCQYDVQQGEwJVUzEQMA4GA1UE
CBMHRmxvcmlkYTEUMBIGA1UEChMLWmVyb0MsIEluYy4xDDAKBgNVBAsTA0ljZTEd
MBsGCSqGSIb3DQEJARYOaW5mb0B6ZXJvYy5jb20xDzANBgNVBAMTBkNsaWVudDCC
AbcwggErBgcqhkjOOAQBMIIBHgKBgQD2WPWwypx30b2xsEBf9i0fbPtDQIm3GP+O
WpP+SMnTCGHPR/zLNDa6Ml4Zk9ZaDkhZ79pC38O36RmfFlYY1uhL1rvMR5rqehVT
wE3QOr5vTg4l08AB2ldEc7f6l/3c2LVC2K2/ABbpPFtWNM9iZVzPu6AxUZPNdVnY
C9mELslhnwIVAMYl50lU81xVf3FlJ2K8j5xh9c4XAoGAYFe2v0zI+za/fv3pVzR8
VUE4AO3/g7KY4eoLgNPlE8WQ911YPKjdM/THs1N5PqyP2Ih/r0kMMbzw+jxpSeg9
qXrTxoWEPJdbo998X4Sj0SvhlZH+FxXBQN0hLFT1aKUsfvZONggEGfQ7b3o6Ik7l
LGtuom6/GiV79ckA+uBMaR4DgYUAAoGBAITFGnyXNBizy8s8Egg0xn6wZo4WuYMp
bS4RvqUFe9wU0rTP9W6UTJDz2qmJT/a5LTRIOBlKkMnVBQOiOFWuImq4/pDasKV9
r4bjp6GvhkyuR82k9hOY9n8RuLDvegam048jc16ZGKEgE1SiSuuczwow5mLMEQLA
AWVURaVjciubo4IBFjCCARIwCQYDVR0TBAIwADAdBgNVHQ4EFgQUSwB5PFqe64WC
Lyna0VCVZO7/dvgwgcwGA1UdIwSBxDCBwYAUiq60qsVU1c7Qagz/PYOMYLStcNuh
gZ2kgZowgZcxCzAJBgNVBAYTAlVTMRAwDgYDVQQIEwdGbG9yaWRhMRswGQYDVQQH
ExJQYWxtIEJlYWNoIEdhcmRlbnMxFDASBgNVBAoTC1plcm9DLCBJbmMuMQwwCgYD
VQQLEwNJY2UxFjAUBgNVBAMTDVplcm9DIFRlc3QgQ0ExHTAbBgkqhkiG9w0BCQEW
DmluZm9AemVyb2MuY29tggkA28EHhHKGyVYwFwYDVR0RBBAwDoIGY2xpZW50hwR/
AAABMA0GCSqGSIb3DQEBBAUAA4GBAFc9jMyq8o6PBHj3nWE2TizQo7uqlab4C8Gn
+P6vz/csAl7T9aenioqYwQtj3J/Xb4brxC/fhcKc77U615bMMmytp9vzoT6nqWGR
K403T07K387zEcj2vF41Z3uwL3yeWQ3McSnNlZYAVdgb+zl22ZP++UEo7DeaN5jr
zIjyZdJN
-----END CERTIFICATE-----
