Certificate:
    Data:
        Version: 3 (0x2)
        Serial Number: 1 (0x1)
    Signature Algorithm: sha256WithRSAEncryption
        Issuer: C=US, ST=Florida, L=Palm Beach Gardens, O=ZeroC, Inc., OU=Ice, CN=ZeroC Test CA/emailAddress=info@zeroc.com
        Validity
            Not Before: Mar 19 16:49:03 2014 GMT
            Not After : Mar 18 16:49:03 2019 GMT
        Subject: C=US, ST=Florida, O=ZeroC, Inc., OU=Ice/emailAddress=info@zeroc.com, CN=Client
        Subject Public Key Info:
            Public Key Algorithm: dsaEncryption
                pub: 
                    42:be:a2:7b:29:5d:6b:5b:e2:e9:07:76:40:c9:2c:
                    27:64:de:b8:e8:47:60:59:db:dc:e1:c4:fc:0b:15:
                    49:01:0d:f7:eb:67:cd:5c:ef:04:c6:cb:d4:29:76:
                    ba:53:3e:f6:55:ed:60:54:b0:79:70:99:04:c5:7a:
                    d3:d7:23:2d:69:91:d7:10:1a:ca:5b:19:36:54:bb:
                    c1:4d:b0:d2:f4:49:35:af:b2:38:42:ab:e8:a7:83:
                    94:04:4c:7d:e2:4f:ce:65:57:f1:28:fa:e2:dc:d4:
                    16:03:92:c9:f2:f7:a0:30:05:86:6a:eb:e7:ff:e4:
                    a3:95:30:50:00:c8:b8:22
                P:   
                    00:85:4d:95:b3:df:14:47:0e:ab:3a:66:d4:a1:d3:
                    f9:35:8a:9b:4a:1d:94:a5:96:09:1b:c4:ad:42:99:
                    7a:67:ef:6d:ef:43:8c:f0:6c:44:a8:6d:f5:98:e9:
                    c8:84:aa:a4:69:cc:b9:09:ef:4f:90:17:5a:9b:68:
                    ad:6c:2b:47:a4:30:42:1c:3a:b0:05:db:3f:cb:e1:
                    2e:ed:a6:ed:2c:58:4e:99:b5:b9:c9:cd:b5:fd:fa:
                    7f:d1:66:e8:69:d6:6b:85:11:b0:ae:4b:ee:04:18:
                    a4:4d:56:a0:16:23:a8:2b:09:14:34:6c:d3:24:77:
                    1b:2d:fd:1c:e5:60:57:93:6f
                Q:   
                    00:e8:95:27:4b:da:eb:19:13:d5:a9:54:a7:8f:77:
                    00:5a:c2:92:f6:55
                G:   
                    07:1b:5b:9a:ba:62:06:6b:ec:31:85:43:28:e2:4e:
                    43:34:25:d0:04:31:a7:81:6c:f7:b3:64:9a:3f:54:
                    0e:8f:ce:60:89:9a:a4:dc:e5:24:d3:85:8c:8c:97:
                    16:17:a1:c3:31:82:34:2f:f0:93:8b:8e:0e:5c:42:
                    c6:89:af:77:7d:b2:65:25:94:fd:ba:8e:1a:df:f6:
                    88:52:6e:b2:14:68:34:02:06:cb:4f:ad:50:c5:2c:
                    46:00:9f:d1:5b:23:f6:8c:a3:ce:69:43:42:24:3b:
                    0f:9d:cb:5f:63:c5:18:db:7a:76:45:1b:21:b6:25:
                    f1:18:a9:da:b2:59:eb:06
        X509v3 extensions:
            X509v3 Basic Constraints: 
                CA:FALSE
            X509v3 Subject Key Identifier: 
                83:9E:01:90:2B:C6:FE:5A:F8:03:50:36:A5:A7:A0:EA:E0:7A:71:9F
            X509v3 Authority Key Identifier: 
                keyid:80:8E:3F:71:F4:C8:ED:1F:0A:54:75:CD:D1:F0:58:D7:05:0B:C2:2B
                DirName:/C=US/ST=Florida/L=Palm Beach Gardens/O=ZeroC, Inc./OU=Ice/CN=ZeroC Test CA/emailAddress=info@zeroc.com
                serial:DD:BF:8A:B2:D7:73:61:B3

            X509v3 Subject Alternative Name: 
                DNS:client, IP Address:127.0.0.1
    Signature Algorithm: sha256WithRSAEncryption
         43:01:90:5d:08:9c:91:86:90:20:d2:c9:23:d1:9b:d5:18:a1:
         16:a3:21:4a:bb:c7:69:30:b5:23:62:14:a2:9b:54:f0:0f:55:
         21:14:a1:fe:7b:3d:5c:78:ee:95:dd:cf:76:1a:0e:53:8e:c1:
         3f:fc:da:6c:fd:a5:06:fc:d4:71:a2:87:f6:61:b3:b5:b3:be:
         55:4a:a4:d5:37:8b:79:fe:1c:89:1d:cf:9e:5b:d5:ed:63:1b:
         a5:70:69:09:be:f5:01:b0:54:3d:3c:06:43:ea:0c:98:73:1b:
         ba:9e:90:32:55:b6:2b:1b:e3:fb:cc:d0:93:0b:eb:fd:cb:ae:
         6c:e9
-----BEGIN CERTIFICATE-----
MIIEsTCCBBqgAwIBAgIBATANBgkqhkiG9w0BAQsFADCBlzELMAkGA1UEBhMCVVMx
EDAOBgNVBAgTB0Zsb3JpZGExGzAZBgNVBAcTElBhbG0gQmVhY2ggR2FyZGVuczEU
MBIGA1UEChMLWmVyb0MsIEluYy4xDDAKBgNVBAsTA0ljZTEWMBQGA1UEAxMNWmVy
b0MgVGVzdCBDQTEdMBsGCSqGSIb3DQEJARYOaW5mb0B6ZXJvYy5jb20wHhcNMTQw
MzE5MTY0OTAzWhcNMTkwMzE4MTY0OTAzWjBzMQswCQYDVQQGEwJVUzEQMA4GA1UE
CBMHRmxvcmlkYTEUMBIGA1UEChMLWmVyb0MsIEluYy4xDDAKBgNVBAsTA0ljZTEd
MBsGCSqGSIb3DQEJARYOaW5mb0B6ZXJvYy5jb20xDzANBgNVBAMTBkNsaWVudDCC
AbYwggErBgcqhkjOOAQBMIIBHgKBgQCFTZWz3xRHDqs6ZtSh0/k1iptKHZSllgkb
xK1CmXpn723vQ4zwbESobfWY6ciEqqRpzLkJ70+QF1qbaK1sK0ekMEIcOrAF2z/L
4S7tpu0sWE6ZtbnJzbX9+n/RZuhp1muFEbCuS+4EGKRNVqAWI6grCRQ0bNMkdxst
/RzlYFeTbwIVAOiVJ0va6xkT1alUp493AFrCkvZVAoGABxtbmrpiBmvsMYVDKOJO
QzQl0AQxp4Fs97Nkmj9UDo/OYImapNzlJNOFjIyXFhehwzGCNC/wk4uODlxCxomv
d32yZSWU/bqOGt/2iFJushRoNAIGy0+tUMUsRgCf0Vsj9oyjzmlDQiQ7D53LX2PF
GNt6dkUbIbYl8Rip2rJZ6wYDgYQAAoGAQr6ieylda1vi6Qd2QMksJ2TeuOhHYFnb
3OHE/AsVSQEN9+tnzVzvBMbL1Cl2ulM+9lXtYFSweXCZBMV609cjLWmR1xAaylsZ
NlS7wU2w0vRJNa+yOEKr6KeDlARMfeJPzmVX8Sj64tzUFgOSyfL3oDAFhmrr5//k
o5UwUADIuCKjggEWMIIBEjAJBgNVHRMEAjAAMB0GA1UdDgQWBBSDngGQK8b+WvgD
UDalp6Dq4HpxnzCBzAYDVR0jBIHEMIHBgBSAjj9x9MjtHwpUdc3R8FjXBQvCK6GB
naSBmjCBlzELMAkGA1UEBhMCVVMxEDAOBgNVBAgTB0Zsb3JpZGExGzAZBgNVBAcT
ElBhbG0gQmVhY2ggR2FyZGVuczEUMBIGA1UEChMLWmVyb0MsIEluYy4xDDAKBgNV
BAsTA0ljZTEWMBQGA1UEAxMNWmVyb0MgVGVzdCBDQTEdMBsGCSqGSIb3DQEJARYO
aW5mb0B6ZXJvYy5jb22CCQDdv4qy13NhszAXBgNVHREEEDAOggZjbGllbnSHBH8A
AAEwDQYJKoZIhvcNAQELBQADgYEAQwGQXQickYaQINLJI9Gb1RihFqMhSrvHaTC1
I2IUoptU8A9VIRSh/ns9XHjuld3PdhoOU47BP/zabP2lBvzUcaKH9mGztbO+VUqk
1TeLef4ciR3PnlvV7WMbpXBpCb71AbBUPTwGQ+oMmHMbup6QMlW2Kxvj+8zQkwvr
/cuubOk=
-----END CERTIFICATE-----
