Certificate:
    Data:
        Version: 3 (0x2)
        Serial Number: 1 (0x1)
    Signature Algorithm: sha256WithRSAEncryption
        Issuer: C=US, ST=Florida, L=Palm Beach Gardens, O=ZeroC, Inc., OU=Ice, CN=ZeroC Test CA/emailAddress=info@zeroc.com
        Validity
            Not Before: Nov 15 16:01:05 2012 GMT
            Not After : Nov 14 16:01:05 2017 GMT
        Subject: C=US, ST=Florida, O=ZeroC, Inc., OU=Ice/emailAddress=info@zeroc.com, CN=Client
        Subject Public Key Info:
            Public Key Algorithm: dsaEncryption
                pub: 
                    5a:cd:73:53:39:85:67:3c:6e:92:20:fd:91:c4:7b:
                    5b:38:c7:f5:d2:de:b6:25:73:2b:e1:3e:f1:6f:0e:
                    c0:7a:f3:cb:27:96:b1:5d:1b:69:c6:14:86:3c:68:
                    73:bd:06:90:08:80:40:37:ee:7a:ee:ce:36:2c:45:
                    32:a0:99:d1:de:b3:b2:a1:7c:b4:38:48:44:23:c8:
                    33:71:48:ac:08:70:f8:7a:fb:42:0f:63:0f:81:aa:
                    4f:da:cd:94:18:45:5b:8a:30:a8:5f:a8:5e:2d:37:
                    d6:86:16:04:3d:d6:34:22:24:57:04:a3:8d:ce:d3:
                    8b:00:64:4f:2c:30:34:8c
                P:   
                    00:ad:db:c9:9a:66:11:a8:d1:d5:14:1f:36:7c:65:
                    ea:d1:6e:29:28:ac:b7:f8:54:d1:5b:c4:d2:96:da:
                    8a:3c:d7:78:e9:2f:6f:84:f3:14:52:20:1a:c8:92:
                    3a:13:c1:6d:48:e2:a6:58:53:22:f4:f8:e4:56:f7:
                    52:96:69:16:26:36:5d:87:91:8a:8d:f4:6d:ee:df:
                    b7:81:d1:e1:2b:f8:50:cf:92:20:b7:bd:52:75:c9:
                    ad:4e:a2:11:75:b4:dc:92:b6:fc:9d:8a:a8:71:da:
                    8f:45:f5:9a:8c:3a:5e:d7:94:9e:b8:6d:22:78:e0:
                    dd:0a:f9:82:c4:bc:dd:4a:73
                Q:   
                    00:9e:76:54:78:68:bf:e3:87:70:6f:2a:75:08:0f:
                    09:cd:2d:cd:47:ed
                G:   
                    48:35:79:9d:f9:06:f0:77:1c:97:47:a1:92:83:51:
                    50:15:e6:f8:08:7d:16:70:6c:e8:b4:95:3b:74:f4:
                    c1:d7:26:9e:b1:dd:2c:f8:ce:2a:1b:db:75:ee:76:
                    0f:c6:86:e6:26:3d:2e:6a:3c:cc:d4:4d:49:29:b5:
                    e0:36:b8:f2:86:46:49:6b:ec:9f:29:cb:bf:82:f2:
                    87:12:98:1b:d9:de:a6:46:cb:6e:cd:46:8c:a2:74:
                    1b:ae:28:74:10:e4:d1:96:74:99:bb:9a:ef:3f:73:
                    9c:e9:b8:be:90:93:ad:db:0d:89:7d:d9:d8:36:1c:
                    6a:c7:fa:31:f7:de:61:6d
        X509v3 extensions:
            X509v3 Basic Constraints: 
                CA:FALSE
            X509v3 Subject Key Identifier: 
                62:F2:67:86:B1:F3:2B:FB:59:EE:85:0A:BA:47:11:FB:F0:E5:07:5E
            X509v3 Authority Key Identifier: 
                keyid:26:D0:8A:9D:DD:7F:72:86:37:5F:35:96:10:FC:85:A0:B0:9E:F3:F2
                DirName:/C=US/ST=Florida/L=Palm Beach Gardens/O=ZeroC, Inc./OU=Ice/CN=ZeroC Test CA/emailAddress=info@zeroc.com
                serial:B7:E8:19:68:75:D3:C8:0D

            X509v3 Subject Alternative Name: 
                DNS:client, IP Address:127.0.0.1
    Signature Algorithm: sha256WithRSAEncryption
         0c:3d:c8:57:81:8f:7f:a7:21:d1:b4:cb:9d:5f:07:1f:44:c8:
         b2:49:cd:bd:92:70:72:73:6c:58:92:ac:e0:8b:ce:76:2b:37:
         28:ee:f6:90:46:2e:bb:d2:df:9a:89:1b:71:89:4c:fd:06:eb:
         1f:d4:b1:40:e8:bd:09:7d:f3:82:5e:12:3c:64:16:2a:d2:d9:
         eb:31:72:34:2c:a3:5e:86:b8:12:5e:4e:0a:d6:92:b1:88:e6:
         74:90:cf:00:53:98:a7:e6:fe:35:81:5c:cf:43:94:0e:1a:c6:
         d2:93:48:ec:38:d7:a4:e7:c9:a4:fe:30:6e:d7:58:61:b3:14:
         c2:2f
-----BEGIN CERTIFICATE-----
MIIEsTCCBBqgAwIBAgIBATANBgkqhkiG9w0BAQsFADCBlzELMAkGA1UEBhMCVVMx
EDAOBgNVBAgTB0Zsb3JpZGExGzAZBgNVBAcTElBhbG0gQmVhY2ggR2FyZGVuczEU
MBIGA1UEChMLWmVyb0MsIEluYy4xDDAKBgNVBAsTA0ljZTEWMBQGA1UEAxMNWmVy
b0MgVGVzdCBDQTEdMBsGCSqGSIb3DQEJARYOaW5mb0B6ZXJvYy5jb20wHhcNMTIx
MTE1MTYwMTA1WhcNMTcxMTE0MTYwMTA1WjBzMQswCQYDVQQGEwJVUzEQMA4GA1UE
CBMHRmxvcmlkYTEUMBIGA1UEChMLWmVyb0MsIEluYy4xDDAKBgNVBAsTA0ljZTEd
MBsGCSqGSIb3DQEJARYOaW5mb0B6ZXJvYy5jb20xDzANBgNVBAMTBkNsaWVudDCC
AbYwggErBgcqhkjOOAQBMIIBHgKBgQCt28maZhGo0dUUHzZ8ZerRbikorLf4VNFb
xNKW2oo813jpL2+E8xRSIBrIkjoTwW1I4qZYUyL0+ORW91KWaRYmNl2HkYqN9G3u
37eB0eEr+FDPkiC3vVJ1ya1OohF1tNyStvydiqhx2o9F9ZqMOl7XlJ64bSJ44N0K
+YLEvN1KcwIVAJ52VHhov+OHcG8qdQgPCc0tzUftAoGASDV5nfkG8Hccl0ehkoNR
UBXm+Ah9FnBs6LSVO3T0wdcmnrHdLPjOKhvbde52D8aG5iY9Lmo8zNRNSSm14Da4
8oZGSWvsnynLv4LyhxKYG9nepkbLbs1GjKJ0G64odBDk0ZZ0mbua7z9znOm4vpCT
rdsNiX3Z2DYcasf6MffeYW0DgYQAAoGAWs1zUzmFZzxukiD9kcR7WzjH9dLetiVz
K+E+8W8OwHrzyyeWsV0bacYUhjxoc70GkAiAQDfueu7ONixFMqCZ0d6zsqF8tDhI
RCPIM3FIrAhw+Hr7Qg9jD4GqT9rNlBhFW4owqF+oXi031oYWBD3WNCIkVwSjjc7T
iwBkTywwNIyjggEWMIIBEjAJBgNVHRMEAjAAMB0GA1UdDgQWBBRi8meGsfMr+1nu
hQq6RxH78OUHXjCBzAYDVR0jBIHEMIHBgBQm0Iqd3X9yhjdfNZYQ/IWgsJ7z8qGB
naSBmjCBlzELMAkGA1UEBhMCVVMxEDAOBgNVBAgTB0Zsb3JpZGExGzAZBgNVBAcT
ElBhbG0gQmVhY2ggR2FyZGVuczEUMBIGA1UEChMLWmVyb0MsIEluYy4xDDAKBgNV
BAsTA0ljZTEWMBQGA1UEAxMNWmVyb0MgVGVzdCBDQTEdMBsGCSqGSIb3DQEJARYO
aW5mb0B6ZXJvYy5jb22CCQC36BloddPIDTAXBgNVHREEEDAOggZjbGllbnSHBH8A
AAEwDQYJKoZIhvcNAQELBQADgYEADD3IV4GPf6ch0bTLnV8HH0TIsknNvZJwcnNs
WJKs4IvOdis3KO72kEYuu9LfmokbcYlM/QbrH9SxQOi9CX3zgl4SPGQWKtLZ6zFy
NCyjXoa4El5OCtaSsYjmdJDPAFOYp+b+NYFcz0OUDhrG0pNI7DjXpOfJpP4wbtdY
YbMUwi8=
-----END CERTIFICATE-----
