Certificate:
    Data:
        Version: 3 (0x2)
        Serial Number: 1 (0x1)
    Signature Algorithm: sha256WithRSAEncryption
        Issuer: C=US, ST=Florida, L=Palm Beach Gardens, O=ZeroC, Inc., OU=Ice, CN=ZeroC Test CA/emailAddress=info@zeroc.com
        Validity
            Not Before: Sep  4 13:38:29 2013 GMT
            Not After : Sep  3 13:38:29 2018 GMT
        Subject: C=US, ST=Florida, O=ZeroC, Inc., OU=Ice/emailAddress=info@zeroc.com, CN=Client
        Subject Public Key Info:
            Public Key Algorithm: dsaEncryption
                pub: 
                    19:c3:79:a0:95:97:ed:72:d8:bc:de:e3:37:93:e5:
                    a3:1a:c4:35:1a:69:90:52:2b:64:f4:55:02:82:37:
                    8f:0e:79:86:01:27:2e:c4:9f:bb:c7:26:d5:cf:7a:
                    57:61:77:f1:11:a3:c3:fd:a0:d1:38:3d:af:9b:09:
                    4e:c1:55:58:31:95:54:83:e7:aa:cc:78:34:af:a2:
                    4a:7b:5c:98:d8:a6:f0:96:00:17:a0:4e:fa:91:44:
                    f9:5a:58:73:35:b2:6a:ec:0a:b6:e4:af:be:0c:43:
                    6b:1a:b6:e7:b5:49:d1:3f:42:0d:5a:be:86:32:ca:
                    80:03:3c:5f:99:4d:9d:03
                P:   
                    00:e5:81:39:07:43:4f:a2:db:97:df:48:75:ba:dc:
                    24:1c:26:b5:51:6e:b5:43:58:6e:95:72:be:c5:8e:
                    de:cc:b1:b9:1f:3b:45:63:1f:1e:98:29:ce:a8:9e:
                    3f:f4:02:57:e0:0e:09:22:ae:d3:84:5b:5b:8d:6c:
                    23:d6:27:a4:47:cc:03:fd:e9:07:ce:97:97:d5:36:
                    66:e4:a9:44:c9:3f:58:22:3a:e0:3e:43:da:c6:fa:
                    34:b6:aa:4c:36:57:dc:d0:11:5d:63:e8:cc:fa:2b:
                    4c:07:e9:45:43:ca:66:98:21:5e:77:71:fa:72:13:
                    6c:47:d7:a2:82:ec:04:79:3f
                Q:   
                    00:f3:cb:e9:8c:a3:2c:cc:54:a5:b3:d3:ea:f0:1e:
                    c6:dc:9a:33:15:f5
                G:   
                    00:b8:ef:3f:31:f1:b4:71:48:ae:e8:90:73:d0:f0:
                    43:40:34:d5:bb:ec:8b:56:1c:fc:37:8f:6a:c9:35:
                    57:a6:7b:2a:77:5f:83:51:46:00:29:f7:5d:42:bf:
                    61:d7:b5:c9:bc:a8:67:d7:e3:87:b4:83:79:0a:47:
                    31:04:e5:81:6e:a9:a2:80:48:88:06:dc:55:23:54:
                    49:3d:03:53:56:9e:80:1a:cb:c8:ee:ca:b9:9d:b0:
                    ec:b7:45:95:fe:39:10:eb:35:44:8d:49:d8:e7:91:
                    12:9f:f5:4f:05:82:ed:6b:c8:d2:87:4e:2f:d2:cf:
                    2d:d1:1c:74:77:65:90:75:b4
        X509v3 extensions:
            X509v3 Basic Constraints: 
                CA:FALSE
            X509v3 Subject Key Identifier: 
                D2:3F:0C:81:F6:14:52:EE:8B:5D:5B:FB:A5:D3:D0:86:D7:7E:44:84
            X509v3 Authority Key Identifier: 
                keyid:9C:00:3A:59:8A:B2:5A:2F:28:78:37:B3:79:89:6C:03:99:4A:A0:24
                DirName:/C=US/ST=Florida/L=Palm Beach Gardens/O=ZeroC, Inc./OU=Ice/CN=ZeroC Test CA/emailAddress=info@zeroc.com
                serial:8B:43:2C:07:D0:27:24:02

            X509v3 Subject Alternative Name: 
                DNS:client, IP Address:127.0.0.1
    Signature Algorithm: sha256WithRSAEncryption
         5c:8c:e7:88:b7:1d:16:4f:12:79:de:16:72:dc:a7:35:db:8f:
         ab:89:57:be:dd:fe:07:59:99:af:d1:2e:32:bb:6d:3d:6f:d4:
         94:da:f3:c3:68:8d:ad:11:ba:04:44:96:42:f4:80:cc:4a:a2:
         e1:ce:12:21:86:ea:0a:e8:b4:2e:7e:20:f1:1a:94:82:4e:56:
         64:2f:1c:7d:19:d1:a0:f1:f7:e2:39:09:c7:89:63:ef:a1:97:
         15:6c:2c:83:fd:bf:0e:be:f6:bd:7d:f4:77:c2:5c:fc:e1:60:
         86:e4:5e:39:01:86:e5:1c:32:8a:bf:32:a4:6e:b2:34:b4:a4:
         52:06
-----BEGIN CERTIFICATE-----
MIIEsjCCBBugAwIBAgIBATANBgkqhkiG9w0BAQsFADCBlzELMAkGA1UEBhMCVVMx
EDAOBgNVBAgTB0Zsb3JpZGExGzAZBgNVBAcTElBhbG0gQmVhY2ggR2FyZGVuczEU
MBIGA1UEChMLWmVyb0MsIEluYy4xDDAKBgNVBAsTA0ljZTEWMBQGA1UEAxMNWmVy
b0MgVGVzdCBDQTEdMBsGCSqGSIb3DQEJARYOaW5mb0B6ZXJvYy5jb20wHhcNMTMw
OTA0MTMzODI5WhcNMTgwOTAzMTMzODI5WjBzMQswCQYDVQQGEwJVUzEQMA4GA1UE
CBMHRmxvcmlkYTEUMBIGA1UEChMLWmVyb0MsIEluYy4xDDAKBgNVBAsTA0ljZTEd
MBsGCSqGSIb3DQEJARYOaW5mb0B6ZXJvYy5jb20xDzANBgNVBAMTBkNsaWVudDCC
AbcwggEsBgcqhkjOOAQBMIIBHwKBgQDlgTkHQ0+i25ffSHW63CQcJrVRbrVDWG6V
cr7Fjt7MsbkfO0VjHx6YKc6onj/0AlfgDgkirtOEW1uNbCPWJ6RHzAP96QfOl5fV
NmbkqUTJP1giOuA+Q9rG+jS2qkw2V9zQEV1j6Mz6K0wH6UVDymaYIV53cfpyE2xH
16KC7AR5PwIVAPPL6YyjLMxUpbPT6vAextyaMxX1AoGBALjvPzHxtHFIruiQc9Dw
Q0A01bvsi1Yc/DePask1V6Z7Kndfg1FGACn3XUK/Yde1ybyoZ9fjh7SDeQpHMQTl
gW6pooBIiAbcVSNUST0DU1aegBrLyO7KuZ2w7LdFlf45EOs1RI1J2OeREp/1TwWC
7WvI0odOL9LPLdEcdHdlkHW0A4GEAAKBgBnDeaCVl+1y2Lze4zeT5aMaxDUaaZBS
K2T0VQKCN48OeYYBJy7En7vHJtXPeldhd/ERo8P9oNE4Pa+bCU7BVVgxlVSD56rM
eDSvokp7XJjYpvCWABegTvqRRPlaWHM1smrsCrbkr74MQ2satue1SdE/Qg1avoYy
yoADPF+ZTZ0Do4IBFjCCARIwCQYDVR0TBAIwADAdBgNVHQ4EFgQU0j8MgfYUUu6L
XVv7pdPQhtd+RIQwgcwGA1UdIwSBxDCBwYAUnAA6WYqyWi8oeDezeYlsA5lKoCSh
gZ2kgZowgZcxCzAJBgNVBAYTAlVTMRAwDgYDVQQIEwdGbG9yaWRhMRswGQYDVQQH
ExJQYWxtIEJlYWNoIEdhcmRlbnMxFDASBgNVBAoTC1plcm9DLCBJbmMuMQwwCgYD
VQQLEwNJY2UxFjAUBgNVBAMTDVplcm9DIFRlc3QgQ0ExHTAbBgkqhkiG9w0BCQEW
DmluZm9AemVyb2MuY29tggkAi0MsB9AnJAIwFwYDVR0RBBAwDoIGY2xpZW50hwR/
AAABMA0GCSqGSIb3DQEBCwUAA4GBAFyM54i3HRZPEnneFnLcpzXbj6uJV77d/gdZ
ma/RLjK7bT1v1JTa88Noja0RugRElkL0gMxKouHOEiGG6grotC5+IPEalIJOVmQv
HH0Z0aDx9+I5CceJY++hlxVsLIP9vw6+9r199HfCXPzhYIbkXjkBhuUcMoq/MqRu
sjS0pFIG
-----END CERTIFICATE-----
