Certificate:
    Data:
        Version: 3 (0x2)
        Serial Number: 1 (0x1)
        Signature Algorithm: md5WithRSAEncryption
        Issuer: C=US, ST=Florida, L=Palm Beach Gardens, O=ZeroC, Inc., OU=Ice, CN=ZeroC Test CA/emailAddress=info@zeroc.com
        Validity
            Not Before: Mar  8 00:14:59 2008 GMT
            Not After : Mar  7 00:14:59 2013 GMT
        Subject: C=US, ST=Florida, O=ZeroC, Inc., OU=Ice/emailAddress=info@zeroc.com, CN=Client
        Subject Public Key Info:
            Public Key Algorithm: dsaEncryption
            DSA Public Key:
                pub: 
                    0b:0f:cb:6a:ec:14:8a:5d:5c:c0:82:9c:90:ad:3e:
                    40:b9:04:50:1e:7a:48:71:30:88:82:b8:7e:30:7a:
                    fc:7f:6c:d5:03:3b:2c:dd:09:bc:82:a5:40:7f:7c:
                    90:39:da:c8:6b:1a:8a:a7:4f:86:fe:53:e7:17:7c:
                    c5:56:7d:da:ab:8d:27:dd:9b:06:bc:2e:48:e9:04:
                    ba:f4:39:b4:fd:e9:06:51:3a:a7:f9:67:94:70:77:
                    26:e7:f3:a6:1d:44:1f:52:d3:28:39:d7:48:bb:0e:
                    bd:11:7d:25:22:a3:00:34:4d:b3:3f:0a:ce:d7:6e:
                    3d:0b:8a:db:26:63:42:91
                P:   
                    00:d8:c4:67:c0:78:b5:74:1e:28:c4:fb:d5:e6:6f:
                    6c:19:8c:24:e9:fb:ac:82:fb:17:4a:3c:54:d9:4f:
                    6a:bb:c2:ca:b0:6d:b3:2e:cd:0c:b9:02:f0:09:12:
                    3a:be:19:66:b3:de:59:a5:d0:1c:13:d7:04:13:3d:
                    a2:09:fc:f2:1f:67:eb:b2:7a:04:05:90:d9:5f:21:
                    55:c5:7c:7b:96:ee:4d:e2:0d:51:cc:3d:b6:bc:38:
                    c7:89:d9:fb:0a:14:cb:e4:62:54:a6:b0:ce:f2:a5:
                    25:32:af:83:c7:f3:30:15:d3:56:d2:09:44:fc:49:
                    fc:e3:38:43:1b:de:74:47:39
                Q:   
                    00:87:fc:d1:43:d2:9f:a0:00:1e:55:8e:8b:fc:dc:
                    51:cd:21:65:8a:1d
                G:   
                    04:f1:d1:35:4e:7c:df:e3:74:1e:58:d0:09:e9:da:
                    1a:8b:63:a6:a1:0b:97:d9:e4:26:cd:13:6f:5b:18:
                    ec:12:f6:b1:74:70:e1:04:3a:80:b4:b2:02:68:b4:
                    8d:7b:7f:7e:15:ec:e3:91:66:5b:ab:97:a5:55:b1:
                    db:92:fd:ec:28:57:bd:90:1b:0b:e1:4a:bf:fd:74:
                    f6:a4:4d:ab:52:6d:f9:36:17:da:92:ee:2a:91:b0:
                    6e:9c:09:3b:2f:24:83:b8:ba:38:2d:49:94:80:49:
                    57:eb:e2:17:0b:ed:bb:67:c6:f7:ea:d5:f1:d9:fb:
                    1e:49:87:63:d0:63:e1:b0
        X509v3 extensions:
            X509v3 Basic Constraints: 
                CA:FALSE
            X509v3 Subject Key Identifier: 
                43:5D:F4:DA:DA:EC:26:B0:05:85:06:3E:76:FD:9D:FF:F2:FE:70:26
            X509v3 Authority Key Identifier: 
                keyid:98:47:F1:08:3C:55:3F:B6:A7:BC:62:C6:02:12:85:8F:BD:96:19:BA
                DirName:/C=US/ST=Florida/L=Palm Beach Gardens/O=ZeroC, Inc./OU=Ice/CN=ZeroC Test CA/emailAddress=info@zeroc.com
                serial:ED:07:45:CD:BD:7D:29:F0

            X509v3 Subject Alternative Name: 
                DNS:client, IP Address:127.0.0.1
    Signature Algorithm: md5WithRSAEncryption
        38:87:21:2f:b0:7b:43:c6:09:af:05:32:e9:e3:7c:c4:08:b9:
        60:2d:5d:16:6b:51:54:5f:bf:53:0c:62:05:dd:f2:9c:7f:0b:
        60:12:7a:7d:e3:df:ad:e7:32:dd:7b:73:f4:26:7e:da:5a:21:
        15:5c:0e:93:de:97:43:e6:03:7c:92:1a:f3:b1:87:92:90:a5:
        c5:1b:7a:5b:53:73:bc:ee:e2:41:5c:d6:0b:04:e5:14:55:d7:
        c0:01:d2:42:65:02:20:de:bf:57:fb:93:2c:c8:1b:78:23:af:
        42:ab:93:84:7a:86:2a:d2:47:3f:40:34:e0:8d:d1:0c:94:db:
        51:1d
-----BEGIN CERTIFICATE-----
MIIEsTCCBBqgAwIBAgIBATANBgkqhkiG9w0BAQQFADCBlzELMAkGA1UEBhMCVVMx
EDAOBgNVBAgTB0Zsb3JpZGExGzAZBgNVBAcTElBhbG0gQmVhY2ggR2FyZGVuczEU
MBIGA1UEChMLWmVyb0MsIEluYy4xDDAKBgNVBAsTA0ljZTEWMBQGA1UEAxMNWmVy
b0MgVGVzdCBDQTEdMBsGCSqGSIb3DQEJARYOaW5mb0B6ZXJvYy5jb20wHhcNMDgw
MzA4MDAxNDU5WhcNMTMwMzA3MDAxNDU5WjBzMQswCQYDVQQGEwJVUzEQMA4GA1UE
CBMHRmxvcmlkYTEUMBIGA1UEChMLWmVyb0MsIEluYy4xDDAKBgNVBAsTA0ljZTEd
MBsGCSqGSIb3DQEJARYOaW5mb0B6ZXJvYy5jb20xDzANBgNVBAMTBkNsaWVudDCC
AbYwggErBgcqhkjOOAQBMIIBHgKBgQDYxGfAeLV0HijE+9Xmb2wZjCTp+6yC+xdK
PFTZT2q7wsqwbbMuzQy5AvAJEjq+GWaz3lml0BwT1wQTPaIJ/PIfZ+uyegQFkNlf
IVXFfHuW7k3iDVHMPba8OMeJ2fsKFMvkYlSmsM7ypSUyr4PH8zAV01bSCUT8Sfzj
OEMb3nRHOQIVAIf80UPSn6AAHlWOi/zcUc0hZYodAoGABPHRNU583+N0HljQCena
GotjpqELl9nkJs0Tb1sY7BL2sXRw4QQ6gLSyAmi0jXt/fhXs45FmW6uXpVWx25L9
7ChXvZAbC+FKv/109qRNq1Jt+TYX2pLuKpGwbpwJOy8kg7i6OC1JlIBJV+viFwvt
u2fG9+rV8dn7HkmHY9Bj4bADgYQAAoGACw/LauwUil1cwIKckK0+QLkEUB56SHEw
iIK4fjB6/H9s1QM7LN0JvIKlQH98kDnayGsaiqdPhv5T5xd8xVZ92quNJ92bBrwu
SOkEuvQ5tP3pBlE6p/lnlHB3Jufzph1EH1LTKDnXSLsOvRF9JSKjADRNsz8Kztdu
PQuK2yZjQpGjggEWMIIBEjAJBgNVHRMEAjAAMB0GA1UdDgQWBBRDXfTa2uwmsAWF
Bj52/Z3/8v5wJjCBzAYDVR0jBIHEMIHBgBSYR/EIPFU/tqe8YsYCEoWPvZYZuqGB
naSBmjCBlzELMAkGA1UEBhMCVVMxEDAOBgNVBAgTB0Zsb3JpZGExGzAZBgNVBAcT
ElBhbG0gQmVhY2ggR2FyZGVuczEUMBIGA1UEChMLWmVyb0MsIEluYy4xDDAKBgNV
BAsTA0ljZTEWMBQGA1UEAxMNWmVyb0MgVGVzdCBDQTEdMBsGCSqGSIb3DQEJARYO
aW5mb0B6ZXJvYy5jb22CCQDtB0XNvX0p8DAXBgNVHREEEDAOggZjbGllbnSHBH8A
AAEwDQYJKoZIhvcNAQEEBQADgYEAOIchL7B7Q8YJrwUy6eN8xAi5YC1dFmtRVF+/
UwxiBd3ynH8LYBJ6fePfrecy3Xtz9CZ+2lohFVwOk96XQ+YDfJIa87GHkpClxRt6
W1NzvO7iQVzWCwTlFFXXwAHSQmUCIN6/V/uTLMgbeCOvQquThHqGKtJHP0A04I3R
DJTbUR0=
-----END CERTIFICATE-----
