Certificate:
    Data:
        Version: 3 (0x2)
        Serial Number: 1 (0x1)
    Signature Algorithm: sha256WithRSAEncryption
        Issuer: C=US, ST=Florida, L=Palm Beach Gardens, O=ZeroC, Inc., OU=Ice, CN=ZeroC Test CA/emailAddress=info@zeroc.com
        Validity
            Not Before: Sep  4 13:38:29 2013 GMT
            Not After : Sep  3 13:38:29 2018 GMT
        Subject: C=US, ST=Florida, O=ZeroC, Inc., OU=Ice/emailAddress=info@zeroc.com, CN=Client
        Subject Public Key Info:
            Public Key Algorithm: rsaEncryption
                Public-Key: (1024 bit)
                Modulus:
                    00:b2:4b:5b:a6:63:d6:af:55:25:f7:29:24:ff:79:
                    41:05:93:37:9c:88:1d:ef:d2:7d:3f:78:33:2c:02:
                    12:c6:96:ec:8c:75:83:0a:6c:fe:24:be:39:b8:03:
                    e6:8a:7f:fb:c5:be:a4:02:0a:18:ac:2a:80:e7:fa:
                    11:06:40:58:94:5a:ef:98:c8:03:64:5a:b3:44:4f:
                    8c:92:48:79:95:62:62:0d:24:e4:a2:f9:be:15:29:
                    f3:e5:5d:1c:e2:44:16:d4:63:22:d3:42:ca:92:83:
                    7f:61:9b:e6:d1:09:51:af:cf:c4:8a:f7:e8:dc:e1:
                    11:34:48:51:0b:22:2a:1a:1f
                Exponent: 65537 (0x10001)
        X509v3 extensions:
            X509v3 Basic Constraints: 
                CA:FALSE
            X509v3 Subject Key Identifier: 
                15:74:9F:9D:1C:5A:B4:76:94:03:5C:CE:F2:4D:02:13:42:D6:44:75
            X509v3 Authority Key Identifier: 
                keyid:9C:00:3A:59:8A:B2:5A:2F:28:78:37:B3:79:89:6C:03:99:4A:A0:24
                DirName:/C=US/ST=Florida/L=Palm Beach Gardens/O=ZeroC, Inc./OU=Ice/CN=ZeroC Test CA/emailAddress=info@zeroc.com
                serial:8B:43:2C:07:D0:27:24:02

            X509v3 Subject Alternative Name: 
                DNS:client, IP Address:127.0.0.1
    Signature Algorithm: sha256WithRSAEncryption
         90:84:21:05:57:ca:06:e7:72:f1:9e:2c:83:27:58:dc:12:e3:
         1d:c1:95:41:be:fc:32:f8:7d:72:e2:79:6d:6b:96:a5:02:28:
         3b:48:2b:49:0e:ba:c5:3b:c3:60:c8:84:85:ef:3e:e0:c6:88:
         cf:51:61:96:02:9e:be:43:0e:c8:b0:ec:c1:4a:bd:12:f4:ea:
         7b:bb:50:a6:76:8c:6b:a3:c8:12:ec:7b:a4:9c:13:67:c3:3c:
         67:c5:df:bb:46:23:a2:fa:8e:00:38:2e:f7:cb:1e:8a:24:15:
         57:2a:62:40:12:f6:2f:07:72:68:30:32:83:cf:45:9c:03:af:
         b5:06
-----BEGIN CERTIFICATE-----
MIIDmTCCAwKgAwIBAgIBATANBgkqhkiG9w0BAQsFADCBlzELMAkGA1UEBhMCVVMx
EDAOBgNVBAgTB0Zsb3JpZGExGzAZBgNVBAcTElBhbG0gQmVhY2ggR2FyZGVuczEU
MBIGA1UEChMLWmVyb0MsIEluYy4xDDAKBgNVBAsTA0ljZTEWMBQGA1UEAxMNWmVy
b0MgVGVzdCBDQTEdMBsGCSqGSIb3DQEJARYOaW5mb0B6ZXJvYy5jb20wHhcNMTMw
OTA0MTMzODI5WhcNMTgwOTAzMTMzODI5WjBzMQswCQYDVQQGEwJVUzEQMA4GA1UE
CBMHRmxvcmlkYTEUMBIGA1UEChMLWmVyb0MsIEluYy4xDDAKBgNVBAsTA0ljZTEd
MBsGCSqGSIb3DQEJARYOaW5mb0B6ZXJvYy5jb20xDzANBgNVBAMTBkNsaWVudDCB
nzANBgkqhkiG9w0BAQEFAAOBjQAwgYkCgYEAsktbpmPWr1Ul9ykk/3lBBZM3nIgd
79J9P3gzLAISxpbsjHWDCmz+JL45uAPmin/7xb6kAgoYrCqA5/oRBkBYlFrvmMgD
ZFqzRE+Mkkh5lWJiDSTkovm+FSnz5V0c4kQW1GMi00LKkoN/YZvm0QlRr8/Eivfo
3OERNEhRCyIqGh8CAwEAAaOCARYwggESMAkGA1UdEwQCMAAwHQYDVR0OBBYEFBV0
n50cWrR2lANczvJNAhNC1kR1MIHMBgNVHSMEgcQwgcGAFJwAOlmKslovKHg3s3mJ
bAOZSqAkoYGdpIGaMIGXMQswCQYDVQQGEwJVUzEQMA4GA1UECBMHRmxvcmlkYTEb
MBkGA1UEBxMSUGFsbSBCZWFjaCBHYXJkZW5zMRQwEgYDVQQKEwtaZXJvQywgSW5j
LjEMMAoGA1UECxMDSWNlMRYwFAYDVQQDEw1aZXJvQyBUZXN0IENBMR0wGwYJKoZI
hvcNAQkBFg5pbmZvQHplcm9jLmNvbYIJAItDLAfQJyQCMBcGA1UdEQQQMA6CBmNs
aWVudIcEfwAAATANBgkqhkiG9w0BAQsFAAOBgQCQhCEFV8oG53LxniyDJ1jcEuMd
wZVBvvwy+H1y4nlta5alAig7SCtJDrrFO8NgyISF7z7gxojPUWGWAp6+Qw7IsOzB
Sr0S9Op7u1Cmdoxro8gS7HuknBNnwzxnxd+7RiOi+o4AOC73yx6KJBVXKmJAEvYv
B3JoMDKDz0WcA6+1Bg==
-----END CERTIFICATE-----
