Certificate:
    Data:
        Version: 3 (0x2)
        Serial Number: 1 (0x1)
    Signature Algorithm: sha256WithRSAEncryption
        Issuer: C=US, ST=Florida, L=Palm Beach Gardens, O=ZeroC, Inc., OU=Ice, CN=ZeroC Test CA/emailAddress=info@zeroc.com
        Validity
            Not Before: Nov 15 16:01:05 2012 GMT
            Not After : Nov 14 16:01:05 2017 GMT
        Subject: C=US, ST=Florida, O=ZeroC, Inc., OU=Ice/emailAddress=info@zeroc.com, CN=Client
        Subject Public Key Info:
            Public Key Algorithm: rsaEncryption
                Public-Key: (1024 bit)
                Modulus:
                    00:ae:5c:a7:22:a6:8d:94:60:21:03:5b:9d:7d:47:
                    90:8b:0c:08:a2:7c:dc:92:0c:a2:49:ce:8d:84:14:
                    a2:98:9f:84:02:86:4f:3d:96:4c:97:a7:21:38:71:
                    57:db:99:29:ac:2e:0b:ee:a1:bf:0d:6c:30:a4:2a:
                    bc:cc:ba:65:d3:f9:d9:2b:af:03:f7:fa:7c:f5:8c:
                    c8:e1:ab:7a:80:d4:fd:0d:58:9f:54:54:a9:0e:d1:
                    5b:0d:ab:d9:37:3f:44:3e:8d:6a:39:d6:fb:31:87:
                    d1:45:5d:80:6e:7f:91:5a:ff:ff:4c:83:09:74:17:
                    1f:b5:38:1e:da:58:bc:a7:b3
                Exponent: 65537 (0x10001)
        X509v3 extensions:
            X509v3 Basic Constraints: 
                CA:FALSE
            X509v3 Subject Key Identifier: 
                4C:FF:CE:B6:AF:2F:86:C4:18:15:BE:41:B0:A6:58:6B:D6:BB:D5:93
            X509v3 Authority Key Identifier: 
                keyid:26:D0:8A:9D:DD:7F:72:86:37:5F:35:96:10:FC:85:A0:B0:9E:F3:F2
                DirName:/C=US/ST=Florida/L=Palm Beach Gardens/O=ZeroC, Inc./OU=Ice/CN=ZeroC Test CA/emailAddress=info@zeroc.com
                serial:B7:E8:19:68:75:D3:C8:0D

            X509v3 Subject Alternative Name: 
                DNS:client, IP Address:127.0.0.1
    Signature Algorithm: sha256WithRSAEncryption
         3f:06:02:ce:37:7f:5b:fb:f2:5d:3b:65:89:44:7c:86:6d:da:
         59:b4:e9:b3:5a:10:10:7b:b3:3c:97:f6:54:47:fc:91:a6:23:
         8e:92:29:42:79:c6:c8:db:8d:83:2a:a8:53:5e:21:7d:1f:c2:
         23:e5:6b:0b:7d:f3:be:ec:35:9b:f4:10:24:f3:4f:12:af:0f:
         c6:5b:26:98:f7:c8:6b:60:92:c6:73:8b:75:bf:93:bb:af:df:
         7c:05:48:bd:7b:9e:d1:7a:61:4a:00:36:ee:e6:5c:ad:db:5a:
         24:4d:a4:3c:00:9d:cc:7c:0f:bb:ce:88:ff:f4:62:e8:52:05:
         61:23
-----BEGIN CERTIFICATE-----
MIIDmTCCAwKgAwIBAgIBATANBgkqhkiG9w0BAQsFADCBlzELMAkGA1UEBhMCVVMx
EDAOBgNVBAgTB0Zsb3JpZGExGzAZBgNVBAcTElBhbG0gQmVhY2ggR2FyZGVuczEU
MBIGA1UEChMLWmVyb0MsIEluYy4xDDAKBgNVBAsTA0ljZTEWMBQGA1UEAxMNWmVy
b0MgVGVzdCBDQTEdMBsGCSqGSIb3DQEJARYOaW5mb0B6ZXJvYy5jb20wHhcNMTIx
MTE1MTYwMTA1WhcNMTcxMTE0MTYwMTA1WjBzMQswCQYDVQQGEwJVUzEQMA4GA1UE
CBMHRmxvcmlkYTEUMBIGA1UEChMLWmVyb0MsIEluYy4xDDAKBgNVBAsTA0ljZTEd
MBsGCSqGSIb3DQEJARYOaW5mb0B6ZXJvYy5jb20xDzANBgNVBAMTBkNsaWVudDCB
nzANBgkqhkiG9w0BAQEFAAOBjQAwgYkCgYEArlynIqaNlGAhA1udfUeQiwwIonzc
kgyiSc6NhBSimJ+EAoZPPZZMl6chOHFX25kprC4L7qG/DWwwpCq8zLpl0/nZK68D
9/p89YzI4at6gNT9DVifVFSpDtFbDavZNz9EPo1qOdb7MYfRRV2Abn+RWv//TIMJ
dBcftTge2li8p7MCAwEAAaOCARYwggESMAkGA1UdEwQCMAAwHQYDVR0OBBYEFEz/
zravL4bEGBW+QbCmWGvWu9WTMIHMBgNVHSMEgcQwgcGAFCbQip3df3KGN181lhD8
haCwnvPyoYGdpIGaMIGXMQswCQYDVQQGEwJVUzEQMA4GA1UECBMHRmxvcmlkYTEb
MBkGA1UEBxMSUGFsbSBCZWFjaCBHYXJkZW5zMRQwEgYDVQQKEwtaZXJvQywgSW5j
LjEMMAoGA1UECxMDSWNlMRYwFAYDVQQDEw1aZXJvQyBUZXN0IENBMR0wGwYJKoZI
hvcNAQkBFg5pbmZvQHplcm9jLmNvbYIJALfoGWh108gNMBcGA1UdEQQQMA6CBmNs
aWVudIcEfwAAATANBgkqhkiG9w0BAQsFAAOBgQA/BgLON39b+/JdO2WJRHyGbdpZ
tOmzWhAQe7M8l/ZUR/yRpiOOkilCecbI242DKqhTXiF9H8Ij5WsLffO+7DWb9BAk
808Srw/GWyaY98hrYJLGc4t1v5O7r998BUi9e57RemFKADbu5lyt21okTaQ8AJ3M
fA+7zoj/9GLoUgVhIw==
-----END CERTIFICATE-----
