Certificate:
    Data:
        Version: 3 (0x2)
        Serial Number: 1 (0x1)
    Signature Algorithm: sha256WithRSAEncryption
        Issuer: C=US, ST=Florida, L=Palm Beach Gardens, O=ZeroC, Inc., OU=Ice, CN=ZeroC Test CA/emailAddress=info@zeroc.com
        Validity
            Not Before: Mar 19 16:49:02 2014 GMT
            Not After : Mar 18 16:49:02 2019 GMT
        Subject: C=US, ST=Florida, O=ZeroC, Inc., OU=Ice/emailAddress=info@zeroc.com, CN=Client
        Subject Public Key Info:
            Public Key Algorithm: rsaEncryption
                Public-Key: (1024 bit)
                Modulus:
                    00:cf:b2:11:11:e1:8c:36:f5:40:7c:de:14:c3:d5:
                    6a:7f:fb:8b:74:96:0e:b8:9d:89:99:81:76:2d:57:
                    9f:27:c6:5e:2f:83:09:2b:a0:48:02:b1:5f:91:ee:
                    02:d7:67:c1:0c:b3:72:85:54:fe:07:de:a3:7d:a2:
                    0a:49:d1:8e:40:e9:22:2f:a1:b1:48:16:f2:a9:39:
                    1c:84:e8:a4:af:d2:36:6f:e0:2c:8e:f7:1e:9c:85:
                    9b:af:ae:de:77:38:3c:55:22:ff:ef:8c:b1:7e:72:
                    78:d9:52:15:f7:34:6d:f6:75:46:17:10:3f:4c:bd:
                    19:19:88:0f:90:47:cc:c6:e7
                Exponent: 65537 (0x10001)
        X509v3 extensions:
            X509v3 Basic Constraints: 
                CA:FALSE
            X509v3 Subject Key Identifier: 
                B3:9E:0A:FC:4E:6A:C3:47:E2:32:3A:AD:07:8C:BF:14:C7:91:27:5B
            X509v3 Authority Key Identifier: 
                keyid:80:8E:3F:71:F4:C8:ED:1F:0A:54:75:CD:D1:F0:58:D7:05:0B:C2:2B
                DirName:/C=US/ST=Florida/L=Palm Beach Gardens/O=ZeroC, Inc./OU=Ice/CN=ZeroC Test CA/emailAddress=info@zeroc.com
                serial:DD:BF:8A:B2:D7:73:61:B3

            X509v3 Subject Alternative Name: 
                DNS:client, IP Address:127.0.0.1
    Signature Algorithm: sha256WithRSAEncryption
         72:c0:73:41:b3:41:3c:89:36:72:e4:c2:a6:e4:5c:79:42:26:
         34:6a:62:39:12:8c:df:4c:d9:fb:96:7d:b2:2d:2d:da:9c:02:
         54:47:98:eb:d1:8c:60:c9:aa:eb:f5:7b:c1:50:a6:13:d4:06:
         df:d2:aa:e3:f9:91:ef:ac:a5:34:02:82:1b:3d:13:2a:3e:3d:
         b7:bc:2f:0b:ce:c0:d4:59:96:68:b9:5c:30:eb:00:36:0b:20:
         76:ba:80:43:e9:2e:df:4b:8b:51:59:9c:1b:20:b2:1a:64:1a:
         2c:0e:63:6f:fb:53:ab:75:0e:56:32:00:af:4e:13:94:99:d0:
         56:af
-----BEGIN CERTIFICATE-----
MIIDmTCCAwKgAwIBAgIBATANBgkqhkiG9w0BAQsFADCBlzELMAkGA1UEBhMCVVMx
EDAOBgNVBAgTB0Zsb3JpZGExGzAZBgNVBAcTElBhbG0gQmVhY2ggR2FyZGVuczEU
MBIGA1UEChMLWmVyb0MsIEluYy4xDDAKBgNVBAsTA0ljZTEWMBQGA1UEAxMNWmVy
b0MgVGVzdCBDQTEdMBsGCSqGSIb3DQEJARYOaW5mb0B6ZXJvYy5jb20wHhcNMTQw
MzE5MTY0OTAyWhcNMTkwMzE4MTY0OTAyWjBzMQswCQYDVQQGEwJVUzEQMA4GA1UE
CBMHRmxvcmlkYTEUMBIGA1UEChMLWmVyb0MsIEluYy4xDDAKBgNVBAsTA0ljZTEd
MBsGCSqGSIb3DQEJARYOaW5mb0B6ZXJvYy5jb20xDzANBgNVBAMTBkNsaWVudDCB
nzANBgkqhkiG9w0BAQEFAAOBjQAwgYkCgYEAz7IREeGMNvVAfN4Uw9Vqf/uLdJYO
uJ2JmYF2LVefJ8ZeL4MJK6BIArFfke4C12fBDLNyhVT+B96jfaIKSdGOQOkiL6Gx
SBbyqTkchOikr9I2b+AsjvcenIWbr67edzg8VSL/74yxfnJ42VIV9zRt9nVGFxA/
TL0ZGYgPkEfMxucCAwEAAaOCARYwggESMAkGA1UdEwQCMAAwHQYDVR0OBBYEFLOe
CvxOasNH4jI6rQeMvxTHkSdbMIHMBgNVHSMEgcQwgcGAFICOP3H0yO0fClR1zdHw
WNcFC8IroYGdpIGaMIGXMQswCQYDVQQGEwJVUzEQMA4GA1UECBMHRmxvcmlkYTEb
MBkGA1UEBxMSUGFsbSBCZWFjaCBHYXJkZW5zMRQwEgYDVQQKEwtaZXJvQywgSW5j
LjEMMAoGA1UECxMDSWNlMRYwFAYDVQQDEw1aZXJvQyBUZXN0IENBMR0wGwYJKoZI
hvcNAQkBFg5pbmZvQHplcm9jLmNvbYIJAN2/irLXc2GzMBcGA1UdEQQQMA6CBmNs
aWVudIcEfwAAATANBgkqhkiG9w0BAQsFAAOBgQBywHNBs0E8iTZy5MKm5Fx5QiY0
amI5EozfTNn7ln2yLS3anAJUR5jr0Yxgyarr9XvBUKYT1Abf0qrj+ZHvrKU0AoIb
PRMqPj23vC8LzsDUWZZouVww6wA2CyB2uoBD6S7fS4tRWZwbILIaZBosDmNv+1Or
dQ5WMgCvThOUmdBWrw==
-----END CERTIFICATE-----
