Certificate:
    Data:
        Version: 3 (0x2)
        Serial Number: 1 (0x1)
        Signature Algorithm: md5WithRSAEncryption
        Issuer: C=US, ST=Florida, L=Palm Beach Gardens, O=ZeroC, Inc., OU=Ice, CN=ZeroC Test CA/emailAddress=info@zeroc.com
        Validity
            Not Before: Mar  8 00:14:58 2008 GMT
            Not After : Mar  7 00:14:58 2013 GMT
        Subject: C=US, ST=Florida, O=ZeroC, Inc., OU=Ice/emailAddress=info@zeroc.com, CN=Client
        Subject Public Key Info:
            Public Key Algorithm: rsaEncryption
            RSA Public Key: (1024 bit)
                Modulus (1024 bit):
                    00:e2:80:47:88:2d:e0:e8:ad:2d:d5:3b:40:27:83:
                    0d:1d:4a:6a:4d:4d:7b:e5:55:25:8b:71:8c:57:30:
                    5f:b9:03:96:d6:f7:39:1c:e7:f2:43:01:f4:78:c3:
                    9b:34:66:1a:a3:5b:2d:b1:ae:ea:77:0a:1b:e0:47:
                    0c:5c:08:0f:af:d9:8f:f2:75:ce:c3:90:0a:8f:6c:
                    ee:39:4d:a2:f1:89:a7:7a:01:99:99:4d:d1:42:0a:
                    61:86:85:d5:a1:82:4e:33:80:ca:02:6e:83:60:da:
                    f0:c0:a9:f7:0c:c8:75:a2:93:2c:5d:71:2f:35:d2:
                    b5:1a:56:e3:85:13:ef:43:33
                Exponent: 65537 (0x10001)
        X509v3 extensions:
            X509v3 Basic Constraints: 
                CA:FALSE
            X509v3 Subject Key Identifier: 
                0A:97:F9:3F:25:F7:B0:95:EF:E1:40:D1:CC:59:05:4C:4D:83:17:00
            X509v3 Authority Key Identifier: 
                keyid:98:47:F1:08:3C:55:3F:B6:A7:BC:62:C6:02:12:85:8F:BD:96:19:BA
                DirName:/C=US/ST=Florida/L=Palm Beach Gardens/O=ZeroC, Inc./OU=Ice/CN=ZeroC Test CA/emailAddress=info@zeroc.com
                serial:ED:07:45:CD:BD:7D:29:F0

            X509v3 Subject Alternative Name: 
                DNS:client, IP Address:127.0.0.1
    Signature Algorithm: md5WithRSAEncryption
        5c:5d:32:aa:1a:65:da:6d:31:19:f1:da:ca:b8:ec:5e:1b:d6:
        f3:27:6d:6f:c7:87:95:37:05:e3:61:33:aa:ee:47:3f:2c:16:
        6a:70:1b:20:72:64:d5:a4:44:76:eb:ff:02:97:c9:4f:9b:9a:
        d9:07:f7:11:e0:50:8b:d4:63:d0:97:83:62:e4:cf:a2:6c:b5:
        0e:51:eb:a2:0b:af:84:aa:22:fd:be:1e:2a:4c:33:02:96:d0:
        fe:27:69:b6:27:74:1c:3d:84:4c:c1:2f:3a:18:1c:2f:d8:41:
        6c:52:c9:a0:50:d4:e1:7b:63:9f:b4:8f:4d:55:13:1f:b8:a5:
        1b:0c
-----BEGIN CERTIFICATE-----
MIIDmTCCAwKgAwIBAgIBATANBgkqhkiG9w0BAQQFADCBlzELMAkGA1UEBhMCVVMx
EDAOBgNVBAgTB0Zsb3JpZGExGzAZBgNVBAcTElBhbG0gQmVhY2ggR2FyZGVuczEU
MBIGA1UEChMLWmVyb0MsIEluYy4xDDAKBgNVBAsTA0ljZTEWMBQGA1UEAxMNWmVy
b0MgVGVzdCBDQTEdMBsGCSqGSIb3DQEJARYOaW5mb0B6ZXJvYy5jb20wHhcNMDgw
MzA4MDAxNDU4WhcNMTMwMzA3MDAxNDU4WjBzMQswCQYDVQQGEwJVUzEQMA4GA1UE
CBMHRmxvcmlkYTEUMBIGA1UEChMLWmVyb0MsIEluYy4xDDAKBgNVBAsTA0ljZTEd
MBsGCSqGSIb3DQEJARYOaW5mb0B6ZXJvYy5jb20xDzANBgNVBAMTBkNsaWVudDCB
nzANBgkqhkiG9w0BAQEFAAOBjQAwgYkCgYEA4oBHiC3g6K0t1TtAJ4MNHUpqTU17
5VUli3GMVzBfuQOW1vc5HOfyQwH0eMObNGYao1stsa7qdwob4EcMXAgPr9mP8nXO
w5AKj2zuOU2i8YmnegGZmU3RQgphhoXVoYJOM4DKAm6DYNrwwKn3DMh1opMsXXEv
NdK1GlbjhRPvQzMCAwEAAaOCARYwggESMAkGA1UdEwQCMAAwHQYDVR0OBBYEFAqX
+T8l97CV7+FA0cxZBUxNgxcAMIHMBgNVHSMEgcQwgcGAFJhH8Qg8VT+2p7xixgIS
hY+9lhm6oYGdpIGaMIGXMQswCQYDVQQGEwJVUzEQMA4GA1UECBMHRmxvcmlkYTEb
MBkGA1UEBxMSUGFsbSBCZWFjaCBHYXJkZW5zMRQwEgYDVQQKEwtaZXJvQywgSW5j
LjEMMAoGA1UECxMDSWNlMRYwFAYDVQQDEw1aZXJvQyBUZXN0IENBMR0wGwYJKoZI
hvcNAQkBFg5pbmZvQHplcm9jLmNvbYIJAO0HRc29fSnwMBcGA1UdEQQQMA6CBmNs
aWVudIcEfwAAATANBgkqhkiG9w0BAQQFAAOBgQBcXTKqGmXabTEZ8drKuOxeG9bz
J21vx4eVNwXjYTOq7kc/LBZqcBsgcmTVpER26/8Cl8lPm5rZB/cR4FCL1GPQl4Ni
5M+ibLUOUeuiC6+EqiL9vh4qTDMCltD+J2m2J3QcPYRMwS86GBwv2EFsUsmgUNTh
e2OftI9NVRMfuKUbDA==
-----END CERTIFICATE-----
