Certificate:
    Data:
        Version: 3 (0x2)
        Serial Number: 1 (0x1)
        Signature Algorithm: md5WithRSAEncryption
        Issuer: C=US, ST=Florida, L=Palm Beach Gardens, O=ZeroC, Inc., OU=Ice, CN=ZeroC Test CA/emailAddress=info@zeroc.com
        Validity
            Not Before: Jul  3 08:17:52 2012 GMT
            Not After : Jul  2 08:17:52 2017 GMT
        Subject: C=US, ST=Florida, O=ZeroC, Inc., OU=Ice/emailAddress=info@zeroc.com, CN=Client
        Subject Public Key Info:
            Public Key Algorithm: rsaEncryption
            RSA Public Key: (1024 bit)
                Modulus (1024 bit):
                    00:d7:65:8d:73:cb:38:90:07:bc:90:57:1b:8a:54:
                    c1:62:79:aa:6f:f4:79:71:c9:52:25:a3:80:ae:56:
                    fc:de:50:ff:a3:1e:8f:94:1a:d5:2b:55:1d:51:85:
                    e9:07:0b:51:a7:0b:ce:25:13:43:6f:e9:ce:47:1c:
                    9a:e2:01:ab:81:b5:07:65:8b:a5:08:9d:4d:34:c4:
                    a4:10:b8:06:67:e5:14:45:70:ef:a3:26:79:4d:8a:
                    58:07:00:04:1c:fc:d2:a8:af:1f:55:ef:75:b4:b9:
                    06:d9:c9:77:1f:07:1f:e2:e7:61:bb:93:a4:dc:3c:
                    ae:e8:e8:b3:63:8c:49:e3:e7
                Exponent: 65537 (0x10001)
        X509v3 extensions:
            X509v3 Basic Constraints: 
                CA:FALSE
            X509v3 Subject Key Identifier: 
                50:BC:46:71:D4:EF:49:02:5E:1D:39:9A:22:7A:18:13:2A:72:A3:07
            X509v3 Authority Key Identifier: 
                keyid:8A:AE:B4:AA:C5:54:D5:CE:D0:6A:0C:FF:3D:83:8C:60:B4:AD:70:DB
                DirName:/C=US/ST=Florida/L=Palm Beach Gardens/O=ZeroC, Inc./OU=Ice/CN=ZeroC Test CA/emailAddress=info@zeroc.com
                serial:DB:C1:07:84:72:86:C9:56

            X509v3 Subject Alternative Name: 
                DNS:client, IP Address:127.0.0.1
    Signature Algorithm: md5WithRSAEncryption
        68:0c:45:5f:6c:7f:63:24:8a:79:72:b4:52:bf:47:de:a2:5c:
        65:9e:c3:b8:03:ac:b6:52:b4:57:73:a7:e0:36:b3:09:29:84:
        65:a3:ea:be:85:b5:2f:36:46:4e:ed:e1:92:92:50:5b:c7:ad:
        1e:d8:0d:81:4f:3d:9e:52:cb:b4:e5:e1:1e:26:44:8a:b2:ac:
        f6:8b:29:f5:f8:57:3c:6a:0c:43:a5:4d:b9:f2:48:03:e1:00:
        3b:83:e8:a8:8b:21:c4:50:32:80:04:89:e2:7c:20:a6:03:0d:
        87:41:16:cc:b0:35:a4:20:61:ee:e0:f2:ea:11:8c:e8:58:9a:
        78:49
-----BEGIN CERTIFICATE-----
MIIDmTCCAwKgAwIBAgIBATANBgkqhkiG9w0BAQQFADCBlzELMAkGA1UEBhMCVVMx
EDAOBgNVBAgTB0Zsb3JpZGExGzAZBgNVBAcTElBhbG0gQmVhY2ggR2FyZGVuczEU
MBIGA1UEChMLWmVyb0MsIEluYy4xDDAKBgNVBAsTA0ljZTEWMBQGA1UEAxMNWmVy
b0MgVGVzdCBDQTEdMBsGCSqGSIb3DQEJARYOaW5mb0B6ZXJvYy5jb20wHhcNMTIw
NzAzMDgxNzUyWhcNMTcwNzAyMDgxNzUyWjBzMQswCQYDVQQGEwJVUzEQMA4GA1UE
CBMHRmxvcmlkYTEUMBIGA1UEChMLWmVyb0MsIEluYy4xDDAKBgNVBAsTA0ljZTEd
MBsGCSqGSIb3DQEJARYOaW5mb0B6ZXJvYy5jb20xDzANBgNVBAMTBkNsaWVudDCB
nzANBgkqhkiG9w0BAQEFAAOBjQAwgYkCgYEA12WNc8s4kAe8kFcbilTBYnmqb/R5
cclSJaOArlb83lD/ox6PlBrVK1UdUYXpBwtRpwvOJRNDb+nORxya4gGrgbUHZYul
CJ1NNMSkELgGZ+UURXDvoyZ5TYpYBwAEHPzSqK8fVe91tLkG2cl3Hwcf4udhu5Ok
3Dyu6OizY4xJ4+cCAwEAAaOCARYwggESMAkGA1UdEwQCMAAwHQYDVR0OBBYEFFC8
RnHU70kCXh05miJ6GBMqcqMHMIHMBgNVHSMEgcQwgcGAFIqutKrFVNXO0GoM/z2D
jGC0rXDboYGdpIGaMIGXMQswCQYDVQQGEwJVUzEQMA4GA1UECBMHRmxvcmlkYTEb
MBkGA1UEBxMSUGFsbSBCZWFjaCBHYXJkZW5zMRQwEgYDVQQKEwtaZXJvQywgSW5j
LjEMMAoGA1UECxMDSWNlMRYwFAYDVQQDEw1aZXJvQyBUZXN0IENBMR0wGwYJKoZI
hvcNAQkBFg5pbmZvQHplcm9jLmNvbYIJANvBB4RyhslWMBcGA1UdEQQQMA6CBmNs
aWVudIcEfwAAATANBgkqhkiG9w0BAQQFAAOBgQBoDEVfbH9jJIp5crRSv0feolxl
nsO4A6y2UrRXc6fgNrMJKYRlo+q+hbUvNkZO7eGSklBbx60e2A2BTz2eUsu05eEe
JkSKsqz2iyn1+Fc8agxDpU258kgD4QA7g+ioiyHEUDKABInifCCmAw2HQRbMsDWk
IGHu4PLqEYzoWJp4SQ==
-----END CERTIFICATE-----
