Certificate:
    Data:
        Version: 3 (0x2)
        Serial Number: 1 (0x1)
    Signature Algorithm: sha256WithRSAEncryption
        Issuer: C=US, ST=Florida, L=Palm Beach Gardens, O=ZeroC, Inc., OU=Ice, CN=ZeroC Test CA/emailAddress=info@zeroc.com
        Validity
            Not Before: Sep  4 13:38:29 2013 GMT
            Not After : Sep  3 13:38:29 2018 GMT
        Subject: C=US, ST=Florida, O=ZeroC, Inc., OU=Ice/emailAddress=info@zeroc.com, CN=127.0.0.1
        Subject Public Key Info:
            Public Key Algorithm: dsaEncryption
                pub: 
                    49:e3:f3:2d:87:5d:0c:99:5d:a4:46:bd:94:70:a4:
                    77:37:df:03:e6:57:7b:4b:8d:9c:f7:87:e3:13:0d:
                    d4:d2:49:8a:85:e0:6c:29:23:42:03:5f:88:43:5b:
                    74:42:36:f6:07:0a:ef:5b:7a:95:4c:7d:34:ca:8a:
                    b2:f7:f8:c9:e6:88:99:c1:39:96:82:9e:02:7a:ca:
                    90:66:5d:5d:30:9e:7d:10:8b:69:2e:67:42:54:ae:
                    b1:5c:5a:41:48:a1:43:54:91:ce:aa:f4:68:ef:19:
                    02:83:a3:c5:d6:e2:ca:66:13:62:af:db:a6:c7:e0:
                    ac:4c:4a:47:a2:29:6c:f8
                P:   
                    00:e5:81:39:07:43:4f:a2:db:97:df:48:75:ba:dc:
                    24:1c:26:b5:51:6e:b5:43:58:6e:95:72:be:c5:8e:
                    de:cc:b1:b9:1f:3b:45:63:1f:1e:98:29:ce:a8:9e:
                    3f:f4:02:57:e0:0e:09:22:ae:d3:84:5b:5b:8d:6c:
                    23:d6:27:a4:47:cc:03:fd:e9:07:ce:97:97:d5:36:
                    66:e4:a9:44:c9:3f:58:22:3a:e0:3e:43:da:c6:fa:
                    34:b6:aa:4c:36:57:dc:d0:11:5d:63:e8:cc:fa:2b:
                    4c:07:e9:45:43:ca:66:98:21:5e:77:71:fa:72:13:
                    6c:47:d7:a2:82:ec:04:79:3f
                Q:   
                    00:f3:cb:e9:8c:a3:2c:cc:54:a5:b3:d3:ea:f0:1e:
                    c6:dc:9a:33:15:f5
                G:   
                    00:b8:ef:3f:31:f1:b4:71:48:ae:e8:90:73:d0:f0:
                    43:40:34:d5:bb:ec:8b:56:1c:fc:37:8f:6a:c9:35:
                    57:a6:7b:2a:77:5f:83:51:46:00:29:f7:5d:42:bf:
                    61:d7:b5:c9:bc:a8:67:d7:e3:87:b4:83:79:0a:47:
                    31:04:e5:81:6e:a9:a2:80:48:88:06:dc:55:23:54:
                    49:3d:03:53:56:9e:80:1a:cb:c8:ee:ca:b9:9d:b0:
                    ec:b7:45:95:fe:39:10:eb:35:44:8d:49:d8:e7:91:
                    12:9f:f5:4f:05:82:ed:6b:c8:d2:87:4e:2f:d2:cf:
                    2d:d1:1c:74:77:65:90:75:b4
        X509v3 extensions:
            X509v3 Basic Constraints: 
                CA:FALSE
            X509v3 Subject Key Identifier: 
                C2:05:C6:42:DF:04:6B:67:74:4A:9D:C5:29:06:BC:26:C6:2A:C2:4B
            X509v3 Authority Key Identifier: 
                keyid:9C:00:3A:59:8A:B2:5A:2F:28:78:37:B3:79:89:6C:03:99:4A:A0:24
                DirName:/C=US/ST=Florida/L=Palm Beach Gardens/O=ZeroC, Inc./OU=Ice/CN=ZeroC Test CA/emailAddress=info@zeroc.com
                serial:8B:43:2C:07:D0:27:24:02

            X509v3 Subject Alternative Name: 
                DNS:127.0.0.1, IP Address:127.0.0.1
    Signature Algorithm: sha256WithRSAEncryption
         61:13:75:39:03:30:61:80:a4:92:ba:39:a0:7a:9b:11:6c:75:
         2b:1e:4f:3f:00:40:fa:8e:01:d5:45:13:51:68:d5:e0:de:ac:
         c3:08:97:a4:f5:20:ca:91:13:83:e6:e2:49:d4:76:46:bb:ba:
         37:a3:bd:18:af:d1:7b:70:53:df:25:bb:da:e3:5f:d4:c6:dc:
         7b:e7:d3:c6:f0:45:7f:af:73:bc:23:6f:3d:46:0e:4c:92:ce:
         08:c8:8a:86:00:29:c9:8c:90:78:6d:5a:bb:89:0d:9e:26:d9:
         1e:2c:14:0e:90:dd:c2:73:a6:ba:8d:c9:2e:a1:e0:03:5c:c0:
         d9:70
-----BEGIN CERTIFICATE-----
MIIEuDCCBCGgAwIBAgIBATANBgkqhkiG9w0BAQsFADCBlzELMAkGA1UEBhMCVVMx
EDAOBgNVBAgTB0Zsb3JpZGExGzAZBgNVBAcTElBhbG0gQmVhY2ggR2FyZGVuczEU
MBIGA1UEChMLWmVyb0MsIEluYy4xDDAKBgNVBAsTA0ljZTEWMBQGA1UEAxMNWmVy
b0MgVGVzdCBDQTEdMBsGCSqGSIb3DQEJARYOaW5mb0B6ZXJvYy5jb20wHhcNMTMw
OTA0MTMzODI5WhcNMTgwOTAzMTMzODI5WjB2MQswCQYDVQQGEwJVUzEQMA4GA1UE
CBMHRmxvcmlkYTEUMBIGA1UEChMLWmVyb0MsIEluYy4xDDAKBgNVBAsTA0ljZTEd
MBsGCSqGSIb3DQEJARYOaW5mb0B6ZXJvYy5jb20xEjAQBgNVBAMTCTEyNy4wLjAu
MTCCAbcwggEsBgcqhkjOOAQBMIIBHwKBgQDlgTkHQ0+i25ffSHW63CQcJrVRbrVD
WG6Vcr7Fjt7MsbkfO0VjHx6YKc6onj/0AlfgDgkirtOEW1uNbCPWJ6RHzAP96QfO
l5fVNmbkqUTJP1giOuA+Q9rG+jS2qkw2V9zQEV1j6Mz6K0wH6UVDymaYIV53cfpy
E2xH16KC7AR5PwIVAPPL6YyjLMxUpbPT6vAextyaMxX1AoGBALjvPzHxtHFIruiQ
c9DwQ0A01bvsi1Yc/DePask1V6Z7Kndfg1FGACn3XUK/Yde1ybyoZ9fjh7SDeQpH
MQTlgW6pooBIiAbcVSNUST0DU1aegBrLyO7KuZ2w7LdFlf45EOs1RI1J2OeREp/1
TwWC7WvI0odOL9LPLdEcdHdlkHW0A4GEAAKBgEnj8y2HXQyZXaRGvZRwpHc33wPm
V3tLjZz3h+MTDdTSSYqF4GwpI0IDX4hDW3RCNvYHCu9bepVMfTTKirL3+MnmiJnB
OZaCngJ6ypBmXV0wnn0Qi2kuZ0JUrrFcWkFIoUNUkc6q9GjvGQKDo8XW4spmE2Kv
26bH4KxMSkeiKWz4o4IBGTCCARUwCQYDVR0TBAIwADAdBgNVHQ4EFgQUwgXGQt8E
a2d0Sp3FKQa8JsYqwkswgcwGA1UdIwSBxDCBwYAUnAA6WYqyWi8oeDezeYlsA5lK
oCShgZ2kgZowgZcxCzAJBgNVBAYTAlVTMRAwDgYDVQQIEwdGbG9yaWRhMRswGQYD
VQQHExJQYWxtIEJlYWNoIEdhcmRlbnMxFDASBgNVBAoTC1plcm9DLCBJbmMuMQww
CgYDVQQLEwNJY2UxFjAUBgNVBAMTDVplcm9DIFRlc3QgQ0ExHTAbBgkqhkiG9w0B
CQEWDmluZm9AemVyb2MuY29tggkAi0MsB9AnJAIwGgYDVR0RBBMwEYIJMTI3LjAu
MC4xhwR/AAABMA0GCSqGSIb3DQEBCwUAA4GBAGETdTkDMGGApJK6OaB6mxFsdSse
Tz8AQPqOAdVFE1Fo1eDerMMIl6T1IMqRE4Pm4knUdka7ujejvRiv0XtwU98lu9rj
X9TG3Hvn08bwRX+vc7wjbz1GDkySzgjIioYAKcmMkHhtWruJDZ4m2R4sFA6Q3cJz
prqNyS6h4ANcwNlw
-----END CERTIFICATE-----
