Certificate:
    Data:
        Version: 3 (0x2)
        Serial Number: 1 (0x1)
    Signature Algorithm: sha256WithRSAEncryption
        Issuer: C=US, ST=Florida, L=Palm Beach Gardens, O=ZeroC, Inc., OU=Ice, CN=ZeroC Test CA/emailAddress=info@zeroc.com
        Validity
            Not Before: Mar 19 16:49:02 2014 GMT
            Not After : Mar 18 16:49:02 2019 GMT
        Subject: C=US, ST=Florida, O=ZeroC, Inc., OU=Ice/emailAddress=info@zeroc.com, CN=127.0.0.1
        Subject Public Key Info:
            Public Key Algorithm: dsaEncryption
                pub: 
                    3f:eb:2d:de:54:2c:ad:b4:0f:d3:ea:46:eb:26:3d:
                    0b:b8:aa:1e:51:cb:b0:bb:ac:71:d8:3c:18:12:a4:
                    20:c2:7e:52:9c:4f:fc:1d:76:81:0a:c4:29:02:30:
                    75:7b:62:d0:89:db:93:83:0d:7b:9f:19:b9:fd:c9:
                    0e:47:2a:60:7f:22:c2:9f:02:49:c2:09:a8:4c:d9:
                    ad:ea:ce:97:34:c5:2a:18:47:97:20:a4:9c:77:25:
                    cf:7f:62:d4:7b:59:c7:9c:26:cc:09:a9:1e:ee:c8:
                    66:09:1f:4c:ab:09:c8:7b:ca:47:eb:1a:5b:51:1d:
                    f9:86:d8:e4:e9:94:4a:b9
                P:   
                    00:85:4d:95:b3:df:14:47:0e:ab:3a:66:d4:a1:d3:
                    f9:35:8a:9b:4a:1d:94:a5:96:09:1b:c4:ad:42:99:
                    7a:67:ef:6d:ef:43:8c:f0:6c:44:a8:6d:f5:98:e9:
                    c8:84:aa:a4:69:cc:b9:09:ef:4f:90:17:5a:9b:68:
                    ad:6c:2b:47:a4:30:42:1c:3a:b0:05:db:3f:cb:e1:
                    2e:ed:a6:ed:2c:58:4e:99:b5:b9:c9:cd:b5:fd:fa:
                    7f:d1:66:e8:69:d6:6b:85:11:b0:ae:4b:ee:04:18:
                    a4:4d:56:a0:16:23:a8:2b:09:14:34:6c:d3:24:77:
                    1b:2d:fd:1c:e5:60:57:93:6f
                Q:   
                    00:e8:95:27:4b:da:eb:19:13:d5:a9:54:a7:8f:77:
                    00:5a:c2:92:f6:55
                G:   
                    07:1b:5b:9a:ba:62:06:6b:ec:31:85:43:28:e2:4e:
                    43:34:25:d0:04:31:a7:81:6c:f7:b3:64:9a:3f:54:
                    0e:8f:ce:60:89:9a:a4:dc:e5:24:d3:85:8c:8c:97:
                    16:17:a1:c3:31:82:34:2f:f0:93:8b:8e:0e:5c:42:
                    c6:89:af:77:7d:b2:65:25:94:fd:ba:8e:1a:df:f6:
                    88:52:6e:b2:14:68:34:02:06:cb:4f:ad:50:c5:2c:
                    46:00:9f:d1:5b:23:f6:8c:a3:ce:69:43:42:24:3b:
                    0f:9d:cb:5f:63:c5:18:db:7a:76:45:1b:21:b6:25:
                    f1:18:a9:da:b2:59:eb:06
        X509v3 extensions:
            X509v3 Basic Constraints: 
                CA:FALSE
            X509v3 Subject Key Identifier: 
                3B:3A:D4:6C:39:2D:CB:44:62:7B:2A:4C:8B:F2:BB:50:A1:65:35:2B
            X509v3 Authority Key Identifier: 
                keyid:80:8E:3F:71:F4:C8:ED:1F:0A:54:75:CD:D1:F0:58:D7:05:0B:C2:2B
                DirName:/C=US/ST=Florida/L=Palm Beach Gardens/O=ZeroC, Inc./OU=Ice/CN=ZeroC Test CA/emailAddress=info@zeroc.com
                serial:DD:BF:8A:B2:D7:73:61:B3

            X509v3 Subject Alternative Name: 
                DNS:127.0.0.1, IP Address:127.0.0.1
    Signature Algorithm: sha256WithRSAEncryption
         be:4c:71:52:14:2d:7d:27:b0:9a:fe:54:40:97:e5:0f:79:62:
         bd:61:fe:55:26:02:c8:6e:0e:ba:ad:97:e9:02:c1:69:3d:8d:
         38:f7:8d:fd:00:58:97:05:ff:80:6a:2b:29:83:01:29:05:e2:
         93:af:95:a3:1f:cb:83:d1:78:53:c1:c9:f0:fd:65:31:08:67:
         23:b3:12:19:b7:32:52:01:44:68:b0:a8:87:da:79:93:85:8c:
         cd:95:27:05:ff:7a:6d:1f:bc:03:d7:f7:85:e3:8e:cd:1e:81:
         03:fc:95:fd:4e:6d:05:12:d4:41:29:7b:33:da:cb:69:08:80:
         3f:c8
-----BEGIN CERTIFICATE-----
MIIEtzCCBCCgAwIBAgIBATANBgkqhkiG9w0BAQsFADCBlzELMAkGA1UEBhMCVVMx
EDAOBgNVBAgTB0Zsb3JpZGExGzAZBgNVBAcTElBhbG0gQmVhY2ggR2FyZGVuczEU
MBIGA1UEChMLWmVyb0MsIEluYy4xDDAKBgNVBAsTA0ljZTEWMBQGA1UEAxMNWmVy
b0MgVGVzdCBDQTEdMBsGCSqGSIb3DQEJARYOaW5mb0B6ZXJvYy5jb20wHhcNMTQw
MzE5MTY0OTAyWhcNMTkwMzE4MTY0OTAyWjB2MQswCQYDVQQGEwJVUzEQMA4GA1UE
CBMHRmxvcmlkYTEUMBIGA1UEChMLWmVyb0MsIEluYy4xDDAKBgNVBAsTA0ljZTEd
MBsGCSqGSIb3DQEJARYOaW5mb0B6ZXJvYy5jb20xEjAQBgNVBAMTCTEyNy4wLjAu
MTCCAbYwggErBgcqhkjOOAQBMIIBHgKBgQCFTZWz3xRHDqs6ZtSh0/k1iptKHZSl
lgkbxK1CmXpn723vQ4zwbESobfWY6ciEqqRpzLkJ70+QF1qbaK1sK0ekMEIcOrAF
2z/L4S7tpu0sWE6ZtbnJzbX9+n/RZuhp1muFEbCuS+4EGKRNVqAWI6grCRQ0bNMk
dxst/RzlYFeTbwIVAOiVJ0va6xkT1alUp493AFrCkvZVAoGABxtbmrpiBmvsMYVD
KOJOQzQl0AQxp4Fs97Nkmj9UDo/OYImapNzlJNOFjIyXFhehwzGCNC/wk4uODlxC
xomvd32yZSWU/bqOGt/2iFJushRoNAIGy0+tUMUsRgCf0Vsj9oyjzmlDQiQ7D53L
X2PFGNt6dkUbIbYl8Rip2rJZ6wYDgYQAAoGAP+st3lQsrbQP0+pG6yY9C7iqHlHL
sLuscdg8GBKkIMJ+UpxP/B12gQrEKQIwdXti0Inbk4MNe58Zuf3JDkcqYH8iwp8C
ScIJqEzZrerOlzTFKhhHlyCknHclz39i1HtZx5wmzAmpHu7IZgkfTKsJyHvKR+sa
W1Ed+YbY5OmUSrmjggEZMIIBFTAJBgNVHRMEAjAAMB0GA1UdDgQWBBQ7OtRsOS3L
RGJ7KkyL8rtQoWU1KzCBzAYDVR0jBIHEMIHBgBSAjj9x9MjtHwpUdc3R8FjXBQvC
K6GBnaSBmjCBlzELMAkGA1UEBhMCVVMxEDAOBgNVBAgTB0Zsb3JpZGExGzAZBgNV
BAcTElBhbG0gQmVhY2ggR2FyZGVuczEUMBIGA1UEChMLWmVyb0MsIEluYy4xDDAK
BgNVBAsTA0ljZTEWMBQGA1UEAxMNWmVyb0MgVGVzdCBDQTEdMBsGCSqGSIb3DQEJ
ARYOaW5mb0B6ZXJvYy5jb22CCQDdv4qy13NhszAaBgNVHREEEzARggkxMjcuMC4w
LjGHBH8AAAEwDQYJKoZIhvcNAQELBQADgYEAvkxxUhQtfSewmv5UQJflD3livWH+
VSYCyG4Ouq2X6QLBaT2NOPeN/QBYlwX/gGorKYMBKQXik6+Vox/Lg9F4U8HJ8P1l
MQhnI7MSGbcyUgFEaLCoh9p5k4WMzZUnBf96bR+8A9f3heOOzR6BA/yV/U5tBRLU
QSl7M9rLaQiAP8g=
-----END CERTIFICATE-----
