Certificate:
    Data:
        Version: 3 (0x2)
        Serial Number: 1 (0x1)
    Signature Algorithm: sha256WithRSAEncryption
        Issuer: C=US, ST=Florida, L=Palm Beach Gardens, O=ZeroC, Inc., OU=Ice, CN=ZeroC Test CA/emailAddress=info@zeroc.com
        Validity
            Not Before: Nov 15 16:01:05 2012 GMT
            Not After : Nov 14 16:01:05 2017 GMT
        Subject: C=US, ST=Florida, O=ZeroC, Inc., OU=Ice/emailAddress=info@zeroc.com, CN=127.0.0.1
        Subject Public Key Info:
            Public Key Algorithm: dsaEncryption
                pub: 
                    0d:39:68:e4:cb:1f:7b:71:98:5d:e5:68:74:69:06:
                    3d:f9:6f:c1:92:be:2d:05:60:f7:fb:fe:fa:c0:aa:
                    75:de:35:47:2d:71:24:ae:f9:09:9d:b1:bd:3b:8e:
                    16:b1:70:60:45:db:3a:23:76:12:e3:00:41:52:e5:
                    fa:f4:28:01:ea:f4:b2:76:90:ed:32:5d:13:78:79:
                    c4:bd:da:ce:4b:ac:23:b7:a8:e0:6d:18:e4:e1:10:
                    79:8d:f2:de:bd:d1:0d:74:a0:72:1f:a5:e5:11:e9:
                    46:b7:16:75:72:b6:e9:83:89:97:f0:9f:46:44:68:
                    8f:07:86:89:cf:9a:eb:92
                P:   
                    00:ad:db:c9:9a:66:11:a8:d1:d5:14:1f:36:7c:65:
                    ea:d1:6e:29:28:ac:b7:f8:54:d1:5b:c4:d2:96:da:
                    8a:3c:d7:78:e9:2f:6f:84:f3:14:52:20:1a:c8:92:
                    3a:13:c1:6d:48:e2:a6:58:53:22:f4:f8:e4:56:f7:
                    52:96:69:16:26:36:5d:87:91:8a:8d:f4:6d:ee:df:
                    b7:81:d1:e1:2b:f8:50:cf:92:20:b7:bd:52:75:c9:
                    ad:4e:a2:11:75:b4:dc:92:b6:fc:9d:8a:a8:71:da:
                    8f:45:f5:9a:8c:3a:5e:d7:94:9e:b8:6d:22:78:e0:
                    dd:0a:f9:82:c4:bc:dd:4a:73
                Q:   
                    00:9e:76:54:78:68:bf:e3:87:70:6f:2a:75:08:0f:
                    09:cd:2d:cd:47:ed
                G:   
                    48:35:79:9d:f9:06:f0:77:1c:97:47:a1:92:83:51:
                    50:15:e6:f8:08:7d:16:70:6c:e8:b4:95:3b:74:f4:
                    c1:d7:26:9e:b1:dd:2c:f8:ce:2a:1b:db:75:ee:76:
                    0f:c6:86:e6:26:3d:2e:6a:3c:cc:d4:4d:49:29:b5:
                    e0:36:b8:f2:86:46:49:6b:ec:9f:29:cb:bf:82:f2:
                    87:12:98:1b:d9:de:a6:46:cb:6e:cd:46:8c:a2:74:
                    1b:ae:28:74:10:e4:d1:96:74:99:bb:9a:ef:3f:73:
                    9c:e9:b8:be:90:93:ad:db:0d:89:7d:d9:d8:36:1c:
                    6a:c7:fa:31:f7:de:61:6d
        X509v3 extensions:
            X509v3 Basic Constraints: 
                CA:FALSE
            X509v3 Subject Key Identifier: 
                68:10:FE:0F:43:9D:1C:B9:F3:AF:58:B6:E0:C2:2B:57:AA:8F:9E:8C
            X509v3 Authority Key Identifier: 
                keyid:26:D0:8A:9D:DD:7F:72:86:37:5F:35:96:10:FC:85:A0:B0:9E:F3:F2
                DirName:/C=US/ST=Florida/L=Palm Beach Gardens/O=ZeroC, Inc./OU=Ice/CN=ZeroC Test CA/emailAddress=info@zeroc.com
                serial:B7:E8:19:68:75:D3:C8:0D

            X509v3 Subject Alternative Name: 
                DNS:127.0.0.1, IP Address:127.0.0.1
    Signature Algorithm: sha256WithRSAEncryption
         42:2a:36:31:e7:17:6f:dc:f4:ff:d1:82:31:34:bd:ec:11:09:
         64:94:5a:ce:4c:75:3e:73:d9:b0:a9:ee:ba:67:f7:e9:a1:4b:
         0e:31:7f:d3:9b:17:cd:4f:d7:6b:51:97:1d:d5:92:e5:15:8d:
         94:61:84:2b:49:8e:3d:e7:4f:0d:dd:84:48:64:33:97:3b:b1:
         dd:be:d2:c0:4d:b5:f1:42:7b:5d:71:04:97:17:01:0f:9e:e9:
         f3:88:2d:3c:fe:9f:12:13:39:cc:ad:9a:f6:85:20:6a:3e:b0:
         8b:db:27:cc:f3:68:36:13:0d:02:cb:64:27:89:5d:ac:40:17:
         77:50
-----BEGIN CERTIFICATE-----
MIIEtzCCBCCgAwIBAgIBATANBgkqhkiG9w0BAQsFADCBlzELMAkGA1UEBhMCVVMx
EDAOBgNVBAgTB0Zsb3JpZGExGzAZBgNVBAcTElBhbG0gQmVhY2ggR2FyZGVuczEU
MBIGA1UEChMLWmVyb0MsIEluYy4xDDAKBgNVBAsTA0ljZTEWMBQGA1UEAxMNWmVy
b0MgVGVzdCBDQTEdMBsGCSqGSIb3DQEJARYOaW5mb0B6ZXJvYy5jb20wHhcNMTIx
MTE1MTYwMTA1WhcNMTcxMTE0MTYwMTA1WjB2MQswCQYDVQQGEwJVUzEQMA4GA1UE
CBMHRmxvcmlkYTEUMBIGA1UEChMLWmVyb0MsIEluYy4xDDAKBgNVBAsTA0ljZTEd
MBsGCSqGSIb3DQEJARYOaW5mb0B6ZXJvYy5jb20xEjAQBgNVBAMTCTEyNy4wLjAu
MTCCAbYwggErBgcqhkjOOAQBMIIBHgKBgQCt28maZhGo0dUUHzZ8ZerRbikorLf4
VNFbxNKW2oo813jpL2+E8xRSIBrIkjoTwW1I4qZYUyL0+ORW91KWaRYmNl2HkYqN
9G3u37eB0eEr+FDPkiC3vVJ1ya1OohF1tNyStvydiqhx2o9F9ZqMOl7XlJ64bSJ4
4N0K+YLEvN1KcwIVAJ52VHhov+OHcG8qdQgPCc0tzUftAoGASDV5nfkG8Hccl0eh
koNRUBXm+Ah9FnBs6LSVO3T0wdcmnrHdLPjOKhvbde52D8aG5iY9Lmo8zNRNSSm1
4Da48oZGSWvsnynLv4LyhxKYG9nepkbLbs1GjKJ0G64odBDk0ZZ0mbua7z9znOm4
vpCTrdsNiX3Z2DYcasf6MffeYW0DgYQAAoGADTlo5Msfe3GYXeVodGkGPflvwZK+
LQVg9/v++sCqdd41Ry1xJK75CZ2xvTuOFrFwYEXbOiN2EuMAQVLl+vQoAer0snaQ
7TJdE3h5xL3azkusI7eo4G0Y5OEQeY3y3r3RDXSgch+l5RHpRrcWdXK26YOJl/Cf
RkRojweGic+a65KjggEZMIIBFTAJBgNVHRMEAjAAMB0GA1UdDgQWBBRoEP4PQ50c
ufOvWLbgwitXqo+ejDCBzAYDVR0jBIHEMIHBgBQm0Iqd3X9yhjdfNZYQ/IWgsJ7z
8qGBnaSBmjCBlzELMAkGA1UEBhMCVVMxEDAOBgNVBAgTB0Zsb3JpZGExGzAZBgNV
BAcTElBhbG0gQmVhY2ggR2FyZGVuczEUMBIGA1UEChMLWmVyb0MsIEluYy4xDDAK
BgNVBAsTA0ljZTEWMBQGA1UEAxMNWmVyb0MgVGVzdCBDQTEdMBsGCSqGSIb3DQEJ
ARYOaW5mb0B6ZXJvYy5jb22CCQC36BloddPIDTAaBgNVHREEEzARggkxMjcuMC4w
LjGHBH8AAAEwDQYJKoZIhvcNAQELBQADgYEAQio2MecXb9z0/9GCMTS97BEJZJRa
zkx1PnPZsKnuumf36aFLDjF/05sXzU/Xa1GXHdWS5RWNlGGEK0mOPedPDd2ESGQz
lzux3b7SwE218UJ7XXEElxcBD57p84gtPP6fEhM5zK2a9oUgaj6wi9snzPNoNhMN
AstkJ4ldrEAXd1A=
-----END CERTIFICATE-----
