Certificate:
    Data:
        Version: 3 (0x2)
        Serial Number: 1 (0x1)
        Signature Algorithm: md5WithRSAEncryption
        Issuer: C=US, ST=Florida, L=Palm Beach Gardens, O=ZeroC, Inc., OU=Ice, CN=ZeroC Test CA/emailAddress=info@zeroc.com
        Validity
            Not Before: Mar  8 00:14:59 2008 GMT
            Not After : Mar  7 00:14:59 2013 GMT
        Subject: C=US, ST=Florida, O=ZeroC, Inc., OU=Ice/emailAddress=info@zeroc.com, CN=Server
        Subject Public Key Info:
            Public Key Algorithm: dsaEncryption
            DSA Public Key:
                pub: 
                    00:be:72:12:9f:12:5d:47:b3:9e:c0:77:8e:8c:72:
                    5f:57:3a:35:a1:e4:cd:eb:98:11:31:fa:17:5b:a6:
                    29:63:e4:2a:43:b2:dc:dc:e8:f8:84:9d:1c:9c:e5:
                    85:2c:10:3f:34:7b:e4:03:72:55:52:14:36:f2:5c:
                    45:a1:98:8c:86:48:1d:c8:82:5c:85:4c:a4:2c:5f:
                    32:54:b9:e4:01:8a:a3:a1:67:14:95:9d:a1:44:32:
                    28:ab:f2:76:55:4b:2e:16:76:b8:02:66:d0:0f:f0:
                    9f:18:b2:14:9b:6c:bb:4a:c0:dd:eb:90:42:e8:94:
                    94:f1:ef:7b:a8:4f:bc:b0:95
                P:   
                    00:d8:c4:67:c0:78:b5:74:1e:28:c4:fb:d5:e6:6f:
                    6c:19:8c:24:e9:fb:ac:82:fb:17:4a:3c:54:d9:4f:
                    6a:bb:c2:ca:b0:6d:b3:2e:cd:0c:b9:02:f0:09:12:
                    3a:be:19:66:b3:de:59:a5:d0:1c:13:d7:04:13:3d:
                    a2:09:fc:f2:1f:67:eb:b2:7a:04:05:90:d9:5f:21:
                    55:c5:7c:7b:96:ee:4d:e2:0d:51:cc:3d:b6:bc:38:
                    c7:89:d9:fb:0a:14:cb:e4:62:54:a6:b0:ce:f2:a5:
                    25:32:af:83:c7:f3:30:15:d3:56:d2:09:44:fc:49:
                    fc:e3:38:43:1b:de:74:47:39
                Q:   
                    00:87:fc:d1:43:d2:9f:a0:00:1e:55:8e:8b:fc:dc:
                    51:cd:21:65:8a:1d
                G:   
                    04:f1:d1:35:4e:7c:df:e3:74:1e:58:d0:09:e9:da:
                    1a:8b:63:a6:a1:0b:97:d9:e4:26:cd:13:6f:5b:18:
                    ec:12:f6:b1:74:70:e1:04:3a:80:b4:b2:02:68:b4:
                    8d:7b:7f:7e:15:ec:e3:91:66:5b:ab:97:a5:55:b1:
                    db:92:fd:ec:28:57:bd:90:1b:0b:e1:4a:bf:fd:74:
                    f6:a4:4d:ab:52:6d:f9:36:17:da:92:ee:2a:91:b0:
                    6e:9c:09:3b:2f:24:83:b8:ba:38:2d:49:94:80:49:
                    57:eb:e2:17:0b:ed:bb:67:c6:f7:ea:d5:f1:d9:fb:
                    1e:49:87:63:d0:63:e1:b0
        X509v3 extensions:
            X509v3 Basic Constraints: 
                CA:FALSE
            X509v3 Subject Key Identifier: 
                96:6E:55:0D:A3:8F:0F:83:05:7D:81:FC:C2:D5:61:ED:B9:93:C5:43
            X509v3 Authority Key Identifier: 
                keyid:98:47:F1:08:3C:55:3F:B6:A7:BC:62:C6:02:12:85:8F:BD:96:19:BA
                DirName:/C=US/ST=Florida/L=Palm Beach Gardens/O=ZeroC, Inc./OU=Ice/CN=ZeroC Test CA/emailAddress=info@zeroc.com
                serial:ED:07:45:CD:BD:7D:29:F0

            X509v3 Subject Alternative Name: 
                DNS:server, IP Address:127.0.0.1
    Signature Algorithm: md5WithRSAEncryption
        a1:4c:0f:e2:94:b3:ac:48:df:33:61:e0:bd:d6:ef:80:09:88:
        28:2b:01:d1:1c:34:34:79:f9:90:9c:84:ca:cd:c0:2e:03:5f:
        e7:4c:f9:e0:16:92:c0:98:f8:bc:b7:04:34:cf:a4:4d:92:80:
        69:34:23:f7:1a:cc:83:ff:bf:e7:2b:59:f0:b2:07:66:c7:42:
        b9:b6:78:e3:5a:64:b3:32:10:5b:51:99:60:83:21:af:ba:b2:
        0b:93:8c:91:0c:5f:1d:74:9e:0f:b3:06:f3:62:7a:d7:8e:ba:
        b3:27:b0:32:0f:66:f2:d5:2f:15:ab:e3:e0:e3:f3:db:29:cd:
        53:0b
-----BEGIN CERTIFICATE-----
MIIEsjCCBBugAwIBAgIBATANBgkqhkiG9w0BAQQFADCBlzELMAkGA1UEBhMCVVMx
EDAOBgNVBAgTB0Zsb3JpZGExGzAZBgNVBAcTElBhbG0gQmVhY2ggR2FyZGVuczEU
MBIGA1UEChMLWmVyb0MsIEluYy4xDDAKBgNVBAsTA0ljZTEWMBQGA1UEAxMNWmVy
b0MgVGVzdCBDQTEdMBsGCSqGSIb3DQEJARYOaW5mb0B6ZXJvYy5jb20wHhcNMDgw
MzA4MDAxNDU5WhcNMTMwMzA3MDAxNDU5WjBzMQswCQYDVQQGEwJVUzEQMA4GA1UE
CBMHRmxvcmlkYTEUMBIGA1UEChMLWmVyb0MsIEluYy4xDDAKBgNVBAsTA0ljZTEd
MBsGCSqGSIb3DQEJARYOaW5mb0B6ZXJvYy5jb20xDzANBgNVBAMTBlNlcnZlcjCC
AbcwggErBgcqhkjOOAQBMIIBHgKBgQDYxGfAeLV0HijE+9Xmb2wZjCTp+6yC+xdK
PFTZT2q7wsqwbbMuzQy5AvAJEjq+GWaz3lml0BwT1wQTPaIJ/PIfZ+uyegQFkNlf
IVXFfHuW7k3iDVHMPba8OMeJ2fsKFMvkYlSmsM7ypSUyr4PH8zAV01bSCUT8Sfzj
OEMb3nRHOQIVAIf80UPSn6AAHlWOi/zcUc0hZYodAoGABPHRNU583+N0HljQCena
GotjpqELl9nkJs0Tb1sY7BL2sXRw4QQ6gLSyAmi0jXt/fhXs45FmW6uXpVWx25L9
7ChXvZAbC+FKv/109qRNq1Jt+TYX2pLuKpGwbpwJOy8kg7i6OC1JlIBJV+viFwvt
u2fG9+rV8dn7HkmHY9Bj4bADgYUAAoGBAL5yEp8SXUeznsB3joxyX1c6NaHkzeuY
ETH6F1umKWPkKkOy3Nzo+ISdHJzlhSwQPzR75ANyVVIUNvJcRaGYjIZIHciCXIVM
pCxfMlS55AGKo6FnFJWdoUQyKKvydlVLLhZ2uAJm0A/wnxiyFJtsu0rA3euQQuiU
lPHve6hPvLCVo4IBFjCCARIwCQYDVR0TBAIwADAdBgNVHQ4EFgQUlm5VDaOPD4MF
fYH8wtVh7bmTxUMwgcwGA1UdIwSBxDCBwYAUmEfxCDxVP7anvGLGAhKFj72WGbqh
gZ2kgZowgZcxCzAJBgNVBAYTAlVTMRAwDgYDVQQIEwdGbG9yaWRhMRswGQYDVQQH
ExJQYWxtIEJlYWNoIEdhcmRlbnMxFDASBgNVBAoTC1plcm9DLCBJbmMuMQwwCgYD
VQQLEwNJY2UxFjAUBgNVBAMTDVplcm9DIFRlc3QgQ0ExHTAbBgkqhkiG9w0BCQEW
DmluZm9AemVyb2MuY29tggkA7QdFzb19KfAwFwYDVR0RBBAwDoIGc2VydmVyhwR/
AAABMA0GCSqGSIb3DQEBBAUAA4GBAKFMD+KUs6xI3zNh4L3W74AJiCgrAdEcNDR5
+ZCchMrNwC4DX+dM+eAWksCY+Ly3BDTPpE2SgGk0I/cazIP/v+crWfCyB2bHQrm2
eONaZLMyEFtRmWCDIa+6sguTjJEMXx10ng+zBvNieteOurMnsDIPZvLVLxWr4+Dj
89spzVML
-----END CERTIFICATE-----
