Certificate:
    Data:
        Version: 3 (0x2)
        Serial Number: 1 (0x1)
        Signature Algorithm: md5WithRSAEncryption
        Issuer: C=US, ST=Florida, L=Palm Beach Gardens, O=ZeroC, Inc., OU=Ice, CN=ZeroC Test CA/emailAddress=info@zeroc.com
        Validity
            Not Before: Jul  3 08:17:52 2012 GMT
            Not After : Jul  2 08:17:52 2017 GMT
        Subject: C=US, ST=Florida, O=ZeroC, Inc., OU=Ice/emailAddress=info@zeroc.com, CN=127.0.0.1
        Subject Public Key Info:
            Public Key Algorithm: dsaEncryption
            DSA Public Key:
                pub: 
                    75:72:86:b6:a7:3e:a0:9c:29:05:64:32:30:83:56:
                    3e:f9:20:57:98:9e:a7:c0:68:fd:e9:28:b2:22:27:
                    33:0b:31:4b:12:65:7c:33:40:48:43:45:d2:cf:e8:
                    e5:58:36:f0:23:8b:89:0b:ca:e4:bf:66:d1:3a:f7:
                    4d:8d:1e:68:c6:e5:29:31:d4:59:d2:79:e1:93:95:
                    f4:62:c9:da:cc:32:e3:95:f8:ee:a6:08:f5:56:8f:
                    80:e8:9c:17:41:41:cf:db:8c:f7:47:00:d9:c9:aa:
                    2d:47:f3:54:4b:95:dc:22:de:63:b1:f5:0b:b7:c7:
                    83:8b:c5:b1:94:25:e6:2f
                P:   
                    00:f6:58:f5:b0:ca:9c:77:d1:bd:b1:b0:40:5f:f6:
                    2d:1f:6c:fb:43:40:89:b7:18:ff:8e:5a:93:fe:48:
                    c9:d3:08:61:cf:47:fc:cb:34:36:ba:32:5e:19:93:
                    d6:5a:0e:48:59:ef:da:42:df:c3:b7:e9:19:9f:16:
                    56:18:d6:e8:4b:d6:bb:cc:47:9a:ea:7a:15:53:c0:
                    4d:d0:3a:be:6f:4e:0e:25:d3:c0:01:da:57:44:73:
                    b7:fa:97:fd:dc:d8:b5:42:d8:ad:bf:00:16:e9:3c:
                    5b:56:34:cf:62:65:5c:cf:bb:a0:31:51:93:cd:75:
                    59:d8:0b:d9:84:2e:c9:61:9f
                Q:   
                    00:c6:25:e7:49:54:f3:5c:55:7f:71:65:27:62:bc:
                    8f:9c:61:f5:ce:17
                G:   
                    60:57:b6:bf:4c:c8:fb:36:bf:7e:fd:e9:57:34:7c:
                    55:41:38:00:ed:ff:83:b2:98:e1:ea:0b:80:d3:e5:
                    13:c5:90:f7:5d:58:3c:a8:dd:33:f4:c7:b3:53:79:
                    3e:ac:8f:d8:88:7f:af:49:0c:31:bc:f0:fa:3c:69:
                    49:e8:3d:a9:7a:d3:c6:85:84:3c:97:5b:a3:df:7c:
                    5f:84:a3:d1:2b:e1:95:91:fe:17:15:c1:40:dd:21:
                    2c:54:f5:68:a5:2c:7e:f6:4e:36:08:04:19:f4:3b:
                    6f:7a:3a:22:4e:e5:2c:6b:6e:a2:6e:bf:1a:25:7b:
                    f5:c9:00:fa:e0:4c:69:1e
        X509v3 extensions:
            X509v3 Basic Constraints: 
                CA:FALSE
            X509v3 Subject Key Identifier: 
                58:DF:E8:C0:DD:E3:DF:41:45:12:ED:10:F0:16:19:95:A4:F1:FD:BA
            X509v3 Authority Key Identifier: 
                keyid:8A:AE:B4:AA:C5:54:D5:CE:D0:6A:0C:FF:3D:83:8C:60:B4:AD:70:DB
                DirName:/C=US/ST=Florida/L=Palm Beach Gardens/O=ZeroC, Inc./OU=Ice/CN=ZeroC Test CA/emailAddress=info@zeroc.com
                serial:DB:C1:07:84:72:86:C9:56

            X509v3 Subject Alternative Name: 
                DNS:127.0.0.1, IP Address:127.0.0.1
    Signature Algorithm: md5WithRSAEncryption
        3b:c5:1b:9d:c7:17:7a:21:ca:34:3f:d8:3c:ad:43:48:21:1b:
        a3:0c:86:23:dc:d9:17:b4:11:63:af:bd:3c:09:8f:62:ed:f2:
        82:80:0f:d4:47:6e:5f:e6:ee:d6:ed:6f:d9:c4:f4:f9:83:a2:
        36:4f:1f:b8:f1:ef:d5:0e:10:b7:da:fc:4c:2c:76:ad:68:0c:
        bd:f5:90:93:45:61:f8:66:36:dd:d5:42:37:93:bb:8a:28:d0:
        bd:40:88:b5:00:f7:0f:96:40:ec:40:44:ac:3f:e8:17:ce:8a:
        17:e7:48:0d:94:72:ab:84:2e:25:ae:7c:f9:27:a4:b2:02:b5:
        c7:08
-----BEGIN CERTIFICATE-----
MIIEtzCCBCCgAwIBAgIBATANBgkqhkiG9w0BAQQFADCBlzELMAkGA1UEBhMCVVMx
EDAOBgNVBAgTB0Zsb3JpZGExGzAZBgNVBAcTElBhbG0gQmVhY2ggR2FyZGVuczEU
MBIGA1UEChMLWmVyb0MsIEluYy4xDDAKBgNVBAsTA0ljZTEWMBQGA1UEAxMNWmVy
b0MgVGVzdCBDQTEdMBsGCSqGSIb3DQEJARYOaW5mb0B6ZXJvYy5jb20wHhcNMTIw
NzAzMDgxNzUyWhcNMTcwNzAyMDgxNzUyWjB2MQswCQYDVQQGEwJVUzEQMA4GA1UE
CBMHRmxvcmlkYTEUMBIGA1UEChMLWmVyb0MsIEluYy4xDDAKBgNVBAsTA0ljZTEd
MBsGCSqGSIb3DQEJARYOaW5mb0B6ZXJvYy5jb20xEjAQBgNVBAMTCTEyNy4wLjAu
MTCCAbYwggErBgcqhkjOOAQBMIIBHgKBgQD2WPWwypx30b2xsEBf9i0fbPtDQIm3
GP+OWpP+SMnTCGHPR/zLNDa6Ml4Zk9ZaDkhZ79pC38O36RmfFlYY1uhL1rvMR5rq
ehVTwE3QOr5vTg4l08AB2ldEc7f6l/3c2LVC2K2/ABbpPFtWNM9iZVzPu6AxUZPN
dVnYC9mELslhnwIVAMYl50lU81xVf3FlJ2K8j5xh9c4XAoGAYFe2v0zI+za/fv3p
VzR8VUE4AO3/g7KY4eoLgNPlE8WQ911YPKjdM/THs1N5PqyP2Ih/r0kMMbzw+jxp
Seg9qXrTxoWEPJdbo998X4Sj0SvhlZH+FxXBQN0hLFT1aKUsfvZONggEGfQ7b3o6
Ik7lLGtuom6/GiV79ckA+uBMaR4DgYQAAoGAdXKGtqc+oJwpBWQyMINWPvkgV5ie
p8Bo/ekosiInMwsxSxJlfDNASENF0s/o5Vg28COLiQvK5L9m0Tr3TY0eaMblKTHU
WdJ54ZOV9GLJ2swy45X47qYI9VaPgOicF0FBz9uM90cA2cmqLUfzVEuV3CLeY7H1
C7fHg4vFsZQl5i+jggEZMIIBFTAJBgNVHRMEAjAAMB0GA1UdDgQWBBRY3+jA3ePf
QUUS7RDwFhmVpPH9ujCBzAYDVR0jBIHEMIHBgBSKrrSqxVTVztBqDP89g4xgtK1w
26GBnaSBmjCBlzELMAkGA1UEBhMCVVMxEDAOBgNVBAgTB0Zsb3JpZGExGzAZBgNV
BAcTElBhbG0gQmVhY2ggR2FyZGVuczEUMBIGA1UEChMLWmVyb0MsIEluYy4xDDAK
BgNVBAsTA0ljZTEWMBQGA1UEAxMNWmVyb0MgVGVzdCBDQTEdMBsGCSqGSIb3DQEJ
ARYOaW5mb0B6ZXJvYy5jb22CCQDbwQeEcobJVjAaBgNVHREEEzARggkxMjcuMC4w
LjGHBH8AAAEwDQYJKoZIhvcNAQEEBQADgYEAO8UbnccXeiHKND/YPK1DSCEbowyG
I9zZF7QRY6+9PAmPYu3ygoAP1EduX+bu1u1v2cT0+YOiNk8fuPHv1Q4Qt9r8TCx2
rWgMvfWQk0Vh+GY23dVCN5O7iijQvUCItQD3D5ZA7EBErD/oF86KF+dIDZRyq4Qu
Ja58+SeksgK1xwg=
-----END CERTIFICATE-----
