Certificate:
    Data:
        Version: 3 (0x2)
        Serial Number: 1 (0x1)
        Signature Algorithm: md5WithRSAEncryption
        Issuer: C=US, ST=Florida, L=Palm Beach Gardens, O=ZeroC, Inc., OU=Ice, CN=ZeroC Test CA/emailAddress=info@zeroc.com
        Validity
            Not Before: Mar 27 17:11:27 2006 GMT
            Not After : Mar 26 17:11:27 2011 GMT
        Subject: C=US, ST=Florida, O=ZeroC, Inc., OU=Ice/emailAddress=info@zeroc.com, CN=Server
        Subject Public Key Info:
            Public Key Algorithm: dsaEncryption
            DSA Public Key:
                pub: 
                    3c:c1:01:a1:8f:85:58:4f:79:15:3a:8b:96:89:c7:
                    f5:8e:fe:5f:28:55:cc:27:d0:39:4a:dd:ce:dc:0d:
                    54:22:ff:c8:aa:30:ad:2a:1b:42:b8:14:99:43:40:
                    e8:49:f6:21:0b:41:04:60:2d:12:1e:85:23:18:27:
                    65:b5:b8:54:72:97:f4:2c:be:09:28:5d:cb:32:a4:
                    21:e3:b7:e7:5d:b6:4f:48:ee:98:9b:88:a4:d3:da:
                    09:2c:c5:c7:11:8d:9c:e8:72:5c:7e:87:a8:8a:dc:
                    75:b4:da:e8:50:0d:a7:02:be:cb:75:23:d4:84:c1:
                    a9:5f:c2:fb:2b:5c:75:8e
                P:   
                    00:85:c7:eb:9b:7b:10:b5:ea:8a:8b:81:60:ea:e0:
                    fd:59:12:04:44:63:77:87:c8:95:97:75:84:e3:be:
                    fa:06:4f:be:62:3c:cd:a1:d1:8d:fb:fb:a9:51:7c:
                    a1:ec:76:3b:95:e6:f6:1f:55:77:c9:30:2f:80:7d:
                    e5:ea:e0:be:a7:20:c4:3a:40:ec:fb:b4:55:c3:0d:
                    9c:a9:8e:a3:9d:84:c1:74:2b:60:97:8b:ae:56:f5:
                    8e:d6:78:01:e7:43:a6:b7:76:cd:47:71:c5:37:cf:
                    55:c0:85:c5:bf:76:5e:ce:aa:52:59:63:07:09:1b:
                    d0:c0:b2:6a:e7:64:09:15:47
                Q:   
                    00:dc:01:54:6b:03:8b:65:03:36:30:6c:56:94:cd:
                    24:cf:e6:e6:fc:a1
                G:   
                    05:33:7f:4c:31:a8:a6:84:71:af:30:41:1e:52:8f:
                    a5:9f:81:df:07:c4:67:a1:9a:10:84:29:89:bd:37:
                    c2:6e:7b:fc:14:20:43:fd:2b:f7:0e:40:56:a5:b0:
                    d5:0b:32:5d:a1:e2:70:a6:0e:c8:f3:49:47:c0:1d:
                    46:fa:3b:b2:ee:10:f8:1c:e5:2a:99:f7:d2:df:8a:
                    dc:81:fc:ea:31:ca:86:f6:9d:61:a6:34:84:e9:a0:
                    fd:7a:ae:b1:8d:21:84:60:97:c7:4b:7f:03:b1:a4:
                    05:54:d9:7a:1e:8d:c6:6b:8d:3a:bb:e4:04:d6:68:
                    26:c5:ed:b3:f0:ea:7c:a4
        X509v3 extensions:
            X509v3 Basic Constraints: 
            CA:FALSE
            X509v3 Subject Key Identifier: 
            B2:7C:17:D5:44:73:73:A4:AD:CE:2C:0C:57:CB:40:56:9A:7D:57:E8
            X509v3 Authority Key Identifier: 
            keyid:9F:A2:17:D5:F0:19:FA:38:09:39:AA:22:26:BF:7A:B5:42:7B:66:EE
            DirName:/C=US/ST=Florida/L=Palm Beach Gardens/O=ZeroC, Inc./OU=Ice/CN=ZeroC Test CA/emailAddress=info@zeroc.com
            serial:00

            X509v3 Subject Alternative Name: 
            DNS:server, IP Address:127.0.0.1
    Signature Algorithm: md5WithRSAEncryption
        14:ae:4b:08:35:bb:a3:89:8a:36:51:e0:c1:4e:77:47:04:1e:
        f8:26:7b:71:66:1a:99:75:34:fa:ec:f1:93:9a:f0:cd:f7:ce:
        0e:b4:a9:db:0d:c6:dc:79:38:9e:46:66:31:f0:36:50:4e:84:
        cf:b0:af:c0:78:37:70:9b:1c:bb:52:ed:89:e1:30:97:49:58:
        c6:be:ac:f1:81:bb:4d:1b:d8:3a:e1:80:ad:6b:f3:fb:34:24:
        74:3d:3b:91:1b:53:0f:2d:be:07:ce:2a:0e:83:20:2d:66:d5:
        6b:08:b8:15:cc:94:3b:d9:4a:e8:6c:bc:f2:b7:63:24:6e:bf:
        59:8e:4a:cc:bd:fd:49:20:4a:5c:65:ea:97:37:7b:6b:1e:f1:
        97:53:1b:18:82:b2:c8:d5:98:f6:66:ba:7b:eb:b0:19:51:36:
        25:71:04:70:4b:6e:ae:a4:c3:2e:2e:55:25:fe:df:2b:f5:de:
        f9:6d:89:e1:c7:72:a4:db:66:98:24:3d:dc:b4:1f:e7:b2:7e:
        22:28:28:5e:58:ea:5b:c3:3a:9e:01:dc:95:a1:fe:1d:f5:b7:
        c1:7b:ed:6e:24:80:4d:e2:ca:26:b9:f8:4c:12:74:f7:82:a0:
        d5:af:7d:d9:8a:54:cf:e1:38:63:8f:b6:b4:67:a5:c9:b8:62:
        d0:da:8e:d1
-----BEGIN CERTIFICATE-----
MIIFKjCCBBKgAwIBAgIBATANBgkqhkiG9w0BAQQFADCBlzELMAkGA1UEBhMCVVMx
EDAOBgNVBAgTB0Zsb3JpZGExGzAZBgNVBAcTElBhbG0gQmVhY2ggR2FyZGVuczEU
MBIGA1UEChMLWmVyb0MsIEluYy4xDDAKBgNVBAsTA0ljZTEWMBQGA1UEAxMNWmVy
b0MgVGVzdCBDQTEdMBsGCSqGSIb3DQEJARYOaW5mb0B6ZXJvYy5jb20wHhcNMDYw
MzI3MTcxMTI3WhcNMTEwMzI2MTcxMTI3WjBzMQswCQYDVQQGEwJVUzEQMA4GA1UE
CBMHRmxvcmlkYTEUMBIGA1UEChMLWmVyb0MsIEluYy4xDDAKBgNVBAsTA0ljZTEd
MBsGCSqGSIb3DQEJARYOaW5mb0B6ZXJvYy5jb20xDzANBgNVBAMTBlNlcnZlcjCC
AbYwggErBgcqhkjOOAQBMIIBHgKBgQCFx+ubexC16oqLgWDq4P1ZEgREY3eHyJWX
dYTjvvoGT75iPM2h0Y37+6lRfKHsdjuV5vYfVXfJMC+AfeXq4L6nIMQ6QOz7tFXD
DZypjqOdhMF0K2CXi65W9Y7WeAHnQ6a3ds1HccU3z1XAhcW/dl7OqlJZYwcJG9DA
smrnZAkVRwIVANwBVGsDi2UDNjBsVpTNJM/m5vyhAoGABTN/TDGopoRxrzBBHlKP
pZ+B3wfEZ6GaEIQpib03wm57/BQgQ/0r9w5AVqWw1QsyXaHicKYOyPNJR8AdRvo7
su4Q+BzlKpn30t+K3IH86jHKhvadYaY0hOmg/XqusY0hhGCXx0t/A7GkBVTZeh6N
xmuNOrvkBNZoJsXts/DqfKQDgYQAAoGAPMEBoY+FWE95FTqLlonH9Y7+XyhVzCfQ
OUrdztwNVCL/yKowrSobQrgUmUNA6En2IQtBBGAtEh6FIxgnZbW4VHKX9Cy+CShd
yzKkIeO35122T0jumJuIpNPaCSzFxxGNnOhyXH6HqIrcdbTa6FANpwK+y3Uj1ITB
qV/C+ytcdY6jggEOMIIBCjAJBgNVHRMEAjAAMB0GA1UdDgQWBBSyfBfVRHNzpK3O
LAxXy0BWmn1X6DCBxAYDVR0jBIG8MIG5gBSfohfV8Bn6OAk5qiImv3q1Qntm7qGB
naSBmjCBlzELMAkGA1UEBhMCVVMxEDAOBgNVBAgTB0Zsb3JpZGExGzAZBgNVBAcT
ElBhbG0gQmVhY2ggR2FyZGVuczEUMBIGA1UEChMLWmVyb0MsIEluYy4xDDAKBgNV
BAsTA0ljZTEWMBQGA1UEAxMNWmVyb0MgVGVzdCBDQTEdMBsGCSqGSIb3DQEJARYO
aW5mb0B6ZXJvYy5jb22CAQAwFwYDVR0RBBAwDoIGc2VydmVyhwR/AAABMA0GCSqG
SIb3DQEBBAUAA4IBAQAUrksINbujiYo2UeDBTndHBB74JntxZhqZdTT67PGTmvDN
984OtKnbDcbceTieRmYx8DZQToTPsK/AeDdwmxy7Uu2J4TCXSVjGvqzxgbtNG9g6
4YCta/P7NCR0PTuRG1MPLb4HzioOgyAtZtVrCLgVzJQ72UrobLzyt2Mkbr9ZjkrM
vf1JIEpcZeqXN3trHvGXUxsYgrLI1Zj2Zrp767AZUTYlcQRwS26upMMuLlUl/t8r
9d75bYnhx3Kk22aYJD3ctB/nsn4iKCheWOpbwzqeAdyVof4d9bfBe+1uJIBN4som
ufhMEnT3gqDVr33ZilTP4Thjj7a0Z6XJuGLQ2o7R
-----END CERTIFICATE-----
