Certificate:
    Data:
        Version: 3 (0x2)
        Serial Number: 1 (0x1)
        Signature Algorithm: md5WithRSAEncryption
        Issuer: C=US, ST=Florida, L=Palm Beach Gardens, O=ZeroC, Inc., OU=Ice, CN=ZeroC Test CA/emailAddress=info@zeroc.com
        Validity
            Not Before: Jul  3 08:17:51 2012 GMT
            Not After : Jul  2 08:17:51 2017 GMT
        Subject: C=US, ST=Florida, O=ZeroC, Inc., OU=Ice/emailAddress=info@zeroc.com, CN=127.0.0.1
        Subject Public Key Info:
            Public Key Algorithm: rsaEncryption
            RSA Public Key: (1024 bit)
                Modulus (1024 bit):
                    00:ab:e4:58:b4:26:ca:c5:e7:7f:84:c9:ad:c7:7b:
                    e0:a3:a8:57:4c:8b:67:ae:82:91:65:60:64:4a:20:
                    37:0a:68:18:b4:9e:d0:28:80:73:7e:5e:14:a4:16:
                    c6:a7:b1:14:84:fa:23:bd:7d:49:d8:7a:d2:a4:b8:
                    44:90:0c:61:43:11:c8:c5:21:81:67:a4:b3:df:27:
                    bb:9c:3f:8b:73:ef:0e:1f:b1:e8:6f:b7:2e:ba:4f:
                    41:5e:a0:61:b2:dc:73:a2:50:64:29:fc:c7:11:d2:
                    59:5f:57:a6:57:cf:f8:ae:93:9d:bf:37:e1:3d:c5:
                    c9:81:ce:5a:27:68:dd:8b:f9
                Exponent: 65537 (0x10001)
        X509v3 extensions:
            X509v3 Basic Constraints: 
                CA:FALSE
            X509v3 Subject Key Identifier: 
                CD:66:00:D0:4D:B8:E9:57:27:5B:0D:4A:05:1E:71:D0:7F:E3:6F:05
            X509v3 Authority Key Identifier: 
                keyid:8A:AE:B4:AA:C5:54:D5:CE:D0:6A:0C:FF:3D:83:8C:60:B4:AD:70:DB
                DirName:/C=US/ST=Florida/L=Palm Beach Gardens/O=ZeroC, Inc./OU=Ice/CN=ZeroC Test CA/emailAddress=info@zeroc.com
                serial:DB:C1:07:84:72:86:C9:56

            X509v3 Subject Alternative Name: 
                DNS:127.0.0.1, IP Address:127.0.0.1
    Signature Algorithm: md5WithRSAEncryption
        8d:aa:42:44:c8:73:f5:45:e5:0a:e8:b4:97:59:43:5a:8b:2f:
        94:ea:b4:9e:6e:cd:c2:3c:5e:63:ec:5d:b1:1f:62:24:f8:66:
        77:e5:c1:34:05:dd:f2:8d:25:bc:b9:d8:ec:9c:00:4c:bc:49:
        e0:4e:f6:3f:d1:e9:60:56:27:32:e2:49:c5:b4:6b:98:62:67:
        b5:78:cc:33:0a:15:79:6b:a0:20:ec:70:f7:f2:b3:59:9c:47:
        23:12:5f:11:e7:12:a7:4e:a5:27:71:82:30:fb:65:1a:e8:30:
        ef:5a:ce:f1:0a:99:81:4e:ae:82:2e:84:0b:3d:d7:c2:18:55:
        32:35
-----BEGIN CERTIFICATE-----
MIIDnzCCAwigAwIBAgIBATANBgkqhkiG9w0BAQQFADCBlzELMAkGA1UEBhMCVVMx
EDAOBgNVBAgTB0Zsb3JpZGExGzAZBgNVBAcTElBhbG0gQmVhY2ggR2FyZGVuczEU
MBIGA1UEChMLWmVyb0MsIEluYy4xDDAKBgNVBAsTA0ljZTEWMBQGA1UEAxMNWmVy
b0MgVGVzdCBDQTEdMBsGCSqGSIb3DQEJARYOaW5mb0B6ZXJvYy5jb20wHhcNMTIw
NzAzMDgxNzUxWhcNMTcwNzAyMDgxNzUxWjB2MQswCQYDVQQGEwJVUzEQMA4GA1UE
CBMHRmxvcmlkYTEUMBIGA1UEChMLWmVyb0MsIEluYy4xDDAKBgNVBAsTA0ljZTEd
MBsGCSqGSIb3DQEJARYOaW5mb0B6ZXJvYy5jb20xEjAQBgNVBAMTCTEyNy4wLjAu
MTCBnzANBgkqhkiG9w0BAQEFAAOBjQAwgYkCgYEAq+RYtCbKxed/hMmtx3vgo6hX
TItnroKRZWBkSiA3CmgYtJ7QKIBzfl4UpBbGp7EUhPojvX1J2HrSpLhEkAxhQxHI
xSGBZ6Sz3ye7nD+Lc+8OH7Hob7cuuk9BXqBhstxzolBkKfzHEdJZX1emV8/4rpOd
vzfhPcXJgc5aJ2jdi/kCAwEAAaOCARkwggEVMAkGA1UdEwQCMAAwHQYDVR0OBBYE
FM1mANBNuOlXJ1sNSgUecdB/428FMIHMBgNVHSMEgcQwgcGAFIqutKrFVNXO0GoM
/z2DjGC0rXDboYGdpIGaMIGXMQswCQYDVQQGEwJVUzEQMA4GA1UECBMHRmxvcmlk
YTEbMBkGA1UEBxMSUGFsbSBCZWFjaCBHYXJkZW5zMRQwEgYDVQQKEwtaZXJvQywg
SW5jLjEMMAoGA1UECxMDSWNlMRYwFAYDVQQDEw1aZXJvQyBUZXN0IENBMR0wGwYJ
KoZIhvcNAQkBFg5pbmZvQHplcm9jLmNvbYIJANvBB4RyhslWMBoGA1UdEQQTMBGC
CTEyNy4wLjAuMYcEfwAAATANBgkqhkiG9w0BAQQFAAOBgQCNqkJEyHP1ReUK6LSX
WUNaiy+U6rSebs3CPF5j7F2xH2Ik+GZ35cE0Bd3yjSW8udjsnABMvEngTvY/0elg
Vicy4knFtGuYYme1eMwzChV5a6Ag7HD38rNZnEcjEl8R5xKnTqUncYIw+2Ua6DDv
Ws7xCpmBTq6CLoQLPdfCGFUyNQ==
-----END CERTIFICATE-----
