Certificate:
    Data:
        Version: 3 (0x2)
        Serial Number: 1 (0x1)
        Signature Algorithm: md5WithRSAEncryption
        Issuer: C=US, ST=Florida, L=Palm Beach Gardens, O=ZeroC, Inc., OU=Ice, CN=ZeroC Test CA/emailAddress=info@zeroc.com
        Validity
            Not Before: Mar  8 00:14:58 2008 GMT
            Not After : Mar  7 00:14:58 2013 GMT
        Subject: C=US, ST=Florida, O=ZeroC, Inc., OU=Ice/emailAddress=info@zeroc.com, CN=Server
        Subject Public Key Info:
            Public Key Algorithm: rsaEncryption
            RSA Public Key: (1024 bit)
                Modulus (1024 bit):
                    00:c1:a9:62:8a:e6:d4:e5:63:08:12:96:9f:a4:43:
                    a9:de:6d:97:62:21:00:43:c3:c4:1d:1f:f4:d2:9f:
                    68:a0:e4:3e:49:45:2d:f8:e2:6e:84:9a:53:76:2d:
                    db:93:56:0a:bf:25:e2:7e:f3:64:f7:b8:59:ca:a5:
                    1b:82:d9:17:36:7b:2f:11:02:38:30:c7:3e:19:c6:
                    86:fa:c9:c6:d5:0c:7c:df:bc:f8:0b:c6:14:3f:a4:
                    f2:00:7e:35:06:4e:38:53:8c:24:47:df:f7:a1:f3:
                    6d:8b:f0:05:11:df:3b:b8:f0:95:55:c3:26:a6:8e:
                    53:56:da:61:a1:bb:45:3c:0f
                Exponent: 65537 (0x10001)
        X509v3 extensions:
            X509v3 Basic Constraints: 
                CA:FALSE
            X509v3 Subject Key Identifier: 
                75:FA:B7:3C:6B:1C:F8:FA:69:4B:75:A0:22:51:B2:AC:11:54:A7:E7
            X509v3 Authority Key Identifier: 
                keyid:98:47:F1:08:3C:55:3F:B6:A7:BC:62:C6:02:12:85:8F:BD:96:19:BA
                DirName:/C=US/ST=Florida/L=Palm Beach Gardens/O=ZeroC, Inc./OU=Ice/CN=ZeroC Test CA/emailAddress=info@zeroc.com
                serial:ED:07:45:CD:BD:7D:29:F0

            X509v3 Subject Alternative Name: 
                DNS:server, IP Address:127.0.0.1
    Signature Algorithm: md5WithRSAEncryption
        8e:3b:c1:d1:9c:b1:2d:71:ea:7f:4d:04:1b:1d:95:4b:e3:27:
        e1:6d:11:2c:f8:85:32:25:b6:d9:9a:62:dd:5b:b9:0d:0d:30:
        46:ce:57:26:e4:70:b0:fc:89:1e:3f:9d:2f:68:56:80:3f:d0:
        0f:a1:16:49:ea:ac:a6:5c:5a:eb:43:78:99:91:2b:3b:88:82:
        5f:47:77:a8:4f:e2:fc:89:f5:0c:2c:93:25:25:39:d4:19:6c:
        9f:4e:fa:0c:af:9a:a7:51:8a:bd:7b:61:8a:37:45:eb:47:9d:
        1d:2a:78:58:d1:20:f2:ce:a9:66:57:96:be:af:58:bd:3f:1d:
        66:b1
-----BEGIN CERTIFICATE-----
MIIDmTCCAwKgAwIBAgIBATANBgkqhkiG9w0BAQQFADCBlzELMAkGA1UEBhMCVVMx
EDAOBgNVBAgTB0Zsb3JpZGExGzAZBgNVBAcTElBhbG0gQmVhY2ggR2FyZGVuczEU
MBIGA1UEChMLWmVyb0MsIEluYy4xDDAKBgNVBAsTA0ljZTEWMBQGA1UEAxMNWmVy
b0MgVGVzdCBDQTEdMBsGCSqGSIb3DQEJARYOaW5mb0B6ZXJvYy5jb20wHhcNMDgw
MzA4MDAxNDU4WhcNMTMwMzA3MDAxNDU4WjBzMQswCQYDVQQGEwJVUzEQMA4GA1UE
CBMHRmxvcmlkYTEUMBIGA1UEChMLWmVyb0MsIEluYy4xDDAKBgNVBAsTA0ljZTEd
MBsGCSqGSIb3DQEJARYOaW5mb0B6ZXJvYy5jb20xDzANBgNVBAMTBlNlcnZlcjCB
nzANBgkqhkiG9w0BAQEFAAOBjQAwgYkCgYEAwaliiubU5WMIEpafpEOp3m2XYiEA
Q8PEHR/00p9ooOQ+SUUt+OJuhJpTdi3bk1YKvyXifvNk97hZyqUbgtkXNnsvEQI4
MMc+GcaG+snG1Qx837z4C8YUP6TyAH41Bk44U4wkR9/3ofNti/AFEd87uPCVVcMm
po5TVtphobtFPA8CAwEAAaOCARYwggESMAkGA1UdEwQCMAAwHQYDVR0OBBYEFHX6
tzxrHPj6aUt1oCJRsqwRVKfnMIHMBgNVHSMEgcQwgcGAFJhH8Qg8VT+2p7xixgIS
hY+9lhm6oYGdpIGaMIGXMQswCQYDVQQGEwJVUzEQMA4GA1UECBMHRmxvcmlkYTEb
MBkGA1UEBxMSUGFsbSBCZWFjaCBHYXJkZW5zMRQwEgYDVQQKEwtaZXJvQywgSW5j
LjEMMAoGA1UECxMDSWNlMRYwFAYDVQQDEw1aZXJvQyBUZXN0IENBMR0wGwYJKoZI
hvcNAQkBFg5pbmZvQHplcm9jLmNvbYIJAO0HRc29fSnwMBcGA1UdEQQQMA6CBnNl
cnZlcocEfwAAATANBgkqhkiG9w0BAQQFAAOBgQCOO8HRnLEtcep/TQQbHZVL4yfh
bREs+IUyJbbZmmLdW7kNDTBGzlcm5HCw/IkeP50vaFaAP9APoRZJ6qymXFrrQ3iZ
kSs7iIJfR3eoT+L8ifUMLJMlJTnUGWyfTvoMr5qnUYq9e2GKN0XrR50dKnhY0SDy
zqlmV5a+r1i9Px1msQ==
-----END CERTIFICATE-----
