Certificate:
    Data:
        Version: 3 (0x2)
        Serial Number: 1 (0x1)
    Signature Algorithm: sha256WithRSAEncryption
        Issuer: C=US, ST=Florida, L=Palm Beach Gardens, O=ZeroC, Inc., OU=Ice, CN=ZeroC Test CA/emailAddress=info@zeroc.com
        Validity
            Not Before: Nov 15 16:01:05 2012 GMT
            Not After : Nov 14 16:01:05 2017 GMT
        Subject: C=US, ST=Florida, O=ZeroC, Inc., OU=Ice/emailAddress=info@zeroc.com, CN=127.0.0.1
        Subject Public Key Info:
            Public Key Algorithm: rsaEncryption
                Public-Key: (1024 bit)
                Modulus:
                    00:ad:d7:d4:2e:d4:f3:c7:4d:68:c2:2a:b8:56:20:
                    84:fb:58:a8:c4:bd:55:fb:2c:f0:0f:68:db:50:4b:
                    d9:71:16:c3:9c:a5:57:bd:32:15:ac:3e:b3:79:c3:
                    1c:09:b5:0c:92:45:aa:19:f6:28:60:59:59:21:a7:
                    65:34:6d:dc:59:0a:16:27:7f:38:72:d7:12:6d:98:
                    09:7a:05:f2:2e:99:7e:05:bc:25:9b:71:55:a5:61:
                    0e:fd:d5:0c:4e:50:9c:e2:ff:cb:6a:0b:30:db:99:
                    0e:fa:4e:4b:18:9b:50:0c:eb:f8:60:b7:c9:f2:ef:
                    ec:0d:14:fd:2e:9f:70:8d:2f
                Exponent: 65537 (0x10001)
        X509v3 extensions:
            X509v3 Basic Constraints: 
                CA:FALSE
            X509v3 Subject Key Identifier: 
                0E:A0:14:93:39:CD:0C:93:88:95:29:D2:81:45:08:73:CE:10:B1:18
            X509v3 Authority Key Identifier: 
                keyid:26:D0:8A:9D:DD:7F:72:86:37:5F:35:96:10:FC:85:A0:B0:9E:F3:F2
                DirName:/C=US/ST=Florida/L=Palm Beach Gardens/O=ZeroC, Inc./OU=Ice/CN=ZeroC Test CA/emailAddress=info@zeroc.com
                serial:B7:E8:19:68:75:D3:C8:0D

            X509v3 Subject Alternative Name: 
                DNS:127.0.0.1, IP Address:127.0.0.1
    Signature Algorithm: sha256WithRSAEncryption
         2f:36:bb:dd:ff:b1:71:c5:30:84:da:7d:d5:9c:e2:69:e5:3a:
         dd:f0:6a:87:f4:e3:cd:35:e5:da:d6:5e:b4:e7:0f:24:a9:a8:
         d8:74:95:05:90:64:59:1e:e8:1e:97:94:6e:e6:f8:51:ce:0b:
         be:c1:ff:32:37:70:df:ab:bc:e2:d5:c8:33:ba:d7:80:76:50:
         b8:d4:ed:02:a8:16:a2:e1:b9:d6:96:68:3c:00:f7:60:9a:d8:
         30:a1:87:9b:f0:b9:e7:48:71:b3:7d:10:2d:dd:f4:5b:1f:c2:
         6b:c6:d2:56:7a:7d:2f:f2:c9:1b:92:ad:1b:f6:98:3a:c0:0e:
         3c:c4
-----BEGIN CERTIFICATE-----
MIIDnzCCAwigAwIBAgIBATANBgkqhkiG9w0BAQsFADCBlzELMAkGA1UEBhMCVVMx
EDAOBgNVBAgTB0Zsb3JpZGExGzAZBgNVBAcTElBhbG0gQmVhY2ggR2FyZGVuczEU
MBIGA1UEChMLWmVyb0MsIEluYy4xDDAKBgNVBAsTA0ljZTEWMBQGA1UEAxMNWmVy
b0MgVGVzdCBDQTEdMBsGCSqGSIb3DQEJARYOaW5mb0B6ZXJvYy5jb20wHhcNMTIx
MTE1MTYwMTA1WhcNMTcxMTE0MTYwMTA1WjB2MQswCQYDVQQGEwJVUzEQMA4GA1UE
CBMHRmxvcmlkYTEUMBIGA1UEChMLWmVyb0MsIEluYy4xDDAKBgNVBAsTA0ljZTEd
MBsGCSqGSIb3DQEJARYOaW5mb0B6ZXJvYy5jb20xEjAQBgNVBAMTCTEyNy4wLjAu
MTCBnzANBgkqhkiG9w0BAQEFAAOBjQAwgYkCgYEArdfULtTzx01owiq4ViCE+1io
xL1V+yzwD2jbUEvZcRbDnKVXvTIVrD6zecMcCbUMkkWqGfYoYFlZIadlNG3cWQoW
J384ctcSbZgJegXyLpl+Bbwlm3FVpWEO/dUMTlCc4v/Lagsw25kO+k5LGJtQDOv4
YLfJ8u/sDRT9Lp9wjS8CAwEAAaOCARkwggEVMAkGA1UdEwQCMAAwHQYDVR0OBBYE
FA6gFJM5zQyTiJUp0oFFCHPOELEYMIHMBgNVHSMEgcQwgcGAFCbQip3df3KGN181
lhD8haCwnvPyoYGdpIGaMIGXMQswCQYDVQQGEwJVUzEQMA4GA1UECBMHRmxvcmlk
YTEbMBkGA1UEBxMSUGFsbSBCZWFjaCBHYXJkZW5zMRQwEgYDVQQKEwtaZXJvQywg
SW5jLjEMMAoGA1UECxMDSWNlMRYwFAYDVQQDEw1aZXJvQyBUZXN0IENBMR0wGwYJ
KoZIhvcNAQkBFg5pbmZvQHplcm9jLmNvbYIJALfoGWh108gNMBoGA1UdEQQTMBGC
CTEyNy4wLjAuMYcEfwAAATANBgkqhkiG9w0BAQsFAAOBgQAvNrvd/7FxxTCE2n3V
nOJp5Trd8GqH9OPNNeXa1l605w8kqajYdJUFkGRZHugel5Ru5vhRzgu+wf8yN3Df
q7zi1cgzuteAdlC41O0CqBai4bnWlmg8APdgmtgwoYeb8LnnSHGzfRAt3fRbH8Jr
xtJWen0v8skbkq0b9pg6wA48xA==
-----END CERTIFICATE-----
