Certificate:
    Data:
        Version: 3 (0x2)
        Serial Number: 1 (0x1)
    Signature Algorithm: sha256WithRSAEncryption
        Issuer: C=US, ST=Florida, L=Palm Beach Gardens, O=ZeroC, Inc., OU=Ice, CN=ZeroC Test CA/emailAddress=info@zeroc.com
        Validity
            Not Before: Sep  4 13:38:29 2013 GMT
            Not After : Sep  3 13:38:29 2018 GMT
        Subject: C=US, ST=Florida, O=ZeroC, Inc., OU=Ice/emailAddress=info@zeroc.com, CN=127.0.0.1
        Subject Public Key Info:
            Public Key Algorithm: rsaEncryption
                Public-Key: (1024 bit)
                Modulus:
                    00:af:3c:b6:f2:95:1a:c7:a0:39:57:71:dc:64:9f:
                    10:15:16:d9:25:33:09:1b:15:54:4e:d4:08:16:f2:
                    68:1d:26:a0:ea:7a:f8:a4:0c:c7:51:fd:42:87:52:
                    0a:62:09:88:87:34:2f:3a:44:dc:86:45:79:04:3b:
                    62:29:24:02:2e:8c:87:70:cb:07:4a:ab:21:66:1e:
                    f4:83:f4:7f:20:5f:f0:4f:a3:27:5c:80:f2:64:50:
                    f8:8f:fa:75:40:81:be:a4:89:df:cc:68:28:ea:37:
                    81:50:50:51:1b:37:96:8d:d2:6f:39:fa:0a:34:99:
                    cc:f8:a7:02:4e:41:d6:c5:37
                Exponent: 65537 (0x10001)
        X509v3 extensions:
            X509v3 Basic Constraints: 
                CA:FALSE
            X509v3 Subject Key Identifier: 
                D1:33:E4:95:73:E6:66:45:2A:EE:C6:61:28:40:57:2F:B1:FF:48:B9
            X509v3 Authority Key Identifier: 
                keyid:9C:00:3A:59:8A:B2:5A:2F:28:78:37:B3:79:89:6C:03:99:4A:A0:24
                DirName:/C=US/ST=Florida/L=Palm Beach Gardens/O=ZeroC, Inc./OU=Ice/CN=ZeroC Test CA/emailAddress=info@zeroc.com
                serial:8B:43:2C:07:D0:27:24:02

            X509v3 Subject Alternative Name: 
                DNS:127.0.0.1, IP Address:127.0.0.1
    Signature Algorithm: sha256WithRSAEncryption
         9f:7c:d3:92:49:de:d8:b0:e1:d1:e6:83:d5:9a:2c:81:28:c2:
         1f:a1:c5:69:d2:a2:12:66:ec:89:27:d4:27:b6:3c:8a:ce:16:
         d6:0b:d9:1d:58:7e:37:71:cd:15:fc:e5:10:e3:4a:a1:20:5f:
         ef:66:78:27:68:d6:11:7f:c8:c9:02:ab:44:31:3d:88:92:af:
         ba:d4:df:db:0a:19:97:a3:e1:b7:bd:ab:a8:c2:2d:c8:9a:72:
         b4:83:ed:08:70:4c:63:1e:57:f9:99:41:89:4e:bd:57:ce:53:
         31:ff:a7:ae:c7:6d:1b:5f:33:98:de:34:6f:07:9b:e8:5c:b7:
         59:ee
-----BEGIN CERTIFICATE-----
MIIDnzCCAwigAwIBAgIBATANBgkqhkiG9w0BAQsFADCBlzELMAkGA1UEBhMCVVMx
EDAOBgNVBAgTB0Zsb3JpZGExGzAZBgNVBAcTElBhbG0gQmVhY2ggR2FyZGVuczEU
MBIGA1UEChMLWmVyb0MsIEluYy4xDDAKBgNVBAsTA0ljZTEWMBQGA1UEAxMNWmVy
b0MgVGVzdCBDQTEdMBsGCSqGSIb3DQEJARYOaW5mb0B6ZXJvYy5jb20wHhcNMTMw
OTA0MTMzODI5WhcNMTgwOTAzMTMzODI5WjB2MQswCQYDVQQGEwJVUzEQMA4GA1UE
CBMHRmxvcmlkYTEUMBIGA1UEChMLWmVyb0MsIEluYy4xDDAKBgNVBAsTA0ljZTEd
MBsGCSqGSIb3DQEJARYOaW5mb0B6ZXJvYy5jb20xEjAQBgNVBAMTCTEyNy4wLjAu
MTCBnzANBgkqhkiG9w0BAQEFAAOBjQAwgYkCgYEArzy28pUax6A5V3HcZJ8QFRbZ
JTMJGxVUTtQIFvJoHSag6nr4pAzHUf1Ch1IKYgmIhzQvOkTchkV5BDtiKSQCLoyH
cMsHSqshZh70g/R/IF/wT6MnXIDyZFD4j/p1QIG+pInfzGgo6jeBUFBRGzeWjdJv
OfoKNJnM+KcCTkHWxTcCAwEAAaOCARkwggEVMAkGA1UdEwQCMAAwHQYDVR0OBBYE
FNEz5JVz5mZFKu7GYShAVy+x/0i5MIHMBgNVHSMEgcQwgcGAFJwAOlmKslovKHg3
s3mJbAOZSqAkoYGdpIGaMIGXMQswCQYDVQQGEwJVUzEQMA4GA1UECBMHRmxvcmlk
YTEbMBkGA1UEBxMSUGFsbSBCZWFjaCBHYXJkZW5zMRQwEgYDVQQKEwtaZXJvQywg
SW5jLjEMMAoGA1UECxMDSWNlMRYwFAYDVQQDEw1aZXJvQyBUZXN0IENBMR0wGwYJ
KoZIhvcNAQkBFg5pbmZvQHplcm9jLmNvbYIJAItDLAfQJyQCMBoGA1UdEQQTMBGC
CTEyNy4wLjAuMYcEfwAAATANBgkqhkiG9w0BAQsFAAOBgQCffNOSSd7YsOHR5oPV
miyBKMIfocVp0qISZuyJJ9QntjyKzhbWC9kdWH43cc0V/OUQ40qhIF/vZngnaNYR
f8jJAqtEMT2Ikq+61N/bChmXo+G3vauowi3ImnK0g+0IcExjHlf5mUGJTr1XzlMx
/6eux20bXzOY3jRvB5voXLdZ7g==
-----END CERTIFICATE-----
