Certificate:
    Data:
        Version: 3 (0x2)
        Serial Number: 1 (0x1)
    Signature Algorithm: sha256WithRSAEncryption
        Issuer: C=US, ST=Florida, L=Palm Beach Gardens, O=ZeroC, Inc., OU=Ice, CN=ZeroC Test CA/emailAddress=info@zeroc.com
        Validity
            Not Before: Mar 19 16:49:02 2014 GMT
            Not After : Mar 18 16:49:02 2019 GMT
        Subject: C=US, ST=Florida, O=ZeroC, Inc., OU=Ice/emailAddress=info@zeroc.com, CN=127.0.0.1
        Subject Public Key Info:
            Public Key Algorithm: rsaEncryption
                Public-Key: (1024 bit)
                Modulus:
                    00:ce:a9:e3:97:5e:f6:8c:f7:ee:e2:13:c8:cb:13:
                    99:0c:6f:7a:85:4c:d1:ce:ea:c2:3e:2b:3a:80:06:
                    45:a4:c3:f7:39:b5:76:99:ba:f2:da:eb:e5:7b:26:
                    d2:98:fa:37:14:29:f0:0a:90:3b:0e:f8:8f:60:48:
                    0d:ba:ba:07:40:e0:be:e9:22:7a:f5:61:38:b0:a2:
                    c3:b4:c6:2e:92:aa:32:b3:1a:03:cc:16:d8:02:6c:
                    fd:c0:0b:9f:9b:c9:ba:37:c9:72:50:9d:2c:b9:e9:
                    96:8c:a8:25:f1:52:08:1a:10:19:52:c4:e1:e9:a2:
                    71:0e:cb:fe:50:03:19:04:07
                Exponent: 65537 (0x10001)
        X509v3 extensions:
            X509v3 Basic Constraints: 
                CA:FALSE
            X509v3 Subject Key Identifier: 
                34:98:E9:E3:E0:5F:58:C8:4F:21:F0:18:83:97:75:DC:6F:7D:9E:97
            X509v3 Authority Key Identifier: 
                keyid:80:8E:3F:71:F4:C8:ED:1F:0A:54:75:CD:D1:F0:58:D7:05:0B:C2:2B
                DirName:/C=US/ST=Florida/L=Palm Beach Gardens/O=ZeroC, Inc./OU=Ice/CN=ZeroC Test CA/emailAddress=info@zeroc.com
                serial:DD:BF:8A:B2:D7:73:61:B3

            X509v3 Subject Alternative Name: 
                DNS:127.0.0.1, IP Address:127.0.0.1
    Signature Algorithm: sha256WithRSAEncryption
         60:30:c0:c5:70:67:ef:1c:a8:cd:1f:43:22:12:34:51:70:a8:
         3f:aa:2a:d3:13:04:2b:c8:44:18:d3:f5:ba:6a:e4:c9:fd:55:
         e0:b0:35:84:58:9d:f3:5b:27:1c:88:cc:3c:2a:c2:0e:13:2f:
         0a:98:7a:05:c8:fc:40:b9:0e:2c:ee:f1:83:71:0d:d0:cb:8e:
         c3:b7:f0:75:9a:5d:24:da:0f:1d:bc:5d:3b:29:ed:1e:c3:ec:
         90:db:78:04:31:78:8e:af:23:2e:31:17:29:14:50:09:7a:15:
         42:4a:01:33:ba:c2:e8:40:c5:c2:6a:cb:74:00:93:6d:db:ef:
         f0:a3
-----BEGIN CERTIFICATE-----
MIIDnzCCAwigAwIBAgIBATANBgkqhkiG9w0BAQsFADCBlzELMAkGA1UEBhMCVVMx
EDAOBgNVBAgTB0Zsb3JpZGExGzAZBgNVBAcTElBhbG0gQmVhY2ggR2FyZGVuczEU
MBIGA1UEChMLWmVyb0MsIEluYy4xDDAKBgNVBAsTA0ljZTEWMBQGA1UEAxMNWmVy
b0MgVGVzdCBDQTEdMBsGCSqGSIb3DQEJARYOaW5mb0B6ZXJvYy5jb20wHhcNMTQw
MzE5MTY0OTAyWhcNMTkwMzE4MTY0OTAyWjB2MQswCQYDVQQGEwJVUzEQMA4GA1UE
CBMHRmxvcmlkYTEUMBIGA1UEChMLWmVyb0MsIEluYy4xDDAKBgNVBAsTA0ljZTEd
MBsGCSqGSIb3DQEJARYOaW5mb0B6ZXJvYy5jb20xEjAQBgNVBAMTCTEyNy4wLjAu
MTCBnzANBgkqhkiG9w0BAQEFAAOBjQAwgYkCgYEAzqnjl172jPfu4hPIyxOZDG96
hUzRzurCPis6gAZFpMP3ObV2mbry2uvleybSmPo3FCnwCpA7DviPYEgNuroHQOC+
6SJ69WE4sKLDtMYukqoysxoDzBbYAmz9wAufm8m6N8lyUJ0suemWjKgl8VIIGhAZ
UsTh6aJxDsv+UAMZBAcCAwEAAaOCARkwggEVMAkGA1UdEwQCMAAwHQYDVR0OBBYE
FDSY6ePgX1jITyHwGIOXddxvfZ6XMIHMBgNVHSMEgcQwgcGAFICOP3H0yO0fClR1
zdHwWNcFC8IroYGdpIGaMIGXMQswCQYDVQQGEwJVUzEQMA4GA1UECBMHRmxvcmlk
YTEbMBkGA1UEBxMSUGFsbSBCZWFjaCBHYXJkZW5zMRQwEgYDVQQKEwtaZXJvQywg
SW5jLjEMMAoGA1UECxMDSWNlMRYwFAYDVQQDEw1aZXJvQyBUZXN0IENBMR0wGwYJ
KoZIhvcNAQkBFg5pbmZvQHplcm9jLmNvbYIJAN2/irLXc2GzMBoGA1UdEQQTMBGC
CTEyNy4wLjAuMYcEfwAAATANBgkqhkiG9w0BAQsFAAOBgQBgMMDFcGfvHKjNH0Mi
EjRRcKg/qirTEwQryEQY0/W6auTJ/VXgsDWEWJ3zWycciMw8KsIOEy8KmHoFyPxA
uQ4s7vGDcQ3Qy47Dt/B1ml0k2g8dvF07Ke0ew+yQ23gEMXiOryMuMRcpFFAJehVC
SgEzusLoQMXCast0AJNt2+/wow==
-----END CERTIFICATE-----
