Certificate:
    Data:
        Version: 3 (0x2)
        Serial Number: 1 (0x1)
        Signature Algorithm: md5WithRSAEncryption
        Issuer: C=US, ST=Florida, L=Palm Beach Gardens, O=ZeroC, Inc., OU=Ice, CN=ZeroC Test CA/emailAddress=info@zeroc.com
        Validity
            Not Before: Mar 27 17:11:26 2006 GMT
            Not After : Mar 26 17:11:26 2011 GMT
        Subject: C=US, ST=Florida, O=ZeroC, Inc., OU=Ice/emailAddress=info@zeroc.com, CN=Server
        Subject Public Key Info:
            Public Key Algorithm: rsaEncryption
            RSA Public Key: (1024 bit)
                Modulus (1024 bit):
                    00:d8:64:76:6f:e8:80:1f:99:00:20:71:8a:36:b4:
                    17:47:f1:79:70:2c:79:76:72:b8:ad:4c:38:dc:51:
                    41:73:99:32:fa:bc:b7:28:89:a1:92:4a:da:7e:8f:
                    b4:6e:bb:12:44:1e:4f:43:e4:f9:51:4b:6b:d3:bb:
                    79:43:94:a2:db:91:f5:a4:41:29:05:5e:be:80:de:
                    6a:41:2a:38:8d:61:05:bf:43:e4:d6:39:75:ae:bd:
                    f0:61:49:3a:72:cf:45:6a:e6:44:c1:d3:8b:6f:ee:
                    71:f5:f4:ba:59:94:9c:4d:73:95:30:4a:ca:1b:25:
                    8d:95:1b:81:a9:c9:fd:0c:d3
                Exponent: 65537 (0x10001)
        X509v3 extensions:
            X509v3 Basic Constraints: 
            CA:FALSE
            X509v3 Subject Key Identifier: 
            72:1B:46:3B:76:F9:07:7E:F7:22:58:4C:62:D3:60:B5:A6:B2:92:BB
            X509v3 Authority Key Identifier: 
            keyid:9F:A2:17:D5:F0:19:FA:38:09:39:AA:22:26:BF:7A:B5:42:7B:66:EE
            DirName:/C=US/ST=Florida/L=Palm Beach Gardens/O=ZeroC, Inc./OU=Ice/CN=ZeroC Test CA/emailAddress=info@zeroc.com
            serial:00

            X509v3 Subject Alternative Name: 
            DNS:server, IP Address:127.0.0.1
    Signature Algorithm: md5WithRSAEncryption
        8d:96:e4:81:85:6e:cf:85:e6:c2:f3:61:69:b8:6f:7f:e3:05:
        ec:cf:27:7e:bb:41:c9:3f:04:6e:a1:45:f3:f3:69:40:01:80:
        51:90:43:f7:3c:1f:60:da:e6:02:bf:e8:f7:54:80:d9:2e:45:
        e4:32:fe:ef:28:3a:42:9a:a3:bf:cb:68:4b:7f:08:45:42:4d:
        9b:7f:fe:03:ea:3a:af:16:90:03:dd:52:ee:c0:dd:91:77:09:
        3c:e6:67:0d:dc:5a:de:d7:27:02:46:38:80:bf:9b:5e:5d:12:
        78:d0:ab:6a:c5:51:36:09:78:f1:35:98:3e:a3:20:58:c1:3e:
        80:8f:dd:b9:bb:af:46:df:45:4f:51:20:81:82:65:48:11:a8:
        1b:9a:1a:9e:33:87:c3:7b:26:79:7b:c4:54:e1:82:4c:f8:3d:
        85:1b:01:31:81:a4:fb:86:61:1b:9f:8c:ca:e6:a6:61:86:cb:
        7c:fe:d7:29:75:37:be:99:22:71:ea:23:b3:7f:91:b4:b0:95:
        99:f5:04:5c:0a:ab:c3:68:1f:9d:25:43:ff:f9:08:97:55:cc:
        e6:27:97:c1:60:67:75:8a:00:82:f6:e7:0d:f4:86:48:47:32:
        90:73:a2:8c:12:af:37:95:37:5a:69:4e:35:7f:59:bb:03:e7:
        eb:21:0e:e7
-----BEGIN CERTIFICATE-----
MIIEEjCCAvqgAwIBAgIBATANBgkqhkiG9w0BAQQFADCBlzELMAkGA1UEBhMCVVMx
EDAOBgNVBAgTB0Zsb3JpZGExGzAZBgNVBAcTElBhbG0gQmVhY2ggR2FyZGVuczEU
MBIGA1UEChMLWmVyb0MsIEluYy4xDDAKBgNVBAsTA0ljZTEWMBQGA1UEAxMNWmVy
b0MgVGVzdCBDQTEdMBsGCSqGSIb3DQEJARYOaW5mb0B6ZXJvYy5jb20wHhcNMDYw
MzI3MTcxMTI2WhcNMTEwMzI2MTcxMTI2WjBzMQswCQYDVQQGEwJVUzEQMA4GA1UE
CBMHRmxvcmlkYTEUMBIGA1UEChMLWmVyb0MsIEluYy4xDDAKBgNVBAsTA0ljZTEd
MBsGCSqGSIb3DQEJARYOaW5mb0B6ZXJvYy5jb20xDzANBgNVBAMTBlNlcnZlcjCB
nzANBgkqhkiG9w0BAQEFAAOBjQAwgYkCgYEA2GR2b+iAH5kAIHGKNrQXR/F5cCx5
dnK4rUw43FFBc5ky+ry3KImhkkrafo+0brsSRB5PQ+T5UUtr07t5Q5Si25H1pEEp
BV6+gN5qQSo4jWEFv0Pk1jl1rr3wYUk6cs9FauZEwdOLb+5x9fS6WZScTXOVMErK
GyWNlRuBqcn9DNMCAwEAAaOCAQ4wggEKMAkGA1UdEwQCMAAwHQYDVR0OBBYEFHIb
Rjt2+Qd+9yJYTGLTYLWmspK7MIHEBgNVHSMEgbwwgbmAFJ+iF9XwGfo4CTmqIia/
erVCe2buoYGdpIGaMIGXMQswCQYDVQQGEwJVUzEQMA4GA1UECBMHRmxvcmlkYTEb
MBkGA1UEBxMSUGFsbSBCZWFjaCBHYXJkZW5zMRQwEgYDVQQKEwtaZXJvQywgSW5j
LjEMMAoGA1UECxMDSWNlMRYwFAYDVQQDEw1aZXJvQyBUZXN0IENBMR0wGwYJKoZI
hvcNAQkBFg5pbmZvQHplcm9jLmNvbYIBADAXBgNVHREEEDAOggZzZXJ2ZXKHBH8A
AAEwDQYJKoZIhvcNAQEEBQADggEBAI2W5IGFbs+F5sLzYWm4b3/jBezPJ367Qck/
BG6hRfPzaUABgFGQQ/c8H2Da5gK/6PdUgNkuReQy/u8oOkKao7/LaEt/CEVCTZt/
/gPqOq8WkAPdUu7A3ZF3CTzmZw3cWt7XJwJGOIC/m15dEnjQq2rFUTYJePE1mD6j
IFjBPoCP3bm7r0bfRU9RIIGCZUgRqBuaGp4zh8N7Jnl7xFThgkz4PYUbATGBpPuG
YRufjMrmpmGGy3z+1yl1N76ZInHqI7N/kbSwlZn1BFwKq8NoH50lQ//5CJdVzOYn
l8FgZ3WKAIL25w30hkhHMpBzoowSrzeVN1ppTjV/WbsD5+shDuc=
-----END CERTIFICATE-----
