Certificate:
    Data:
        Version: 3 (0x2)
        Serial Number: 1 (0x1)
        Signature Algorithm: md5WithRSAEncryption
        Issuer: C=US, ST=Florida, L=Palm Beach Gardens, O=ZeroC, Inc., OU=Ice, CN=ZeroC Test CA/emailAddress=info@zeroc.com
        Validity
            Not Before: Mar 31 16:20:00 2006 GMT
            Not After : Mar 28 16:20:00 2016 GMT
        Subject: C=US, ST=Florida, O=ZeroC, Inc., OU=Ice/emailAddress=info@zeroc.com, CN=Client
        Subject Public Key Info:
            Public Key Algorithm: dsaEncryption
            DSA Public Key:
                pub: 
                    6a:59:27:13:70:a3:ec:38:86:5c:17:26:52:d9:fd:
                    e5:95:0e:1a:ec:4e:af:60:61:db:1f:c2:3c:9c:9e:
                    2b:03:70:6f:26:5d:e6:29:8f:d0:a3:99:40:21:8b:
                    5a:73:fb:2f:37:a9:d9:b4:2f:cb:42:72:f9:42:09:
                    a9:87:bf:84:51:48:ba:c5:64:a7:23:a4:a4:c3:88:
                    50:43:9e:bb:6a:69:2e:fd:ec:23:a4:a7:ff:7f:42:
                    39:52:d7:54:5d:3c:20:78:79:7c:33:3f:6d:05:9c:
                    a0:a2:a4:5c:61:50:d1:8c:f4:4d:d0:9b:7b:c1:62:
                    a2:1a:46:67:0a:d6:2b:b2
                P:   
                    00:83:15:5f:a6:00:34:1d:75:5d:dc:2f:b6:e6:ac:
                    14:0e:dd:13:0b:bb:32:d4:39:d8:ad:c1:1c:7c:09:
                    fb:d0:73:43:a2:d2:74:53:7f:e4:2d:de:b4:64:9b:
                    1e:b1:c5:e3:17:11:81:78:0c:a5:37:65:37:a2:26:
                    fb:99:3f:2e:7f:e0:48:8d:91:dc:94:57:5b:f6:1b:
                    3b:e3:5a:b1:c7:28:dd:d2:64:54:bd:d0:5a:3f:d1:
                    04:a8:88:9e:3c:55:bc:84:ab:71:ce:9c:2d:f9:f5:
                    6c:45:87:cc:74:e9:12:58:30:9a:fb:09:c9:fc:b9:
                    db:e8:0d:a3:a3:8b:49:1f:2b
                Q:   
                    00:e5:90:59:41:c6:d9:c4:74:41:1b:b1:7b:24:a6:
                    fc:56:bc:1f:00:39
                G:   
                    48:20:c6:92:e7:9f:63:9b:38:fb:3a:d3:c8:0d:a5:
                    62:bb:ca:ed:97:45:1a:3e:80:0b:1c:75:06:72:10:
                    5a:25:e8:1d:2d:fb:65:69:a1:64:bb:d8:04:13:10:
                    d4:84:a1:d8:ae:46:f8:c4:c6:ae:6d:f2:dc:a0:18:
                    f1:73:aa:ab:ba:dd:3b:c0:35:ad:6b:b6:2d:c6:4a:
                    16:f6:c8:df:6d:43:64:12:3e:08:ae:d9:ad:f4:c8:
                    a4:eb:d6:6c:6a:b2:18:6a:7e:cc:9e:6a:57:bf:c2:
                    12:54:d4:dd:42:39:41:65:26:dd:df:7e:db:91:5b:
                    b5:96:cb:b5:65:c9:c6:28
        X509v3 extensions:
            X509v3 Basic Constraints: 
            CA:FALSE
            X509v3 Subject Key Identifier: 
            F9:F3:49:BF:37:9D:44:75:F3:52:64:79:05:81:18:2D:C8:60:4B:A3
            X509v3 Authority Key Identifier: 
            keyid:5A:A7:44:4D:31:6D:4F:2F:BE:07:F4:C6:59:06:53:08:D7:0E:46:CE
            DirName:/C=US/ST=Florida/L=Palm Beach Gardens/O=ZeroC, Inc./OU=Ice/CN=ZeroC Test CA/emailAddress=info@zeroc.com
            serial:00

            X509v3 Subject Alternative Name: 
            DNS:client, IP Address:127.0.0.1
    Signature Algorithm: md5WithRSAEncryption
        4a:37:e7:35:2f:df:e4:d2:63:80:8e:40:fd:a3:21:a3:9e:b8:
        18:3b:ae:c4:ab:cc:f7:01:47:3f:10:1d:8f:5f:33:58:e0:ec:
        24:a9:97:b9:b3:e3:b7:a7:27:78:f6:1c:37:a2:de:be:6d:89:
        fe:bb:a0:2b:ea:94:1f:4b:18:93:32:39:23:b9:92:ba:5b:8d:
        e6:67:b4:d7:c7:f3:ff:ad:f0:2d:91:75:3a:6e:7f:77:41:ec:
        b9:22:a2:40:38:fd:23:25:84:0d:c6:23:f5:26:6b:05:7a:fd:
        a8:0f:53:02:f5:90:b1:d8:5e:51:40:d7:c7:f0:5a:88:09:b3:
        b0:c8:65:5a:28:6e:50:be:23:66:e2:43:f3:16:93:6a:5a:a8:
        f4:2d:46:f4:3a:46:19:0d:3c:25:2e:38:ab:64:72:f3:59:ef:
        e0:1e:0c:ab:3d:d1:4b:a7:8d:16:12:d8:9e:7e:34:72:e6:37:
        77:37:d3:54:48:12:73:c8:e7:88:57:53:64:aa:72:71:22:c0:
        25:74:3e:42:98:31:07:bf:76:f1:e0:85:88:16:29:39:9a:94:
        a7:0d:c8:32:b8:49:e5:01:a1:2d:33:6e:7c:9c:fb:be:93:8f:
        dd:43:2a:5e:d5:d6:81:a0:69:4a:49:eb:01:ab:0a:ea:4c:7b:
        93:2e:04:e7
-----BEGIN CERTIFICATE-----
MIIFKjCCBBKgAwIBAgIBATANBgkqhkiG9w0BAQQFADCBlzELMAkGA1UEBhMCVVMx
EDAOBgNVBAgTB0Zsb3JpZGExGzAZBgNVBAcTElBhbG0gQmVhY2ggR2FyZGVuczEU
MBIGA1UEChMLWmVyb0MsIEluYy4xDDAKBgNVBAsTA0ljZTEWMBQGA1UEAxMNWmVy
b0MgVGVzdCBDQTEdMBsGCSqGSIb3DQEJARYOaW5mb0B6ZXJvYy5jb20wHhcNMDYw
MzMxMTYyMDAwWhcNMTYwMzI4MTYyMDAwWjBzMQswCQYDVQQGEwJVUzEQMA4GA1UE
CBMHRmxvcmlkYTEUMBIGA1UEChMLWmVyb0MsIEluYy4xDDAKBgNVBAsTA0ljZTEd
MBsGCSqGSIb3DQEJARYOaW5mb0B6ZXJvYy5jb20xDzANBgNVBAMTBkNsaWVudDCC
AbYwggErBgcqhkjOOAQBMIIBHgKBgQCDFV+mADQddV3cL7bmrBQO3RMLuzLUOdit
wRx8CfvQc0Oi0nRTf+Qt3rRkmx6xxeMXEYF4DKU3ZTeiJvuZPy5/4EiNkdyUV1v2
GzvjWrHHKN3SZFS90Fo/0QSoiJ48VbyEq3HOnC359WxFh8x06RJYMJr7Ccn8udvo
DaOji0kfKwIVAOWQWUHG2cR0QRuxeySm/Fa8HwA5AoGASCDGkuefY5s4+zrTyA2l
YrvK7ZdFGj6ACxx1BnIQWiXoHS37ZWmhZLvYBBMQ1ISh2K5G+MTGrm3y3KAY8XOq
q7rdO8A1rWu2LcZKFvbI321DZBI+CK7ZrfTIpOvWbGqyGGp+zJ5qV7/CElTU3UI5
QWUm3d9+25FbtZbLtWXJxigDgYQAAoGAalknE3Cj7DiGXBcmUtn95ZUOGuxOr2Bh
2x/CPJyeKwNwbyZd5imP0KOZQCGLWnP7Lzep2bQvy0Jy+UIJqYe/hFFIusVkpyOk
pMOIUEOeu2ppLv3sI6Sn/39COVLXVF08IHh5fDM/bQWcoKKkXGFQ0Yz0TdCbe8Fi
ohpGZwrWK7KjggEOMIIBCjAJBgNVHRMEAjAAMB0GA1UdDgQWBBT580m/N51EdfNS
ZHkFgRgtyGBLozCBxAYDVR0jBIG8MIG5gBRap0RNMW1PL74H9MZZBlMI1w5GzqGB
naSBmjCBlzELMAkGA1UEBhMCVVMxEDAOBgNVBAgTB0Zsb3JpZGExGzAZBgNVBAcT
ElBhbG0gQmVhY2ggR2FyZGVuczEUMBIGA1UEChMLWmVyb0MsIEluYy4xDDAKBgNV
BAsTA0ljZTEWMBQGA1UEAxMNWmVyb0MgVGVzdCBDQTEdMBsGCSqGSIb3DQEJARYO
aW5mb0B6ZXJvYy5jb22CAQAwFwYDVR0RBBAwDoIGY2xpZW50hwR/AAABMA0GCSqG
SIb3DQEBBAUAA4IBAQBKN+c1L9/k0mOAjkD9oyGjnrgYO67Eq8z3AUc/EB2PXzNY
4OwkqZe5s+O3pyd49hw3ot6+bYn+u6Ar6pQfSxiTMjkjuZK6W43mZ7TXx/P/rfAt
kXU6bn93Qey5IqJAOP0jJYQNxiP1JmsFev2oD1MC9ZCx2F5RQNfH8FqICbOwyGVa
KG5QviNm4kPzFpNqWqj0LUb0OkYZDTwlLjirZHLzWe/gHgyrPdFLp40WEtiefjRy
5jd3N9NUSBJzyOeIV1NkqnJxIsAldD5CmDEHv3bx4IWIFik5mpSnDcgyuEnlAaEt
M258nPu+k4/dQype1daBoGlKSesBqwrqTHuTLgTn
-----END CERTIFICATE-----
