Certificate:
    Data:
        Version: 3 (0x2)
        Serial Number: 1 (0x1)
        Signature Algorithm: md5WithRSAEncryption
        Issuer: C=US, ST=Florida, L=Palm Beach Gardens, O=ZeroC, Inc., OU=Ice, CN=ZeroC Test CA/emailAddress=info@zeroc.com
        Validity
            Not Before: Mar 28 18:10:00 2006 GMT
            Not After : Mar 25 18:10:00 2016 GMT
        Subject: C=US, ST=Florida, O=ZeroC, Inc., OU=Ice/emailAddress=info@zeroc.com, CN=Client
        Subject Public Key Info:
            Public Key Algorithm: dsaEncryption
            DSA Public Key:
                pub: 
                    00:8c:ea:86:8e:91:21:94:f7:77:97:27:85:6f:b6:
                    c4:45:9d:9e:c5:bd:96:d4:39:ba:2c:76:2f:83:88:
                    27:3b:33:04:cb:8c:8d:7a:44:34:7a:8b:3e:04:13:
                    7b:59:19:3c:bb:fc:36:11:55:56:6a:e2:6a:b7:b6:
                    59:19:39:ff:b7:aa:ba:fd:bb:bd:6c:b4:92:93:f3:
                    d9:00:a6:a9:ee:18:a6:7f:97:8d:72:7a:03:23:50:
                    f8:fa:2d:04:a2:c9:bc:ff:c2:20:eb:3a:a7:47:28:
                    50:bf:df:dd:d0:63:93:20:01:3b:79:ad:a7:36:8b:
                    c4:cf:61:d0:f9:eb:3e:70:71
                P:   
                    00:d1:a8:89:3e:85:18:a9:ff:19:0c:0c:58:5b:dd:
                    23:d2:0b:d9:54:1c:58:36:70:6a:f2:ed:4a:51:fc:
                    b4:01:a1:b6:da:07:1f:7e:25:30:cb:ea:2b:30:ce:
                    28:53:d8:e8:3f:4e:2f:13:03:10:aa:86:98:d1:19:
                    04:54:ad:54:e1:bf:ec:9b:ec:3a:65:7e:b2:86:88:
                    06:f2:eb:10:83:e4:1b:09:cb:a4:5a:d0:77:21:a9:
                    57:88:4a:a5:e4:68:9c:80:18:5f:8f:5b:cd:4e:87:
                    60:51:7a:34:20:16:e6:1e:f4:da:75:6f:cb:b2:9c:
                    76:0d:d4:91:76:c5:e1:ef:e7
                Q:   
                    00:a3:37:c3:df:9f:23:bb:3b:8e:d9:da:e3:22:e1:
                    80:4e:ba:cf:c4:a9
                G:   
                    00:92:b5:42:f4:30:cf:79:c2:21:ac:31:ab:66:f9:
                    d9:a9:fb:bd:46:e6:ef:ca:06:8b:d2:b4:7c:18:33:
                    ba:07:3b:41:11:2a:36:d1:4a:f0:8d:73:ef:3a:33:
                    e3:65:d1:f6:b4:bd:b6:a7:84:fc:d7:1d:8f:1f:bd:
                    77:f5:f5:47:49:a2:06:22:5a:bb:2d:a6:ba:87:71:
                    1e:43:e1:e3:49:75:95:29:14:99:43:43:18:4f:0f:
                    9b:bd:55:4c:6e:be:51:28:73:b3:46:52:67:ec:d9:
                    e0:9c:e6:23:f5:b1:0a:09:46:26:f7:e7:3f:a0:c3:
                    dc:76:26:e2:d8:41:75:77:56
        X509v3 extensions:
            X509v3 Basic Constraints: 
            CA:FALSE
            X509v3 Subject Key Identifier: 
            04:ED:7A:D9:7B:B9:34:A0:F5:26:E6:25:98:AB:AB:26:23:CF:9D:7C
            X509v3 Authority Key Identifier: 
            keyid:A3:8D:7D:FF:A8:69:1E:7C:54:58:46:61:FE:B7:68:BC:2C:FC:CB:DE
            DirName:/C=US/ST=Florida/L=Palm Beach Gardens/O=ZeroC, Inc./OU=Ice/CN=ZeroC Test CA/emailAddress=info@zeroc.com
            serial:00

            X509v3 Subject Alternative Name: 
            DNS:client, IP Address:127.0.0.1
    Signature Algorithm: md5WithRSAEncryption
        b2:e5:01:c4:b4:c1:1a:6b:c5:6a:dc:6b:1f:8e:76:62:c9:09:
        a0:7c:86:fb:8f:86:86:a0:0b:6e:24:92:22:ad:2f:12:3f:c8:
        31:c1:7a:25:44:44:3c:b8:4f:1e:f0:de:b8:a4:2e:71:02:7d:
        10:65:80:d0:95:74:ca:26:65:c8:e5:86:bd:9d:1f:90:e5:b2:
        64:06:ab:b0:e3:37:20:d6:3b:61:13:b2:f9:52:d4:44:58:21:
        ca:10:f2:82:c9:d4:9a:95:ff:54:72:a3:15:95:54:5b:44:af:
        27:57:2d:77:8e:dd:dd:fc:85:59:e2:85:86:6d:7f:0f:de:a1:
        c5:d1:e8:de:b6:56:85:f9:10:19:cf:c3:aa:36:d5:b2:df:65:
        1c:9f:41:ee:77:99:8f:28:5c:9b:81:72:90:3f:80:e1:81:ec:
        f3:b7:17:07:d5:63:3f:e5:b4:61:36:fc:5c:6c:79:e3:a2:db:
        2b:9a:98:8b:27:54:8a:1f:97:4d:97:1b:fd:0c:31:94:8d:9a:
        b9:a7:7d:2c:5d:ea:ee:2f:ec:08:07:4f:1e:8a:37:d6:2e:54:
        fe:42:ed:f8:ed:e2:80:d5:19:98:9c:44:1e:29:6c:c9:ec:27:
        6e:18:f9:66:2d:5a:71:72:94:97:7e:30:48:b9:b2:76:30:45:
        87:e7:5a:c9
-----BEGIN CERTIFICATE-----
MIIFLDCCBBSgAwIBAgIBATANBgkqhkiG9w0BAQQFADCBlzELMAkGA1UEBhMCVVMx
EDAOBgNVBAgTB0Zsb3JpZGExGzAZBgNVBAcTElBhbG0gQmVhY2ggR2FyZGVuczEU
MBIGA1UEChMLWmVyb0MsIEluYy4xDDAKBgNVBAsTA0ljZTEWMBQGA1UEAxMNWmVy
b0MgVGVzdCBDQTEdMBsGCSqGSIb3DQEJARYOaW5mb0B6ZXJvYy5jb20wHhcNMDYw
MzI4MTgxMDAwWhcNMTYwMzI1MTgxMDAwWjBzMQswCQYDVQQGEwJVUzEQMA4GA1UE
CBMHRmxvcmlkYTEUMBIGA1UEChMLWmVyb0MsIEluYy4xDDAKBgNVBAsTA0ljZTEd
MBsGCSqGSIb3DQEJARYOaW5mb0B6ZXJvYy5jb20xDzANBgNVBAMTBkNsaWVudDCC
AbgwggEsBgcqhkjOOAQBMIIBHwKBgQDRqIk+hRip/xkMDFhb3SPSC9lUHFg2cGry
7UpR/LQBobbaBx9+JTDL6iswzihT2Og/Ti8TAxCqhpjRGQRUrVThv+yb7DplfrKG
iAby6xCD5BsJy6Ra0HchqVeISqXkaJyAGF+PW81Oh2BRejQgFuYe9Np1b8uynHYN
1JF2xeHv5wIVAKM3w9+fI7s7jtna4yLhgE66z8SpAoGBAJK1QvQwz3nCIawxq2b5
2an7vUbm78oGi9K0fBgzugc7QREqNtFK8I1z7zoz42XR9rS9tqeE/Ncdjx+9d/X1
R0miBiJauy2muodxHkPh40l1lSkUmUNDGE8Pm71VTG6+UShzs0ZSZ+zZ4JzmI/Wx
CglGJvfnP6DD3HYm4thBdXdWA4GFAAKBgQCM6oaOkSGU93eXJ4VvtsRFnZ7FvZbU
Obosdi+DiCc7MwTLjI16RDR6iz4EE3tZGTy7/DYRVVZq4mq3tlkZOf+3qrr9u71s
tJKT89kApqnuGKZ/l41yegMjUPj6LQSiybz/wiDrOqdHKFC/393QY5MgATt5rac2
i8TPYdD56z5wcaOCAQ4wggEKMAkGA1UdEwQCMAAwHQYDVR0OBBYEFATtetl7uTSg
9SbmJZirqyYjz518MIHEBgNVHSMEgbwwgbmAFKONff+oaR58VFhGYf63aLws/Mve
oYGdpIGaMIGXMQswCQYDVQQGEwJVUzEQMA4GA1UECBMHRmxvcmlkYTEbMBkGA1UE
BxMSUGFsbSBCZWFjaCBHYXJkZW5zMRQwEgYDVQQKEwtaZXJvQywgSW5jLjEMMAoG
A1UECxMDSWNlMRYwFAYDVQQDEw1aZXJvQyBUZXN0IENBMR0wGwYJKoZIhvcNAQkB
Fg5pbmZvQHplcm9jLmNvbYIBADAXBgNVHREEEDAOggZjbGllbnSHBH8AAAEwDQYJ
KoZIhvcNAQEEBQADggEBALLlAcS0wRprxWrcax+OdmLJCaB8hvuPhoagC24kkiKt
LxI/yDHBeiVERDy4Tx7w3rikLnECfRBlgNCVdMomZcjlhr2dH5DlsmQGq7DjNyDW
O2ETsvlS1ERYIcoQ8oLJ1JqV/1RyoxWVVFtErydXLXeO3d38hVnihYZtfw/eocXR
6N62VoX5EBnPw6o21bLfZRyfQe53mY8oXJuBcpA/gOGB7PO3FwfVYz/ltGE2/Fxs
eeOi2yuamIsnVIofl02XG/0MMZSNmrmnfSxd6u4v7AgHTx6KN9YuVP5C7fjt4oDV
GZicRB4pbMnsJ24Y+WYtWnFylJd+MEi5snYwRYfnWsk=
-----END CERTIFICATE-----
