Certificate:
    Data:
        Version: 3 (0x2)
        Serial Number: 1 (0x1)
        Signature Algorithm: sha1WithRSAEncryption
        Issuer: C=US, ST=Florida, L=Palm Beach Gardens, O=ZeroC, Inc., OU=Ice, CN=ZeroC Test CA 1/emailAddress=info@zeroc.com
        Validity
            Not Before: Mar 17 14:50:34 2010 GMT
            Not After : Mar 14 14:50:34 2020 GMT
        Subject: C=US, ST=Florida, O=ZeroC, Inc., OU=Ice/emailAddress=info@zeroc.com, CN=Client
        Subject Public Key Info:
            Public Key Algorithm: dsaEncryption
                pub: 
                    00:86:b1:4a:aa:7c:c3:5a:ad:87:2f:7d:39:c7:3f:
                    6e:68:6e:03:c1:7d:c6:64:6d:a3:87:04:c4:4c:dd:
                    bb:0b:c3:21:a8:91:c3:28:44:3a:44:91:6a:3f:79:
                    bd:a2:e0:d7:01:45:d7:bb:0a:ab:85:10:92:d7:24:
                    a4:82:85:f8:56:f8:6d:e4:ee:bb:f1:68:f6:5f:5b:
                    11:63:95:e7:19:ae:51:7f:ce:01:af:17:81:dd:29:
                    0d:40:6f:60:d4:2f:fe:44:99:ad:65:03:33:5b:b5:
                    b2:13:2a:80:e4:53:7b:5e:2e:29:b9:f0:18:0f:af:
                    fe:1c:08:e3:15:be:84:4b:cd
                P:   
                    00:c2:a4:99:8f:ae:95:18:3e:ac:be:1f:dd:a5:3b:
                    ef:b6:53:23:e8:36:71:3c:fc:5c:3f:ac:34:3c:31:
                    55:20:59:3a:12:fe:3d:e9:a5:b5:8a:4c:40:17:78:
                    8d:30:c4:67:36:21:b9:ef:b2:6c:59:b7:e1:23:46:
                    81:57:3b:f5:af:33:a4:9e:25:e7:c3:1b:88:ee:01:
                    b6:b2:8c:0b:aa:41:0f:56:8a:8f:da:88:c3:fe:0f:
                    36:60:14:11:37:41:31:d0:18:b6:ff:26:73:79:ae:
                    f5:c2:a0:bb:83:23:f1:01:bb:a2:51:1c:6f:e0:6f:
                    7d:43:08:c7:19:bf:29:e4:4b
                Q:   
                    00:f3:0d:09:6f:d3:89:f0:0e:7d:f9:9a:62:c1:3c:
                    17:01:7e:16:74:e5
                G:   
                    5e:22:27:fc:01:f2:58:00:d7:68:f3:d3:48:9d:f7:
                    e7:9d:3d:05:4a:09:21:17:df:93:ac:65:93:dd:b3:
                    6d:4f:6b:69:e9:f2:a5:87:a7:f6:37:c4:85:c5:ed:
                    78:6d:c2:fa:2c:30:2f:e5:37:8b:b6:98:b6:19:73:
                    6a:8c:a8:3f:81:c2:8d:a3:5f:d6:42:90:75:6d:b2:
                    02:0c:f2:96:ab:8f:18:c1:58:bf:98:88:b6:92:06:
                    6b:d4:07:45:8f:df:da:f0:77:a6:9e:55:dc:05:14:
                    8a:1a:f0:5e:80:38:06:d3:e3:3e:6d:0b:9b:ef:00:
                    b2:44:ec:50:62:30:d5:af
        X509v3 extensions:
            X509v3 Basic Constraints: 
                CA:FALSE
            X509v3 Subject Key Identifier: 
                2E:AA:D3:9F:76:7C:3F:0D:CE:DB:9D:F6:17:99:A6:32:07:CF:0D:89
            X509v3 Authority Key Identifier: 
                keyid:A2:D9:80:2A:E4:91:8E:0B:85:B7:E4:D5:28:62:4F:C7:C9:8B:E8:D1
                DirName:/C=US/ST=Florida/L=Palm Beach Gardens/O=ZeroC, Inc./OU=Ice/CN=ZeroC Test CA 1/emailAddress=info@zeroc.com
                serial:94:31:70:AC:50:6A:15:99

            X509v3 Subject Alternative Name: 
                DNS:client, IP Address:127.0.0.1
    Signature Algorithm: sha1WithRSAEncryption
        5c:15:67:3e:2a:ec:4b:8f:e6:d8:bc:bb:43:01:4a:36:15:ba:
        3b:7a:2b:f0:44:3b:d0:e5:6f:e5:72:d0:bd:8f:8c:77:64:d8:
        b4:57:a0:3d:6f:bc:46:ff:da:c5:39:04:a5:06:c5:fe:42:08:
        2e:74:b6:47:2e:36:e6:11:f7:47:b1:b4:5d:d4:5e:01:18:6b:
        51:97:fc:b0:9f:60:9f:a3:b3:cb:0b:b1:18:69:b5:4b:eb:40:
        69:c9:ba:a5:19:8e:a8:df:1a:62:a0:51:7a:96:4e:71:5f:04:
        7f:df:ba:46:71:27:20:df:60:95:51:6d:68:4c:ca:6b:8a:27:
        79:60
-----BEGIN CERTIFICATE-----
MIIEtjCCBB+gAwIBAgIBATANBgkqhkiG9w0BAQUFADCBmTELMAkGA1UEBhMCVVMx
EDAOBgNVBAgTB0Zsb3JpZGExGzAZBgNVBAcTElBhbG0gQmVhY2ggR2FyZGVuczEU
MBIGA1UEChMLWmVyb0MsIEluYy4xDDAKBgNVBAsTA0ljZTEYMBYGA1UEAxMPWmVy
b0MgVGVzdCBDQSAxMR0wGwYJKoZIhvcNAQkBFg5pbmZvQHplcm9jLmNvbTAeFw0x
MDAzMTcxNDUwMzRaFw0yMDAzMTQxNDUwMzRaMHMxCzAJBgNVBAYTAlVTMRAwDgYD
VQQIEwdGbG9yaWRhMRQwEgYDVQQKEwtaZXJvQywgSW5jLjEMMAoGA1UECxMDSWNl
MR0wGwYJKoZIhvcNAQkBFg5pbmZvQHplcm9jLmNvbTEPMA0GA1UEAxMGQ2xpZW50
MIIBtzCCASsGByqGSM44BAEwggEeAoGBAMKkmY+ulRg+rL4f3aU777ZTI+g2cTz8
XD+sNDwxVSBZOhL+PemltYpMQBd4jTDEZzYhue+ybFm34SNGgVc79a8zpJ4l58Mb
iO4BtrKMC6pBD1aKj9qIw/4PNmAUETdBMdAYtv8mc3mu9cKgu4Mj8QG7olEcb+Bv
fUMIxxm/KeRLAhUA8w0Jb9OJ8A59+ZpiwTwXAX4WdOUCgYBeIif8AfJYANdo89NI
nffnnT0FSgkhF9+TrGWT3bNtT2tp6fKlh6f2N8SFxe14bcL6LDAv5TeLtpi2GXNq
jKg/gcKNo1/WQpB1bbICDPKWq48YwVi/mIi2kgZr1AdFj9/a8HemnlXcBRSKGvBe
gDgG0+M+bQub7wCyROxQYjDVrwOBhQACgYEAhrFKqnzDWq2HL305xz9uaG4DwX3G
ZG2jhwTETN27C8MhqJHDKEQ6RJFqP3m9ouDXAUXXuwqrhRCS1ySkgoX4Vvht5O67
8Wj2X1sRY5XnGa5Rf84BrxeB3SkNQG9g1C/+RJmtZQMzW7WyEyqA5FN7Xi4pufAY
D6/+HAjjFb6ES82jggEYMIIBFDAJBgNVHRMEAjAAMB0GA1UdDgQWBBQuqtOfdnw/
Dc7bnfYXmaYyB88NiTCBzgYDVR0jBIHGMIHDgBSi2YAq5JGOC4W35NUoYk/HyYvo
0aGBn6SBnDCBmTELMAkGA1UEBhMCVVMxEDAOBgNVBAgTB0Zsb3JpZGExGzAZBgNV
BAcTElBhbG0gQmVhY2ggR2FyZGVuczEUMBIGA1UEChMLWmVyb0MsIEluYy4xDDAK
BgNVBAsTA0ljZTEYMBYGA1UEAxMPWmVyb0MgVGVzdCBDQSAxMR0wGwYJKoZIhvcN
AQkBFg5pbmZvQHplcm9jLmNvbYIJAJQxcKxQahWZMBcGA1UdEQQQMA6CBmNsaWVu
dIcEfwAAATANBgkqhkiG9w0BAQUFAAOBgQBcFWc+KuxLj+bYvLtDAUo2Fbo7eivw
RDvQ5W/lctC9j4x3ZNi0V6A9b7xG/9rFOQSlBsX+QggudLZHLjbmEfdHsbRd1F4B
GGtRl/ywn2Cfo7PLC7EYabVL60BpybqlGY6o3xpioFF6lk5xXwR/37pGcScg32CV
UW1oTMpriid5YA==
-----END CERTIFICATE-----
