Certificate:
    Data:
        Version: 3 (0x2)
        Serial Number: 1 (0x1)
        Signature Algorithm: md5WithRSAEncryption
        Issuer: C=US, ST=Florida, L=Palm Beach Gardens, O=ZeroC, Inc., OU=Ice, CN=ZeroC Test CA 1/emailAddress=info@zeroc.com
        Validity
            Not Before: Mar 31 16:55:19 2006 GMT
            Not After : Mar 28 16:55:19 2016 GMT
        Subject: C=US, ST=Florida, O=ZeroC, Inc., OU=Ice/emailAddress=info@zeroc.com, CN=Client
        Subject Public Key Info:
            Public Key Algorithm: dsaEncryption
            DSA Public Key:
                pub: 
                    06:1e:4d:07:2e:2a:3b:dd:b0:d3:5d:30:a2:d2:68:
                    8c:61:7a:92:6e:ba:27:aa:aa:fe:79:f1:46:9c:96:
                    81:bd:09:1a:e7:1c:cc:d8:52:d8:05:24:0e:47:db:
                    97:ec:f1:d5:d2:14:7c:e1:48:ec:95:0a:6b:a5:1b:
                    c6:f0:bb:33:dd:25:20:5e:56:a8:09:51:00:71:62:
                    04:4f:3c:27:be:02:0d:1e:57:ce:5a:15:49:7b:57:
                    f9:ec:1b:4f:d3:30:ad:73:81:64:6c:ad:a8:8b:6a:
                    aa:4d:e4:bf:ec:ff:60:70:cb:ac:ca:79:8d:5c:ab:
                    5d:d8:9e:79:b8:9e:e1:b7
                P:   
                    00:b0:55:d6:b6:03:40:a2:4d:e6:88:f8:26:c0:16:
                    69:f5:38:0b:68:95:51:2f:eb:15:3a:23:29:a6:8d:
                    5f:b9:98:b2:ca:3a:4d:07:87:d3:25:9d:8e:88:2e:
                    31:24:73:97:b1:b0:fb:d8:66:3b:36:70:66:65:2e:
                    25:70:af:79:ba:b9:16:5f:7f:af:d9:c2:4f:a5:d5:
                    6c:92:fc:5a:97:b8:ed:f5:49:42:a1:50:81:90:95:
                    e7:0b:96:47:07:9a:91:25:2f:6b:c2:cd:fd:4e:6d:
                    09:23:f3:0e:51:45:59:9a:a6:67:c4:dc:4d:22:55:
                    30:6c:60:f4:84:15:c4:48:df
                Q:   
                    00:9c:53:bf:84:ec:49:f9:42:42:d1:51:36:88:41:
                    f4:25:37:e5:17:d1
                G:   
                    23:1a:77:d3:ea:b3:4c:c4:8a:30:3c:7e:ba:bc:46:
                    a1:5d:75:62:7f:d3:83:65:ec:40:23:42:b5:ae:95:
                    11:5b:42:65:17:98:24:70:86:af:d0:c4:50:52:bc:
                    a6:1c:f6:35:68:0f:fc:26:24:1f:c2:70:79:4c:a0:
                    3c:af:98:5d:3a:95:00:3e:dc:84:74:65:72:39:ca:
                    be:a5:9a:96:69:9b:d6:ec:98:78:7f:4b:81:f2:dd:
                    88:e8:9e:b0:2d:64:b4:54:7b:45:ff:57:07:34:89:
                    79:72:22:75:02:39:3e:2c:6a:ba:3d:65:cd:fe:d3:
                    16:d5:55:f8:b8:1f:97:4e
        X509v3 extensions:
            X509v3 Basic Constraints: 
            CA:FALSE
            X509v3 Subject Key Identifier: 
            5B:A2:98:73:03:D2:9A:30:55:23:37:95:10:9B:CA:28:64:32:68:5E
            X509v3 Authority Key Identifier: 
            keyid:CB:05:05:F0:3E:A1:4A:A1:CB:07:6F:86:8B:AF:EE:A5:E4:CA:62:BD
            DirName:/C=US/ST=Florida/L=Palm Beach Gardens/O=ZeroC, Inc./OU=Ice/CN=ZeroC Test CA 1/emailAddress=info@zeroc.com
            serial:00

            X509v3 Subject Alternative Name: 
            DNS:client, IP Address:127.0.0.1
    Signature Algorithm: md5WithRSAEncryption
        3c:a4:9f:89:8d:b4:39:47:56:a0:5c:9c:86:e5:a9:a6:6c:17:
        43:5d:a0:91:b2:ff:f8:bb:f6:ab:72:3d:c6:e0:64:b8:38:36:
        eb:e0:69:df:bb:ae:da:1b:1c:34:18:78:ed:76:14:a2:7c:8b:
        88:1c:21:15:af:0d:55:c3:28:3a:88:9e:89:af:aa:d8:24:05:
        ae:be:bc:b3:8d:9c:cd:66:71:1e:fe:54:f9:13:c3:63:df:50:
        b2:fb:a5:0f:59:50:1c:c6:da:f4:ab:92:26:38:27:6f:3e:93:
        c7:69:23:c3:22:71:9d:36:4e:a9:f1:e0:0f:cd:6b:2a:5b:7e:
        ed:73:30:2e:ad:62:a6:10:a5:1a:17:14:ea:c8:0f:f9:37:0c:
        1e:c7:07:1f:bc:e0:28:f0:09:9c:a1:ce:04:60:fa:cb:26:b7:
        8f:8a:85:ef:b2:a0:1e:64:05:e9:ca:85:14:73:2e:97:51:71:
        30:bd:02:c5:1d:dc:12:e0:02:d6:67:43:0e:9c:a0:20:1f:d9:
        c3:0c:6f:de:f8:2c:a6:76:68:56:52:cc:a4:07:79:41:b1:11:
        d0:46:64:86:cd:2e:3c:8e:5c:e5:23:ee:55:f4:6d:e0:66:75:
        98:25:62:d2:74:f4:67:74:68:84:4b:71:c2:1d:bc:3b:16:dd:
        72:ea:b4:c3
-----BEGIN CERTIFICATE-----
MIIFLjCCBBagAwIBAgIBATANBgkqhkiG9w0BAQQFADCBmTELMAkGA1UEBhMCVVMx
EDAOBgNVBAgTB0Zsb3JpZGExGzAZBgNVBAcTElBhbG0gQmVhY2ggR2FyZGVuczEU
MBIGA1UEChMLWmVyb0MsIEluYy4xDDAKBgNVBAsTA0ljZTEYMBYGA1UEAxMPWmVy
b0MgVGVzdCBDQSAxMR0wGwYJKoZIhvcNAQkBFg5pbmZvQHplcm9jLmNvbTAeFw0w
NjAzMzExNjU1MTlaFw0xNjAzMjgxNjU1MTlaMHMxCzAJBgNVBAYTAlVTMRAwDgYD
VQQIEwdGbG9yaWRhMRQwEgYDVQQKEwtaZXJvQywgSW5jLjEMMAoGA1UECxMDSWNl
MR0wGwYJKoZIhvcNAQkBFg5pbmZvQHplcm9jLmNvbTEPMA0GA1UEAxMGQ2xpZW50
MIIBtjCCASsGByqGSM44BAEwggEeAoGBALBV1rYDQKJN5oj4JsAWafU4C2iVUS/r
FTojKaaNX7mYsso6TQeH0yWdjoguMSRzl7Gw+9hmOzZwZmUuJXCvebq5Fl9/r9nC
T6XVbJL8Wpe47fVJQqFQgZCV5wuWRweakSUva8LN/U5tCSPzDlFFWZqmZ8TcTSJV
MGxg9IQVxEjfAhUAnFO/hOxJ+UJC0VE2iEH0JTflF9ECgYAjGnfT6rNMxIowPH66
vEahXXVif9ODZexAI0K1rpURW0JlF5gkcIav0MRQUrymHPY1aA/8JiQfwnB5TKA8
r5hdOpUAPtyEdGVyOcq+pZqWaZvW7Jh4f0uB8t2I6J6wLWS0VHtF/1cHNIl5ciJ1
Ajk+LGq6PWXN/tMW1VX4uB+XTgOBhAACgYAGHk0HLio73bDTXTCi0miMYXqSbron
qqr+efFGnJaBvQka5xzM2FLYBSQOR9uX7PHV0hR84UjslQprpRvG8Lsz3SUgXlao
CVEAcWIETzwnvgINHlfOWhVJe1f57BtP0zCtc4FkbK2oi2qqTeS/7P9gcMusynmN
XKtd2J55uJ7ht6OCARAwggEMMAkGA1UdEwQCMAAwHQYDVR0OBBYEFFuimHMD0pow
VSM3lRCbyihkMmheMIHGBgNVHSMEgb4wgbuAFMsFBfA+oUqhywdvhouv7qXkymK9
oYGfpIGcMIGZMQswCQYDVQQGEwJVUzEQMA4GA1UECBMHRmxvcmlkYTEbMBkGA1UE
BxMSUGFsbSBCZWFjaCBHYXJkZW5zMRQwEgYDVQQKEwtaZXJvQywgSW5jLjEMMAoG
A1UECxMDSWNlMRgwFgYDVQQDEw9aZXJvQyBUZXN0IENBIDExHTAbBgkqhkiG9w0B
CQEWDmluZm9AemVyb2MuY29tggEAMBcGA1UdEQQQMA6CBmNsaWVudIcEfwAAATAN
BgkqhkiG9w0BAQQFAAOCAQEAPKSfiY20OUdWoFychuWppmwXQ12gkbL/+Lv2q3I9
xuBkuDg26+Bp37uu2hscNBh47XYUonyLiBwhFa8NVcMoOoieia+q2CQFrr68s42c
zWZxHv5U+RPDY99QsvulD1lQHMba9KuSJjgnbz6Tx2kjwyJxnTZOqfHgD81rKlt+
7XMwLq1iphClGhcU6sgP+TcMHscHH7zgKPAJnKHOBGD6yya3j4qF77KgHmQF6cqF
FHMul1FxML0CxR3cEuAC1mdDDpygIB/Zwwxv3vgspnZoVlLMpAd5QbER0EZkhs0u
PI5c5SPuVfRt4GZ1mCVi0nT0Z3RohEtxwh28Oxbdcuq0ww==
-----END CERTIFICATE-----
