Certificate:
    Data:
        Version: 3 (0x2)
        Serial Number: 1 (0x1)
    Signature Algorithm: sha256WithRSAEncryption
        Issuer: C=US, ST=Florida, L=Palm Beach Gardens, O=ZeroC, Inc., OU=Ice, CN=ZeroC Test CA 1/emailAddress=info@zeroc.com
        Validity
            Not Before: Jul 11 17:17:36 2014 GMT
            Not After : Jul  8 17:17:36 2024 GMT
        Subject: C=US, ST=Florida, O=ZeroC, Inc., OU=Ice/emailAddress=info@zeroc.com, CN=Client
        Subject Public Key Info:
            Public Key Algorithm: dsaEncryption
                pub: 
                    3c:0a:93:23:46:4f:28:62:e2:88:0f:9c:c7:7a:1d:
                    bd:7a:3e:3f:6f:f7:ff:7b:21:0a:ea:bd:c1:bd:d7:
                    e4:86:6e:53:f8:4f:84:90:63:ad:71:f7:8a:0c:a8:
                    c5:e8:0b:ed:25:68:8e:f6:3b:3b:35:c2:0e:bb:e2:
                    28:dc:6b:32:0e:ce:9a:e1:d5:a7:c0:48:b3:47:96:
                    30:8b:5d:53:c8:1d:52:02:8f:3f:22:76:b4:e2:e6:
                    c3:c9:02:8c:77:c0:b4:35:e6:8b:eb:27:a8:3c:68:
                    43:8c:6a:42:7b:44:fb:e8:44:4d:5e:10:07:e2:da:
                    55:43:cb:a4:d0:cf:03:e5
                P:   
                    00:a0:1e:58:a8:4c:01:8a:79:b1:61:f9:ae:c9:a8:
                    90:26:9c:92:29:41:f6:50:92:a8:66:7c:52:80:57:
                    e5:88:45:66:8b:ef:fd:05:aa:af:53:21:72:70:5b:
                    2e:00:05:be:0d:6d:4b:a4:57:b8:97:25:db:19:dd:
                    75:48:50:ec:37:20:57:1a:68:dc:f9:f6:32:1f:47:
                    d2:8e:06:2c:b2:51:0d:fa:86:39:e8:32:0f:69:16:
                    94:5c:7c:c0:dc:44:9f:ff:6b:2e:0d:79:cc:6b:ff:
                    c1:8d:b5:f1:2d:ec:a5:a4:aa:15:e3:55:93:8e:9d:
                    69:61:40:a3:f4:b0:35:a9:71
                Q:   
                    00:b0:16:10:18:a5:47:c7:f8:6a:13:b0:e1:3b:08:
                    11:92:21:b0:30:e9
                G:   
                    0d:e8:2e:4f:bb:15:ce:43:9c:a3:d1:47:4d:78:e1:
                    43:b8:75:4b:8a:9d:87:d6:79:ee:31:02:26:48:21:
                    02:32:9f:9e:8a:27:52:b1:67:20:e0:ad:28:b4:fc:
                    2f:36:dd:f5:8b:65:81:58:41:af:d1:62:f0:d7:e1:
                    02:35:b1:e2:f2:dd:6e:a3:ea:2c:78:cb:dd:2a:4f:
                    e5:e2:eb:d6:02:36:bb:76:28:85:1f:83:d4:98:e9:
                    5f:57:fa:5f:71:82:37:be:44:31:b6:fe:43:9e:93:
                    91:2a:f9:12:c0:ed:c1:0d:c1:14:7b:db:53:52:fa:
                    7a:00:e3:07:07:2a:b3:fd
        X509v3 extensions:
            X509v3 Basic Constraints: 
                CA:FALSE
            X509v3 Subject Key Identifier: 
                9D:B6:A2:C0:C5:1F:A9:79:9E:6F:3D:D4:4F:07:A9:BC:3C:A2:19:6F
            X509v3 Authority Key Identifier: 
                keyid:D3:64:A2:78:6C:8C:1F:AD:F2:26:79:F8:1B:05:25:C5:8B:62:A9:F3
                DirName:/C=US/ST=Florida/L=Palm Beach Gardens/O=ZeroC, Inc./OU=Ice/CN=ZeroC Test CA 1/emailAddress=info@zeroc.com
                serial:F9:E6:F8:11:B0:B7:85:00

            X509v3 Subject Alternative Name: 
                DNS:client, IP Address:127.0.0.1
    Signature Algorithm: sha256WithRSAEncryption
         1b:ca:b4:aa:da:31:3e:66:73:78:e4:4b:91:2b:73:5e:b1:41:
         93:69:d9:e8:bb:4a:d0:3d:af:7e:92:ac:55:07:46:1c:4a:0a:
         98:be:5c:16:d5:8e:3b:ef:e0:fd:60:48:91:0d:02:83:e5:ad:
         40:7d:3e:d0:7c:f5:3a:7e:af:ee:4e:1e:7f:56:8e:45:4c:29:
         25:05:26:ba:64:84:5b:aa:5c:a8:45:75:99:3d:a1:fb:07:8f:
         1a:1d:ea:12:ca:bd:c2:1a:1a:6a:3e:18:b6:17:13:cf:6c:3b:
         6d:78:d9:45:25:e9:5f:aa:66:68:90:01:86:4b:a2:61:12:a9:
         3e:2f
-----BEGIN CERTIFICATE-----
MIIEtTCCBB6gAwIBAgIBATANBgkqhkiG9w0BAQsFADCBmTELMAkGA1UEBhMCVVMx
EDAOBgNVBAgTB0Zsb3JpZGExGzAZBgNVBAcTElBhbG0gQmVhY2ggR2FyZGVuczEU
MBIGA1UEChMLWmVyb0MsIEluYy4xDDAKBgNVBAsTA0ljZTEYMBYGA1UEAxMPWmVy
b0MgVGVzdCBDQSAxMR0wGwYJKoZIhvcNAQkBFg5pbmZvQHplcm9jLmNvbTAeFw0x
NDA3MTExNzE3MzZaFw0yNDA3MDgxNzE3MzZaMHMxCzAJBgNVBAYTAlVTMRAwDgYD
VQQIEwdGbG9yaWRhMRQwEgYDVQQKEwtaZXJvQywgSW5jLjEMMAoGA1UECxMDSWNl
MR0wGwYJKoZIhvcNAQkBFg5pbmZvQHplcm9jLmNvbTEPMA0GA1UEAxMGQ2xpZW50
MIIBtjCCASsGByqGSM44BAEwggEeAoGBAKAeWKhMAYp5sWH5rsmokCackilB9lCS
qGZ8UoBX5YhFZovv/QWqr1MhcnBbLgAFvg1tS6RXuJcl2xnddUhQ7DcgVxpo3Pn2
Mh9H0o4GLLJRDfqGOegyD2kWlFx8wNxEn/9rLg15zGv/wY218S3spaSqFeNVk46d
aWFAo/SwNalxAhUAsBYQGKVHx/hqE7DhOwgRkiGwMOkCgYAN6C5PuxXOQ5yj0UdN
eOFDuHVLip2H1nnuMQImSCECMp+eiidSsWcg4K0otPwvNt31i2WBWEGv0WLw1+EC
NbHi8t1uo+oseMvdKk/l4uvWAja7diiFH4PUmOlfV/pfcYI3vkQxtv5DnpORKvkS
wO3BDcEUe9tTUvp6AOMHByqz/QOBhAACgYA8CpMjRk8oYuKID5zHeh29ej4/b/f/
eyEK6r3Bvdfkhm5T+E+EkGOtcfeKDKjF6AvtJWiO9js7NcIOu+Io3GsyDs6a4dWn
wEizR5Ywi11TyB1SAo8/Ina04ubDyQKMd8C0NeaL6yeoPGhDjGpCe0T76ERNXhAH
4tpVQ8uk0M8D5aOCARgwggEUMAkGA1UdEwQCMAAwHQYDVR0OBBYEFJ22osDFH6l5
nm891E8Hqbw8ohlvMIHOBgNVHSMEgcYwgcOAFNNkonhsjB+t8iZ5+BsFJcWLYqnz
oYGfpIGcMIGZMQswCQYDVQQGEwJVUzEQMA4GA1UECBMHRmxvcmlkYTEbMBkGA1UE
BxMSUGFsbSBCZWFjaCBHYXJkZW5zMRQwEgYDVQQKEwtaZXJvQywgSW5jLjEMMAoG
A1UECxMDSWNlMRgwFgYDVQQDEw9aZXJvQyBUZXN0IENBIDExHTAbBgkqhkiG9w0B
CQEWDmluZm9AemVyb2MuY29tggkA+eb4EbC3hQAwFwYDVR0RBBAwDoIGY2xpZW50
hwR/AAABMA0GCSqGSIb3DQEBCwUAA4GBABvKtKraMT5mc3jkS5Erc16xQZNp2ei7
StA9r36SrFUHRhxKCpi+XBbVjjvv4P1gSJENAoPlrUB9PtB89Tp+r+5OHn9WjkVM
KSUFJrpkhFuqXKhFdZk9ofsHjxod6hLKvcIaGmo+GLYXE89sO2142UUl6V+qZmiQ
AYZLomESqT4v
-----END CERTIFICATE-----
