Certificate:
    Data:
        Version: 3 (0x2)
        Serial Number: 1 (0x1)
        Signature Algorithm: md5WithRSAEncryption
        Issuer: C=US, ST=Florida, L=Palm Beach Gardens, O=ZeroC, Inc., OU=Ice, CN=ZeroC Test CA 1/emailAddress=info@zeroc.com
        Validity
            Not Before: Sep 23 15:11:17 2009 GMT
            Not After : Sep 21 15:11:17 2019 GMT
        Subject: C=US, ST=Florida, O=ZeroC, Inc., OU=Ice/emailAddress=info@zeroc.com, CN=Client
        Subject Public Key Info:
            Public Key Algorithm: dsaEncryption
            DSA Public Key:
                pub: 
                    41:ee:e0:93:8d:ff:20:c3:64:e8:61:de:2f:6d:d2:
                    4a:62:82:a7:78:79:ee:1e:c9:0a:dc:43:1c:d4:f4:
                    01:dc:97:9d:0c:58:ff:23:60:1b:1d:6a:45:82:92:
                    03:e9:5a:9f:16:2f:33:1f:93:ca:ee:b4:68:cc:43:
                    51:d0:10:97:ce:0c:7f:fe:8b:55:98:91:6f:e0:57:
                    76:f9:4f:f8:8d:13:eb:d4:76:b2:56:a2:ca:ca:5f:
                    2c:f1:3f:af:29:e5:a6:52:39:ef:04:ac:04:79:3d:
                    0d:58:b7:8a:97:92:39:3c:4c:88:70:ca:17:ce:16:
                    0b:21:02:f6:88:68:c6:3c
                P:   
                    00:c0:13:c1:80:46:82:1a:25:59:3b:92:5a:fc:e3:
                    ac:fc:00:77:ab:81:14:56:da:6d:8a:ff:09:4d:04:
                    1d:a1:0d:dc:e1:0d:bb:33:97:40:01:85:dc:b1:c3:
                    2d:c7:d4:3e:15:3a:d5:e0:ba:af:42:fd:4c:2c:20:
                    9d:9b:00:68:e8:e9:e8:82:3e:e7:b0:29:b5:06:32:
                    10:cb:3b:98:cd:08:3e:a5:39:6a:b6:ca:39:d6:be:
                    9a:15:fb:57:33:4b:aa:4b:71:94:76:43:d5:30:5f:
                    75:3f:3e:a7:b5:c8:22:52:1b:99:cf:7c:7e:b5:1a:
                    14:0e:32:59:bf:0f:04:da:eb
                Q:   
                    00:ad:0d:44:74:80:1b:fc:2b:fc:77:e2:0c:78:c9:
                    fa:e3:44:2c:ba:8f
                G:   
                    00:83:aa:8e:cb:1e:ef:be:04:7c:1a:15:d8:40:33:
                    f6:5a:5c:7b:38:4f:ac:69:7c:6c:06:c1:13:28:b3:
                    eb:6c:33:4b:f1:11:bc:86:47:9a:8b:f3:0e:11:1f:
                    66:52:ce:c1:bf:bb:54:78:48:b9:f5:20:5e:6c:e4:
                    ba:69:d2:8f:78:f1:91:94:65:61:a7:22:26:37:18:
                    fc:c5:31:32:ac:e2:70:68:e8:1d:9e:79:42:09:f0:
                    36:f1:62:7f:4c:2c:ab:95:68:8a:e3:9f:f3:ca:14:
                    8c:8b:52:a1:d9:97:90:8d:3e:01:26:d2:43:61:7e:
                    dd:a8:c1:c9:25:63:a2:c7:1d
        X509v3 extensions:
            X509v3 Basic Constraints: 
                CA:FALSE
            X509v3 Subject Key Identifier: 
                9E:1B:28:AA:2F:E8:9F:EA:F6:90:6A:4E:32:24:12:5F:2E:F9:B3:15
            X509v3 Authority Key Identifier: 
                keyid:28:11:80:FD:88:57:63:47:6B:C0:BA:A6:CE:3A:C7:C4:7F:73:31:25
                DirName:/C=US/ST=Florida/L=Palm Beach Gardens/O=ZeroC, Inc./OU=Ice/CN=ZeroC Test CA 1/emailAddress=info@zeroc.com
                serial:DD:26:15:4D:4C:3F:B6:11

            X509v3 Subject Alternative Name: 
                DNS:client, IP Address:127.0.0.1
    Signature Algorithm: md5WithRSAEncryption
        43:6d:fe:dd:79:8c:3f:c7:bc:93:f5:11:cb:64:53:ff:e5:79:
        b5:ea:68:c8:5e:24:e0:75:ae:c8:2a:84:8d:2f:2f:92:fa:b2:
        99:b1:37:ff:03:1a:35:fb:3e:a9:bb:37:09:10:77:64:34:29:
        9b:b4:db:77:74:c7:e7:a7:3c:2d:29:e8:c6:4a:83:b0:68:07:
        91:f8:90:41:ea:99:e3:bb:dc:47:59:18:f2:10:e3:95:97:1a:
        52:6b:b3:4a:2c:ba:49:a5:d1:6a:df:1a:ce:00:d1:45:13:ff:
        52:6b:08:c5:25:3a:4a:9c:2a:15:b5:92:f0:c2:66:62:6e:7b:
        9e:6b
-----BEGIN CERTIFICATE-----
MIIEtjCCBB+gAwIBAgIBATANBgkqhkiG9w0BAQQFADCBmTELMAkGA1UEBhMCVVMx
EDAOBgNVBAgTB0Zsb3JpZGExGzAZBgNVBAcTElBhbG0gQmVhY2ggR2FyZGVuczEU
MBIGA1UEChMLWmVyb0MsIEluYy4xDDAKBgNVBAsTA0ljZTEYMBYGA1UEAxMPWmVy
b0MgVGVzdCBDQSAxMR0wGwYJKoZIhvcNAQkBFg5pbmZvQHplcm9jLmNvbTAeFw0w
OTA5MjMxNTExMTdaFw0xOTA5MjExNTExMTdaMHMxCzAJBgNVBAYTAlVTMRAwDgYD
VQQIEwdGbG9yaWRhMRQwEgYDVQQKEwtaZXJvQywgSW5jLjEMMAoGA1UECxMDSWNl
MR0wGwYJKoZIhvcNAQkBFg5pbmZvQHplcm9jLmNvbTEPMA0GA1UEAxMGQ2xpZW50
MIIBtzCCASwGByqGSM44BAEwggEfAoGBAMATwYBGgholWTuSWvzjrPwAd6uBFFba
bYr/CU0EHaEN3OENuzOXQAGF3LHDLcfUPhU61eC6r0L9TCwgnZsAaOjp6II+57Ap
tQYyEMs7mM0IPqU5arbKOda+mhX7VzNLqktxlHZD1TBfdT8+p7XIIlIbmc98frUa
FA4yWb8PBNrrAhUArQ1EdIAb/Cv8d+IMeMn640Qsuo8CgYEAg6qOyx7vvgR8GhXY
QDP2Wlx7OE+saXxsBsETKLPrbDNL8RG8hkeai/MOER9mUs7Bv7tUeEi59SBebOS6
adKPePGRlGVhpyImNxj8xTEyrOJwaOgdnnlCCfA28WJ/TCyrlWiK45/zyhSMi1Kh
2ZeQjT4BJtJDYX7dqMHJJWOixx0DgYQAAoGAQe7gk43/IMNk6GHeL23SSmKCp3h5
7h7JCtxDHNT0AdyXnQxY/yNgGx1qRYKSA+lanxYvMx+Tyu60aMxDUdAQl84Mf/6L
VZiRb+BXdvlP+I0T69R2slaiyspfLPE/rynlplI57wSsBHk9DVi3ipeSOTxMiHDK
F84WCyEC9ohoxjyjggEYMIIBFDAJBgNVHRMEAjAAMB0GA1UdDgQWBBSeGyiqL+if
6vaQak4yJBJfLvmzFTCBzgYDVR0jBIHGMIHDgBQoEYD9iFdjR2vAuqbOOsfEf3Mx
JaGBn6SBnDCBmTELMAkGA1UEBhMCVVMxEDAOBgNVBAgTB0Zsb3JpZGExGzAZBgNV
BAcTElBhbG0gQmVhY2ggR2FyZGVuczEUMBIGA1UEChMLWmVyb0MsIEluYy4xDDAK
BgNVBAsTA0ljZTEYMBYGA1UEAxMPWmVyb0MgVGVzdCBDQSAxMR0wGwYJKoZIhvcN
AQkBFg5pbmZvQHplcm9jLmNvbYIJAN0mFU1MP7YRMBcGA1UdEQQQMA6CBmNsaWVu
dIcEfwAAATANBgkqhkiG9w0BAQQFAAOBgQBDbf7deYw/x7yT9RHLZFP/5Xm16mjI
XiTgda7IKoSNLy+S+rKZsTf/Axo1+z6puzcJEHdkNCmbtNt3dMfnpzwtKejGSoOw
aAeR+JBB6pnju9xHWRjyEOOVlxpSa7NKLLpJpdFq3xrOANFFE/9SawjFJTpKnCoV
tZLwwmZibnueaw==
-----END CERTIFICATE-----
