Certificate:
    Data:
        Version: 3 (0x2)
        Serial Number: 1 (0x1)
        Signature Algorithm: md5WithRSAEncryption
        Issuer: C=US, ST=Florida, L=Palm Beach Gardens, O=ZeroC, Inc., OU=Ice, CN=ZeroC Test CA 1/emailAddress=info@zeroc.com
        Validity
            Not Before: Jul 14 18:25:32 2009 GMT
            Not After : Jul 12 18:25:32 2019 GMT
        Subject: C=US, ST=Florida, O=ZeroC, Inc., OU=Ice/emailAddress=info@zeroc.com, CN=Client
        Subject Public Key Info:
            Public Key Algorithm: dsaEncryption
            DSA Public Key:
                pub: 
                    58:04:eb:fb:69:74:80:db:a9:9c:11:98:f9:40:41:
                    f6:30:9e:a3:c6:ef:50:7f:93:81:95:9f:7b:55:14:
                    fb:58:32:b6:00:65:61:56:65:45:61:aa:b3:82:16:
                    b7:04:bb:39:aa:e7:f4:bf:f8:bb:73:92:85:ee:90:
                    73:65:a5:db:87:56:4e:96:5f:dc:2c:4f:42:9d:47:
                    3e:da:60:05:b8:c7:4d:29:17:0d:1f:be:90:0d:1f:
                    b4:96:c1:ab:09:c3:46:3f:7f:6c:26:79:7c:c2:ab:
                    c4:8b:b0:8f:f4:e7:6f:1a:9e:29:0a:53:62:43:41:
                    68:81:4f:43:a7:c0:6d:28
                P:   
                    00:98:2f:c0:ad:fb:b4:5a:58:b3:3e:92:75:91:07:
                    28:de:64:5c:2c:a9:e1:57:ef:a2:af:99:ba:9e:0c:
                    63:22:69:47:e7:e6:35:ae:06:bb:4e:b6:a2:fa:de:
                    9d:08:6f:d5:3a:e4:83:af:0b:a1:1e:9a:f3:f7:75:
                    b8:c3:b1:f5:59:57:6a:b4:3c:a7:12:21:61:13:ae:
                    f7:ad:9c:d3:5f:b0:ea:3d:6b:fa:cc:17:a5:5b:18:
                    55:14:55:d5:db:8d:8c:d6:d9:d0:fa:dc:0e:7a:43:
                    04:24:7c:23:3b:ae:04:f0:52:78:56:f4:c7:df:2e:
                    df:b2:f6:1d:8f:19:c8:d3:0d
                Q:   
                    00:c6:88:a8:a8:28:70:5e:71:02:c3:e7:d2:56:0e:
                    44:43:e0:58:f9:29
                G:   
                    37:05:fd:50:a9:66:26:ed:8f:a6:41:b7:5c:b2:99:
                    ac:9b:2f:a0:4b:83:d9:fd:94:54:d0:dd:75:f8:23:
                    32:80:40:9a:81:16:58:e7:e8:21:7e:52:b6:b4:92:
                    95:a9:cf:65:6c:7f:e3:d0:e1:74:46:5a:59:6a:8a:
                    dd:98:00:d9:dc:bc:73:13:f9:5d:7d:13:f2:17:d7:
                    11:88:49:d7:6f:6f:4a:d0:57:1e:54:f0:ad:4c:68:
                    92:2d:45:89:13:20:ae:c0:76:b0:8b:8a:83:2a:b0:
                    2b:fb:e2:58:a9:c9:03:6f:bf:88:30:85:94:f5:d0:
                    2c:c1:d6:1b:47:f4:63:4b
        X509v3 extensions:
            X509v3 Basic Constraints: 
                CA:FALSE
            X509v3 Subject Key Identifier: 
                56:9A:10:32:90:AF:1E:07:38:0F:A1:F1:16:FA:99:2B:C5:15:33:AD
            X509v3 Authority Key Identifier: 
                keyid:B1:F2:E4:5D:CF:98:23:64:C7:71:1A:F6:CA:8B:35:71:61:CF:F9:A4
                DirName:/C=US/ST=Florida/L=Palm Beach Gardens/O=ZeroC, Inc./OU=Ice/CN=ZeroC Test CA 1/emailAddress=info@zeroc.com
                serial:EE:56:13:BD:34:21:F7:82

            X509v3 Subject Alternative Name: 
                DNS:client, IP Address:127.0.0.1
    Signature Algorithm: md5WithRSAEncryption
        25:72:55:2f:63:73:d6:97:3d:9e:a4:94:c1:68:0a:b1:74:1f:
        09:71:f9:4e:74:11:82:7a:d4:a7:23:45:4e:c2:0d:10:ef:6e:
        de:a6:85:f6:84:fd:5e:d9:e7:27:5c:13:5f:f1:7f:ef:fb:67:
        2c:4e:e3:4c:33:22:6b:d0:51:0f:34:48:7b:0e:20:8c:2b:9b:
        fd:9d:9b:8e:c6:b6:4b:f4:d2:de:1b:51:3b:84:a4:ff:3f:d8:
        8f:28:12:ba:f0:96:bb:fb:9a:9a:7b:4b:7f:3f:e0:6c:b8:0e:
        32:12:8b:bb:6b:47:39:44:33:60:fe:74:32:ef:13:06:e4:f9:
        90:66
-----BEGIN CERTIFICATE-----
MIIEtTCCBB6gAwIBAgIBATANBgkqhkiG9w0BAQQFADCBmTELMAkGA1UEBhMCVVMx
EDAOBgNVBAgTB0Zsb3JpZGExGzAZBgNVBAcTElBhbG0gQmVhY2ggR2FyZGVuczEU
MBIGA1UEChMLWmVyb0MsIEluYy4xDDAKBgNVBAsTA0ljZTEYMBYGA1UEAxMPWmVy
b0MgVGVzdCBDQSAxMR0wGwYJKoZIhvcNAQkBFg5pbmZvQHplcm9jLmNvbTAeFw0w
OTA3MTQxODI1MzJaFw0xOTA3MTIxODI1MzJaMHMxCzAJBgNVBAYTAlVTMRAwDgYD
VQQIEwdGbG9yaWRhMRQwEgYDVQQKEwtaZXJvQywgSW5jLjEMMAoGA1UECxMDSWNl
MR0wGwYJKoZIhvcNAQkBFg5pbmZvQHplcm9jLmNvbTEPMA0GA1UEAxMGQ2xpZW50
MIIBtjCCASsGByqGSM44BAEwggEeAoGBAJgvwK37tFpYsz6SdZEHKN5kXCyp4Vfv
oq+Zup4MYyJpR+fmNa4Gu062ovrenQhv1Trkg68LoR6a8/d1uMOx9VlXarQ8pxIh
YROu962c01+w6j1r+swXpVsYVRRV1duNjNbZ0PrcDnpDBCR8IzuuBPBSeFb0x98u
37L2HY8ZyNMNAhUAxoioqChwXnECw+fSVg5EQ+BY+SkCgYA3Bf1QqWYm7Y+mQbdc
spmsmy+gS4PZ/ZRU0N11+CMygECagRZY5+ghflK2tJKVqc9lbH/j0OF0RlpZaord
mADZ3LxzE/ldfRPyF9cRiEnXb29K0FceVPCtTGiSLUWJEyCuwHawi4qDKrAr++JY
qckDb7+IMIWU9dAswdYbR/RjSwOBhAACgYBYBOv7aXSA26mcEZj5QEH2MJ6jxu9Q
f5OBlZ97VRT7WDK2AGVhVmVFYaqzgha3BLs5quf0v/i7c5KF7pBzZaXbh1ZOll/c
LE9CnUc+2mAFuMdNKRcNH76QDR+0lsGrCcNGP39sJnl8wqvEi7CP9OdvGp4pClNi
Q0FogU9Dp8BtKKOCARgwggEUMAkGA1UdEwQCMAAwHQYDVR0OBBYEFFaaEDKQrx4H
OA+h8Rb6mSvFFTOtMIHOBgNVHSMEgcYwgcOAFLHy5F3PmCNkx3Ea9sqLNXFhz/mk
oYGfpIGcMIGZMQswCQYDVQQGEwJVUzEQMA4GA1UECBMHRmxvcmlkYTEbMBkGA1UE
BxMSUGFsbSBCZWFjaCBHYXJkZW5zMRQwEgYDVQQKEwtaZXJvQywgSW5jLjEMMAoG
A1UECxMDSWNlMRgwFgYDVQQDEw9aZXJvQyBUZXN0IENBIDExHTAbBgkqhkiG9w0B
CQEWDmluZm9AemVyb2MuY29tggkA7lYTvTQh94IwFwYDVR0RBBAwDoIGY2xpZW50
hwR/AAABMA0GCSqGSIb3DQEBBAUAA4GBACVyVS9jc9aXPZ6klMFoCrF0Hwlx+U50
EYJ61KcjRU7CDRDvbt6mhfaE/V7Z5ydcE1/xf+/7ZyxO40wzImvQUQ80SHsOIIwr
m/2dm47Gtkv00t4bUTuEpP8/2I8oErrwlrv7mpp7S38/4Gy4DjISi7trRzlEM2D+
dDLvEwbk+ZBm
-----END CERTIFICATE-----
