Certificate:
    Data:
        Version: 3 (0x2)
        Serial Number: 1 (0x1)
    Signature Algorithm: sha256WithRSAEncryption
        Issuer: C=US, ST=Florida, L=Palm Beach Gardens, O=ZeroC, Inc., OU=Ice, CN=ZeroC Test CA 1/emailAddress=info@zeroc.com
        Validity
            Not Before: Aug 19 14:40:38 2014 GMT
            Not After : Aug 16 14:40:38 2024 GMT
        Subject: C=US, ST=Florida, O=ZeroC, Inc., OU=Ice/emailAddress=info@zeroc.com, CN=Client
        Subject Public Key Info:
            Public Key Algorithm: dsaEncryption
                pub: 
                    59:87:fd:95:4d:f0:35:26:2a:39:f6:de:56:30:0b:
                    ec:d5:53:7b:04:df:dc:41:a0:8c:7a:47:0c:36:1f:
                    51:ff:5a:86:c5:19:56:b8:d5:c1:a4:dc:b6:be:de:
                    d6:b4:87:a3:72:05:0f:f0:6e:76:07:51:86:f6:d7:
                    a9:7c:e8:42:fe:18:86:da:bc:c2:74:07:86:7e:58:
                    d2:1b:3b:d4:21:2b:77:58:71:27:cb:db:52:80:ae:
                    c9:2f:17:b4:eb:94:79:76:e6:f1:74:6b:e4:90:d7:
                    ad:2c:13:ed:48:1b:2a:0b:72:7f:01:77:b0:fa:f6:
                    f4:f0:66:99:f4:ff:20:62
                P:   
                    00:a6:a4:76:fa:34:e5:0e:e4:85:58:89:05:ae:6d:
                    34:b6:92:ee:cd:6e:94:f1:8e:2c:fc:04:f4:4d:ce:
                    40:09:3b:7f:d2:5e:09:96:e7:09:05:c6:41:4a:94:
                    13:92:df:4c:66:ec:bd:19:0e:b3:04:26:e5:cf:79:
                    d2:9d:b4:f4:da:14:32:cc:cd:e5:6e:cb:f8:c7:6f:
                    c0:e9:90:91:9a:0b:ec:82:ea:9b:90:b7:70:50:e7:
                    17:39:81:c0:0e:87:c3:46:f1:44:0a:8c:42:54:52:
                    89:37:36:a1:0e:21:61:e5:31:5c:5b:a3:24:77:70:
                    b2:13:18:ab:3c:5a:71:00:5f
                Q:   
                    00:9d:22:10:85:4e:88:3f:a9:64:d0:10:71:ad:7d:
                    7e:25:3a:38:23:55
                G:   
                    1c:ed:1c:03:2d:ab:02:5f:49:0a:35:b2:71:35:b8:
                    d0:b8:73:de:cb:3a:f5:99:20:61:6d:ae:a8:87:2b:
                    eb:85:f8:a5:6e:e5:c9:b6:31:83:0c:ad:03:0b:15:
                    23:93:90:be:84:8d:8f:ce:1d:30:00:64:36:80:e8:
                    3e:57:ad:ea:fc:d9:10:26:fc:51:c8:d8:7e:96:17:
                    7f:e8:04:24:ff:20:82:5c:b6:f3:90:47:a6:d6:49:
                    a0:96:51:64:62:8b:84:03:f8:2e:7d:0e:d0:60:ee:
                    fa:b6:22:10:07:e0:e0:15:45:82:2f:b3:5d:56:b6:
                    5f:f7:64:52:d4:01:c4:e6
        X509v3 extensions:
            X509v3 Basic Constraints: 
                CA:FALSE
            X509v3 Subject Key Identifier: 
                81:FA:7B:91:DB:47:03:86:E4:F0:7D:12:1D:BF:44:A4:19:6E:DB:15
            X509v3 Authority Key Identifier: 
                keyid:13:FA:72:67:FE:34:05:9A:C9:3E:61:D2:91:D6:BA:03:65:1B:8A:9A
                DirName:/C=US/ST=Florida/L=Palm Beach Gardens/O=ZeroC, Inc./OU=Ice/CN=ZeroC Test CA 1/emailAddress=info@zeroc.com
                serial:CE:8A:67:ED:96:6F:7E:B6

            X509v3 Subject Alternative Name: 
                DNS:client, IP Address:127.0.0.1
    Signature Algorithm: sha256WithRSAEncryption
         81:45:a3:9d:bf:36:0e:74:46:28:cc:3b:b3:72:78:8f:11:36:
         82:2a:cc:c9:44:fb:9a:3b:b2:c7:49:62:c6:98:3c:f6:71:94:
         c2:89:a4:fb:c1:ba:10:2d:d6:9a:be:3c:d3:29:3a:c0:b4:9b:
         71:01:91:19:95:36:04:7b:d4:8e:8e:59:86:cb:ae:2b:82:62:
         90:58:f6:0f:f9:b4:ba:a0:f4:f5:3e:2e:73:3c:8e:0a:b3:cc:
         8f:b2:c7:f5:57:4e:b5:73:59:a4:c2:ac:46:dd:92:b2:70:64:
         82:ba:78:95:47:f7:c1:08:cb:ac:70:70:2b:5c:ab:ab:1f:bd:
         44:63
-----BEGIN CERTIFICATE-----
MIIEtTCCBB6gAwIBAgIBATANBgkqhkiG9w0BAQsFADCBmTELMAkGA1UEBhMCVVMx
EDAOBgNVBAgTB0Zsb3JpZGExGzAZBgNVBAcTElBhbG0gQmVhY2ggR2FyZGVuczEU
MBIGA1UEChMLWmVyb0MsIEluYy4xDDAKBgNVBAsTA0ljZTEYMBYGA1UEAxMPWmVy
b0MgVGVzdCBDQSAxMR0wGwYJKoZIhvcNAQkBFg5pbmZvQHplcm9jLmNvbTAeFw0x
NDA4MTkxNDQwMzhaFw0yNDA4MTYxNDQwMzhaMHMxCzAJBgNVBAYTAlVTMRAwDgYD
VQQIEwdGbG9yaWRhMRQwEgYDVQQKEwtaZXJvQywgSW5jLjEMMAoGA1UECxMDSWNl
MR0wGwYJKoZIhvcNAQkBFg5pbmZvQHplcm9jLmNvbTEPMA0GA1UEAxMGQ2xpZW50
MIIBtjCCASsGByqGSM44BAEwggEeAoGBAKakdvo05Q7khViJBa5tNLaS7s1ulPGO
LPwE9E3OQAk7f9JeCZbnCQXGQUqUE5LfTGbsvRkOswQm5c950p209NoUMszN5W7L
+MdvwOmQkZoL7ILqm5C3cFDnFzmBwA6Hw0bxRAqMQlRSiTc2oQ4hYeUxXFujJHdw
shMYqzxacQBfAhUAnSIQhU6IP6lk0BBxrX1+JTo4I1UCgYAc7RwDLasCX0kKNbJx
NbjQuHPeyzr1mSBhba6ohyvrhfilbuXJtjGDDK0DCxUjk5C+hI2Pzh0wAGQ2gOg+
V63q/NkQJvxRyNh+lhd/6AQk/yCCXLbzkEem1kmgllFkYouEA/gufQ7QYO76tiIQ
B+DgFUWCL7NdVrZf92RS1AHE5gOBhAACgYBZh/2VTfA1Jio59t5WMAvs1VN7BN/c
QaCMekcMNh9R/1qGxRlWuNXBpNy2vt7WtIejcgUP8G52B1GG9tepfOhC/hiG2rzC
dAeGfljSGzvUISt3WHEny9tSgK7JLxe065R5dubxdGvkkNetLBPtSBsqC3J/AXew
+vb08GaZ9P8gYqOCARgwggEUMAkGA1UdEwQCMAAwHQYDVR0OBBYEFIH6e5HbRwOG
5PB9Eh2/RKQZbtsVMIHOBgNVHSMEgcYwgcOAFBP6cmf+NAWayT5h0pHWugNlG4qa
oYGfpIGcMIGZMQswCQYDVQQGEwJVUzEQMA4GA1UECBMHRmxvcmlkYTEbMBkGA1UE
BxMSUGFsbSBCZWFjaCBHYXJkZW5zMRQwEgYDVQQKEwtaZXJvQywgSW5jLjEMMAoG
A1UECxMDSWNlMRgwFgYDVQQDEw9aZXJvQyBUZXN0IENBIDExHTAbBgkqhkiG9w0B
CQEWDmluZm9AemVyb2MuY29tggkAzopn7ZZvfrYwFwYDVR0RBBAwDoIGY2xpZW50
hwR/AAABMA0GCSqGSIb3DQEBCwUAA4GBAIFFo52/Ng50RijMO7NyeI8RNoIqzMlE
+5o7ssdJYsaYPPZxlMKJpPvBuhAt1pq+PNMpOsC0m3EBkRmVNgR71I6OWYbLriuC
YpBY9g/5tLqg9PU+LnM8jgqzzI+yx/VXTrVzWaTCrEbdkrJwZIK6eJVH98EIy6xw
cCtcq6sfvURj
-----END CERTIFICATE-----
