Certificate:
    Data:
        Version: 3 (0x2)
        Serial Number: 1 (0x1)
    Signature Algorithm: sha256WithRSAEncryption
        Issuer: C=US, ST=Florida, L=Palm Beach Gardens, O=ZeroC, Inc., OU=Ice, CN=ZeroC Test CA 1/emailAddress=info@zeroc.com
        Validity
            Not Before: Aug 19 14:40:37 2014 GMT
            Not After : Dec 31 00:00:00 2005 GMT
        Subject: C=US, ST=Florida, O=ZeroC, Inc., OU=Ice/emailAddress=info@zeroc.com, CN=Client
        Subject Public Key Info:
            Public Key Algorithm: rsaEncryption
                Public-Key: (1024 bit)
                Modulus:
                    00:c7:68:a6:e6:f2:3f:80:53:9d:e5:be:8c:56:7d:
                    96:4b:bf:cd:c0:a9:ec:19:a6:f6:62:1e:33:a4:68:
                    36:57:dc:84:a6:1c:f0:63:60:bc:2e:30:ed:b3:71:
                    db:b5:9b:c7:b2:ab:95:fc:10:1a:a5:c2:19:1a:91:
                    06:5d:e9:be:d7:9a:3f:c2:f2:3b:ad:51:16:88:e5:
                    b7:dc:a3:2d:34:94:42:80:c2:66:84:6c:52:59:da:
                    13:a3:b3:16:e8:12:79:b2:05:ee:81:9b:a8:4c:fd:
                    5a:74:f6:77:8e:03:a0:ee:63:0d:a1:fa:b7:79:cb:
                    01:f2:9e:a0:78:7e:b2:8c:91
                Exponent: 65537 (0x10001)
        X509v3 extensions:
            X509v3 Basic Constraints: 
                CA:FALSE
            X509v3 Subject Key Identifier: 
                05:71:B7:04:AE:5F:95:4E:DD:C2:0B:F7:C6:58:91:3E:37:45:2B:BD
            X509v3 Authority Key Identifier: 
                keyid:13:FA:72:67:FE:34:05:9A:C9:3E:61:D2:91:D6:BA:03:65:1B:8A:9A
                DirName:/C=US/ST=Florida/L=Palm Beach Gardens/O=ZeroC, Inc./OU=Ice/CN=ZeroC Test CA 1/emailAddress=info@zeroc.com
                serial:CE:8A:67:ED:96:6F:7E:B6

            X509v3 Subject Alternative Name: 
                DNS:client, IP Address:127.0.0.1
    Signature Algorithm: sha256WithRSAEncryption
         06:39:cd:bb:61:99:4c:bd:af:26:77:cb:d1:7a:23:72:6d:bc:
         38:9d:06:65:2a:90:bf:69:76:2c:72:89:c4:e4:b2:b9:3b:5c:
         7c:4f:09:e3:38:76:cb:71:de:4f:48:59:fd:91:26:32:b1:4c:
         cb:17:d0:ea:91:76:1e:6c:7c:df:ea:ff:db:75:77:84:0f:4c:
         04:9e:00:45:09:c4:fd:b0:85:46:14:c3:ee:41:9d:87:86:57:
         34:3c:6b:78:3d:5a:3a:7e:77:8f:7f:5b:f7:d3:8d:e3:99:71:
         82:55:9e:c8:7a:eb:c8:46:15:a0:4d:96:61:bc:c4:eb:31:3c:
         a3:5a
-----BEGIN CERTIFICATE-----
MIIDnTCCAwagAwIBAgIBATANBgkqhkiG9w0BAQsFADCBmTELMAkGA1UEBhMCVVMx
EDAOBgNVBAgTB0Zsb3JpZGExGzAZBgNVBAcTElBhbG0gQmVhY2ggR2FyZGVuczEU
MBIGA1UEChMLWmVyb0MsIEluYy4xDDAKBgNVBAsTA0ljZTEYMBYGA1UEAxMPWmVy
b0MgVGVzdCBDQSAxMR0wGwYJKoZIhvcNAQkBFg5pbmZvQHplcm9jLmNvbTAeFw0x
NDA4MTkxNDQwMzdaFw0wNTEyMzEwMDAwMDBaMHMxCzAJBgNVBAYTAlVTMRAwDgYD
VQQIEwdGbG9yaWRhMRQwEgYDVQQKEwtaZXJvQywgSW5jLjEMMAoGA1UECxMDSWNl
MR0wGwYJKoZIhvcNAQkBFg5pbmZvQHplcm9jLmNvbTEPMA0GA1UEAxMGQ2xpZW50
MIGfMA0GCSqGSIb3DQEBAQUAA4GNADCBiQKBgQDHaKbm8j+AU53lvoxWfZZLv83A
qewZpvZiHjOkaDZX3ISmHPBjYLwuMO2zcdu1m8eyq5X8EBqlwhkakQZd6b7Xmj/C
8jutURaI5bfcoy00lEKAwmaEbFJZ2hOjsxboEnmyBe6Bm6hM/Vp09neOA6DuYw2h
+rd5ywHynqB4frKMkQIDAQABo4IBGDCCARQwCQYDVR0TBAIwADAdBgNVHQ4EFgQU
BXG3BK5flU7dwgv3xliRPjdFK70wgc4GA1UdIwSBxjCBw4AUE/pyZ/40BZrJPmHS
kda6A2UbipqhgZ+kgZwwgZkxCzAJBgNVBAYTAlVTMRAwDgYDVQQIEwdGbG9yaWRh
MRswGQYDVQQHExJQYWxtIEJlYWNoIEdhcmRlbnMxFDASBgNVBAoTC1plcm9DLCBJ
bmMuMQwwCgYDVQQLEwNJY2UxGDAWBgNVBAMTD1plcm9DIFRlc3QgQ0EgMTEdMBsG
CSqGSIb3DQEJARYOaW5mb0B6ZXJvYy5jb22CCQDOimftlm9+tjAXBgNVHREEEDAO
ggZjbGllbnSHBH8AAAEwDQYJKoZIhvcNAQELBQADgYEABjnNu2GZTL2vJnfL0Xoj
cm28OJ0GZSqQv2l2LHKJxOSyuTtcfE8J4zh2y3HeT0hZ/ZEmMrFMyxfQ6pF2Hmx8
3+r/23V3hA9MBJ4ARQnE/bCFRhTD7kGdh4ZXNDxreD1aOn53j39b99ON45lxglWe
yHrryEYVoE2WYbzE6zE8o1o=
-----END CERTIFICATE-----
