Certificate:
    Data:
        Version: 3 (0x2)
        Serial Number: 1 (0x1)
        Signature Algorithm: md5WithRSAEncryption
        Issuer: C=US, ST=Florida, L=Palm Beach Gardens, O=ZeroC, Inc., OU=Ice, CN=ZeroC Test CA 1/emailAddress=info@zeroc.com
        Validity
            Not Before: Jul 14 18:25:31 2009 GMT
            Not After : Jul 12 18:25:31 2019 GMT
        Subject: C=US, ST=Florida, O=ZeroC, Inc., OU=Ice/emailAddress=info@zeroc.com, CN=Client
        Subject Public Key Info:
            Public Key Algorithm: rsaEncryption
            RSA Public Key: (1024 bit)
                Modulus (1024 bit):
                    00:c0:28:d2:ad:6a:f8:f3:64:36:58:1d:06:0c:c8:
                    d7:b9:98:f9:d2:20:58:13:c1:c0:b2:3d:7e:b7:7b:
                    a0:ff:86:c1:1f:2b:c4:e1:70:bb:44:be:81:91:31:
                    f8:be:ca:73:55:10:87:00:c1:fb:35:fe:25:60:a9:
                    0d:ed:29:1f:84:1d:d2:74:77:65:d4:19:18:3e:26:
                    9a:a5:2a:47:d7:e0:ea:73:cc:9b:3e:39:45:d7:f5:
                    8c:8c:57:46:80:aa:b1:20:c9:fe:c0:e9:2d:91:4b:
                    e4:dd:b9:f0:b3:52:3d:ed:31:c7:9d:28:30:4a:7e:
                    61:19:15:6b:25:6d:e5:29:79
                Exponent: 65537 (0x10001)
        X509v3 extensions:
            X509v3 Basic Constraints: 
                CA:FALSE
            X509v3 Subject Key Identifier: 
                BD:D4:5D:F1:AB:0F:3F:49:3D:3E:C5:A0:13:96:E8:20:38:82:1F:63
            X509v3 Authority Key Identifier: 
                keyid:B1:F2:E4:5D:CF:98:23:64:C7:71:1A:F6:CA:8B:35:71:61:CF:F9:A4
                DirName:/C=US/ST=Florida/L=Palm Beach Gardens/O=ZeroC, Inc./OU=Ice/CN=ZeroC Test CA 1/emailAddress=info@zeroc.com
                serial:EE:56:13:BD:34:21:F7:82

            X509v3 Subject Alternative Name: 
                DNS:client, IP Address:127.0.0.1
    Signature Algorithm: md5WithRSAEncryption
        93:00:25:d8:7e:14:b8:c9:5b:21:17:67:15:61:b5:28:d3:db:
        d8:df:26:fd:a4:bf:fe:57:f3:66:69:83:bc:0f:c5:a6:ec:e2:
        b4:d6:7d:22:34:bc:42:bf:39:b2:ad:24:42:06:b2:56:d9:a3:
        e8:9d:ed:ed:57:a8:da:e4:b9:26:bd:9c:c1:08:cb:6e:d8:fe:
        90:02:0f:25:e9:0d:33:5a:83:93:68:da:1a:fa:db:70:cc:1d:
        08:e0:78:f6:68:5c:08:f0:ea:c7:74:5f:d4:39:73:d4:a4:e7:
        b8:33:a1:58:d8:cf:16:00:22:8f:3c:3b:e2:8e:52:f5:b3:e7:
        b1:11
-----BEGIN CERTIFICATE-----
MIIDnTCCAwagAwIBAgIBATANBgkqhkiG9w0BAQQFADCBmTELMAkGA1UEBhMCVVMx
EDAOBgNVBAgTB0Zsb3JpZGExGzAZBgNVBAcTElBhbG0gQmVhY2ggR2FyZGVuczEU
MBIGA1UEChMLWmVyb0MsIEluYy4xDDAKBgNVBAsTA0ljZTEYMBYGA1UEAxMPWmVy
b0MgVGVzdCBDQSAxMR0wGwYJKoZIhvcNAQkBFg5pbmZvQHplcm9jLmNvbTAeFw0w
OTA3MTQxODI1MzFaFw0xOTA3MTIxODI1MzFaMHMxCzAJBgNVBAYTAlVTMRAwDgYD
VQQIEwdGbG9yaWRhMRQwEgYDVQQKEwtaZXJvQywgSW5jLjEMMAoGA1UECxMDSWNl
MR0wGwYJKoZIhvcNAQkBFg5pbmZvQHplcm9jLmNvbTEPMA0GA1UEAxMGQ2xpZW50
MIGfMA0GCSqGSIb3DQEBAQUAA4GNADCBiQKBgQDAKNKtavjzZDZYHQYMyNe5mPnS
IFgTwcCyPX63e6D/hsEfK8ThcLtEvoGRMfi+ynNVEIcAwfs1/iVgqQ3tKR+EHdJ0
d2XUGRg+JpqlKkfX4OpzzJs+OUXX9YyMV0aAqrEgyf7A6S2RS+TdufCzUj3tMced
KDBKfmEZFWslbeUpeQIDAQABo4IBGDCCARQwCQYDVR0TBAIwADAdBgNVHQ4EFgQU
vdRd8asPP0k9PsWgE5boIDiCH2Mwgc4GA1UdIwSBxjCBw4AUsfLkXc+YI2THcRr2
yos1cWHP+aShgZ+kgZwwgZkxCzAJBgNVBAYTAlVTMRAwDgYDVQQIEwdGbG9yaWRh
MRswGQYDVQQHExJQYWxtIEJlYWNoIEdhcmRlbnMxFDASBgNVBAoTC1plcm9DLCBJ
bmMuMQwwCgYDVQQLEwNJY2UxGDAWBgNVBAMTD1plcm9DIFRlc3QgQ0EgMTEdMBsG
CSqGSIb3DQEJARYOaW5mb0B6ZXJvYy5jb22CCQDuVhO9NCH3gjAXBgNVHREEEDAO
ggZjbGllbnSHBH8AAAEwDQYJKoZIhvcNAQEEBQADgYEAkwAl2H4UuMlbIRdnFWG1
KNPb2N8m/aS//lfzZmmDvA/FpuzitNZ9IjS8Qr85sq0kQgayVtmj6J3t7Veo2uS5
Jr2cwQjLbtj+kAIPJekNM1qDk2jaGvrbcMwdCOB49mhcCPDqx3Rf1Dlz1KTnuDOh
WNjPFgAijzw74o5S9bPnsRE=
-----END CERTIFICATE-----
