Certificate:
    Data:
        Version: 3 (0x2)
        Serial Number: 1 (0x1)
    Signature Algorithm: sha256WithRSAEncryption
        Issuer: C=US, ST=Florida, L=Palm Beach Gardens, O=ZeroC, Inc., OU=Ice, CN=ZeroC Test CA 1/emailAddress=info@zeroc.com
        Validity
            Not Before: Jul 11 17:17:36 2014 GMT
            Not After : Dec 31 00:00:00 2005 GMT
        Subject: C=US, ST=Florida, O=ZeroC, Inc., OU=Ice/emailAddress=info@zeroc.com, CN=Client
        Subject Public Key Info:
            Public Key Algorithm: rsaEncryption
                Public-Key: (1024 bit)
                Modulus:
                    00:c5:af:fc:54:d7:40:73:c6:08:63:d2:75:8c:18:
                    28:e4:84:f2:94:40:3d:4f:5a:23:93:63:32:b6:c3:
                    1a:04:7d:0d:7c:3b:60:35:82:43:24:03:6e:2b:67:
                    49:97:31:aa:df:55:69:a9:29:c9:75:00:33:c5:cc:
                    0e:17:0c:9d:ba:fe:1d:af:3c:45:61:d4:46:5e:ec:
                    5b:89:4e:c9:f3:68:33:88:b3:95:8f:0b:5d:08:b7:
                    45:6d:81:a4:f8:00:a7:f2:2c:13:87:1c:e0:d9:41:
                    2a:57:c3:23:da:06:42:a2:f7:67:61:2b:58:10:3e:
                    4b:78:f4:40:1d:cd:92:d8:eb
                Exponent: 65537 (0x10001)
        X509v3 extensions:
            X509v3 Basic Constraints: 
                CA:FALSE
            X509v3 Subject Key Identifier: 
                F4:C8:94:EC:B9:E2:64:15:3D:8F:A6:70:BC:49:11:16:B1:0F:7C:54
            X509v3 Authority Key Identifier: 
                keyid:D3:64:A2:78:6C:8C:1F:AD:F2:26:79:F8:1B:05:25:C5:8B:62:A9:F3
                DirName:/C=US/ST=Florida/L=Palm Beach Gardens/O=ZeroC, Inc./OU=Ice/CN=ZeroC Test CA 1/emailAddress=info@zeroc.com
                serial:F9:E6:F8:11:B0:B7:85:00

            X509v3 Subject Alternative Name: 
                DNS:client, IP Address:127.0.0.1
    Signature Algorithm: sha256WithRSAEncryption
         06:58:45:a0:7f:77:29:e7:29:57:71:8a:ad:27:d9:2a:1c:31:
         9a:33:b1:0e:f2:47:7b:6e:a0:92:61:7c:77:f1:c5:98:65:3e:
         cc:fd:3a:aa:33:a2:4b:3c:76:d2:c9:94:da:86:48:39:bf:4e:
         70:ea:3a:66:01:5d:93:99:21:85:68:48:93:9c:41:9d:f8:72:
         d9:57:6e:f7:a1:cb:4d:c5:0d:bc:18:24:23:dc:1d:f8:69:7d:
         92:86:c7:38:46:bc:0c:6c:81:9b:db:7f:62:8d:d8:e1:9c:77:
         8a:58:00:8c:43:9c:3e:97:8f:3e:e8:6d:bb:b1:e3:83:17:26:
         38:e9
-----BEGIN CERTIFICATE-----
MIIDnTCCAwagAwIBAgIBATANBgkqhkiG9w0BAQsFADCBmTELMAkGA1UEBhMCVVMx
EDAOBgNVBAgTB0Zsb3JpZGExGzAZBgNVBAcTElBhbG0gQmVhY2ggR2FyZGVuczEU
MBIGA1UEChMLWmVyb0MsIEluYy4xDDAKBgNVBAsTA0ljZTEYMBYGA1UEAxMPWmVy
b0MgVGVzdCBDQSAxMR0wGwYJKoZIhvcNAQkBFg5pbmZvQHplcm9jLmNvbTAeFw0x
NDA3MTExNzE3MzZaFw0wNTEyMzEwMDAwMDBaMHMxCzAJBgNVBAYTAlVTMRAwDgYD
VQQIEwdGbG9yaWRhMRQwEgYDVQQKEwtaZXJvQywgSW5jLjEMMAoGA1UECxMDSWNl
MR0wGwYJKoZIhvcNAQkBFg5pbmZvQHplcm9jLmNvbTEPMA0GA1UEAxMGQ2xpZW50
MIGfMA0GCSqGSIb3DQEBAQUAA4GNADCBiQKBgQDFr/xU10Bzxghj0nWMGCjkhPKU
QD1PWiOTYzK2wxoEfQ18O2A1gkMkA24rZ0mXMarfVWmpKcl1ADPFzA4XDJ26/h2v
PEVh1EZe7FuJTsnzaDOIs5WPC10It0VtgaT4AKfyLBOHHODZQSpXwyPaBkKi92dh
K1gQPkt49EAdzZLY6wIDAQABo4IBGDCCARQwCQYDVR0TBAIwADAdBgNVHQ4EFgQU
9MiU7LniZBU9j6ZwvEkRFrEPfFQwgc4GA1UdIwSBxjCBw4AU02SieGyMH63yJnn4
GwUlxYtiqfOhgZ+kgZwwgZkxCzAJBgNVBAYTAlVTMRAwDgYDVQQIEwdGbG9yaWRh
MRswGQYDVQQHExJQYWxtIEJlYWNoIEdhcmRlbnMxFDASBgNVBAoTC1plcm9DLCBJ
bmMuMQwwCgYDVQQLEwNJY2UxGDAWBgNVBAMTD1plcm9DIFRlc3QgQ0EgMTEdMBsG
CSqGSIb3DQEJARYOaW5mb0B6ZXJvYy5jb22CCQD55vgRsLeFADAXBgNVHREEEDAO
ggZjbGllbnSHBH8AAAEwDQYJKoZIhvcNAQELBQADgYEABlhFoH93KecpV3GKrSfZ
KhwxmjOxDvJHe26gkmF8d/HFmGU+zP06qjOiSzx20smU2oZIOb9OcOo6ZgFdk5kh
hWhIk5xBnfhy2Vdu96HLTcUNvBgkI9wd+Gl9kobHOEa8DGyBm9t/Yo3Y4Zx3ilgA
jEOcPpePPuhtu7HjgxcmOOk=
-----END CERTIFICATE-----
