Certificate:
    Data:
        Version: 3 (0x2)
        Serial Number: 1 (0x1)
        Signature Algorithm: md5WithRSAEncryption
        Issuer: C=US, ST=Florida, L=Palm Beach Gardens, O=ZeroC, Inc., OU=Ice, CN=ZeroC Test CA 2/emailAddress=info@zeroc.com
        Validity
            Not Before: Jul 14 18:25:32 2009 GMT
            Not After : Jul 12 18:25:32 2019 GMT
        Subject: C=US, ST=Florida, O=ZeroC, Inc., OU=Ice/emailAddress=info@zeroc.com, CN=Client
        Subject Public Key Info:
            Public Key Algorithm: rsaEncryption
            RSA Public Key: (1024 bit)
                Modulus (1024 bit):
                    00:ac:6b:4c:ff:46:73:65:9c:72:ba:3b:b6:ce:cf:
                    50:a5:0e:51:6c:f9:89:08:61:b4:da:c8:54:dd:bc:
                    bb:a7:cc:1b:15:22:66:98:bc:ee:9d:03:e8:ae:96:
                    37:65:ba:f7:bc:01:d2:68:fd:cd:8d:4e:98:06:a6:
                    57:a4:18:6e:e4:ef:c7:95:6f:78:0a:57:3b:49:bf:
                    94:de:b6:52:b4:3a:75:49:a3:0e:0e:be:b7:0a:31:
                    cd:bc:64:43:9c:a9:4e:90:a0:67:cd:b8:e5:26:50:
                    17:e2:5e:87:4f:1f:32:76:9f:ed:16:c0:79:0b:6e:
                    32:8d:dd:6e:2e:6c:f6:b6:2d
                Exponent: 65537 (0x10001)
        X509v3 extensions:
            X509v3 Basic Constraints: 
                CA:FALSE
            X509v3 Subject Key Identifier: 
                38:A9:43:97:23:C0:A9:6A:1A:25:9F:34:79:D8:14:59:02:89:31:B5
            X509v3 Authority Key Identifier: 
                keyid:C3:83:6D:26:8D:92:DA:C4:85:2A:FB:EF:BA:B8:44:16:B7:D9:2D:87
                DirName:/C=US/ST=Florida/L=Palm Beach Gardens/O=ZeroC, Inc./OU=Ice/CN=ZeroC Test CA 2/emailAddress=info@zeroc.com
                serial:8B:D9:B4:FB:C3:B4:9A:00

            X509v3 Subject Alternative Name: 
                DNS:client, IP Address:127.0.0.1
    Signature Algorithm: md5WithRSAEncryption
        60:49:81:0c:5a:e4:f4:dd:e7:9b:c5:dc:30:bf:01:6e:d3:3d:
        39:9a:d2:ad:0f:2a:1e:61:f7:ec:12:e3:dd:b1:cb:8c:4b:bd:
        f4:91:ff:ff:59:b7:49:7d:63:c1:1b:2a:18:10:d1:c1:2d:8d:
        32:f1:79:a5:1a:b4:6c:5a:07:4d:9c:8d:9a:d6:00:ec:c5:d8:
        d3:d7:27:dc:95:c4:56:6b:6f:c1:bc:55:a4:30:12:19:16:8f:
        3a:2d:4f:6f:d3:00:1e:58:d8:4c:2f:1c:1c:ae:97:04:f1:bb:
        77:74:37:1f:5a:fb:71:89:04:02:5b:21:16:5e:fe:b2:6a:f1:
        d8:05
-----BEGIN CERTIFICATE-----
MIIDnTCCAwagAwIBAgIBATANBgkqhkiG9w0BAQQFADCBmTELMAkGA1UEBhMCVVMx
EDAOBgNVBAgTB0Zsb3JpZGExGzAZBgNVBAcTElBhbG0gQmVhY2ggR2FyZGVuczEU
MBIGA1UEChMLWmVyb0MsIEluYy4xDDAKBgNVBAsTA0ljZTEYMBYGA1UEAxMPWmVy
b0MgVGVzdCBDQSAyMR0wGwYJKoZIhvcNAQkBFg5pbmZvQHplcm9jLmNvbTAeFw0w
OTA3MTQxODI1MzJaFw0xOTA3MTIxODI1MzJaMHMxCzAJBgNVBAYTAlVTMRAwDgYD
VQQIEwdGbG9yaWRhMRQwEgYDVQQKEwtaZXJvQywgSW5jLjEMMAoGA1UECxMDSWNl
MR0wGwYJKoZIhvcNAQkBFg5pbmZvQHplcm9jLmNvbTEPMA0GA1UEAxMGQ2xpZW50
MIGfMA0GCSqGSIb3DQEBAQUAA4GNADCBiQKBgQCsa0z/RnNlnHK6O7bOz1ClDlFs
+YkIYbTayFTdvLunzBsVImaYvO6dA+iuljdluve8AdJo/c2NTpgGplekGG7k78eV
b3gKVztJv5TetlK0OnVJow4OvrcKMc28ZEOcqU6QoGfNuOUmUBfiXodPHzJ2n+0W
wHkLbjKN3W4ubPa2LQIDAQABo4IBGDCCARQwCQYDVR0TBAIwADAdBgNVHQ4EFgQU
OKlDlyPAqWoaJZ80edgUWQKJMbUwgc4GA1UdIwSBxjCBw4AUw4NtJo2S2sSFKvvv
urhEFrfZLYehgZ+kgZwwgZkxCzAJBgNVBAYTAlVTMRAwDgYDVQQIEwdGbG9yaWRh
MRswGQYDVQQHExJQYWxtIEJlYWNoIEdhcmRlbnMxFDASBgNVBAoTC1plcm9DLCBJ
bmMuMQwwCgYDVQQLEwNJY2UxGDAWBgNVBAMTD1plcm9DIFRlc3QgQ0EgMjEdMBsG
CSqGSIb3DQEJARYOaW5mb0B6ZXJvYy5jb22CCQCL2bT7w7SaADAXBgNVHREEEDAO
ggZjbGllbnSHBH8AAAEwDQYJKoZIhvcNAQEEBQADgYEAYEmBDFrk9N3nm8XcML8B
btM9OZrSrQ8qHmH37BLj3bHLjEu99JH//1m3SX1jwRsqGBDRwS2NMvF5pRq0bFoH
TZyNmtYA7MXY09cn3JXEVmtvwbxVpDASGRaPOi1Pb9MAHljYTC8cHK6XBPG7d3Q3
H1r7cYkEAlshFl7+smrx2AU=
-----END CERTIFICATE-----
