Certificate:
    Data:
        Version: 3 (0x2)
        Serial Number: 1 (0x1)
    Signature Algorithm: sha256WithRSAEncryption
        Issuer: C=US, ST=Florida, L=Palm Beach Gardens, O=ZeroC, Inc., OU=Ice, CN=ZeroC Test CA 1/emailAddress=info@zeroc.com
        Validity
            Not Before: Aug 19 14:40:37 2014 GMT
            Not After : Aug 16 14:40:37 2024 GMT
        Subject: C=US, ST=Florida, O=ZeroC, Inc., OU=Ice/emailAddress=info@zeroc.com, CN=Client
        Subject Public Key Info:
            Public Key Algorithm: rsaEncryption
                Public-Key: (1024 bit)
                Modulus:
                    00:af:a2:1d:e1:af:c9:a0:4b:2a:56:42:73:4b:40:
                    2c:00:5c:f3:3e:67:6e:be:44:b6:1b:43:7e:3e:6b:
                    44:a5:3f:f5:10:e9:9b:b5:3b:e0:56:c2:a1:70:a8:
                    a6:2d:c1:51:e1:af:f4:09:73:7d:6c:21:56:0c:fc:
                    1d:42:a5:1b:eb:1d:a9:36:ad:ad:3c:67:64:11:6a:
                    2d:5c:f9:05:cc:61:56:2f:80:75:a7:7c:9b:d7:2a:
                    c1:0e:30:79:a3:19:05:3b:28:57:ab:01:10:10:df:
                    8a:63:fa:41:20:e6:f9:84:d3:45:88:6d:8a:e3:c3:
                    77:bf:5b:51:14:9a:1e:b8:6f
                Exponent: 65537 (0x10001)
        X509v3 extensions:
            X509v3 Basic Constraints: 
                CA:FALSE
            X509v3 Subject Key Identifier: 
                B9:FA:9A:3B:C9:83:14:58:36:E1:C9:4D:B3:B7:E3:F8:9E:80:83:6C
            X509v3 Authority Key Identifier: 
                keyid:13:FA:72:67:FE:34:05:9A:C9:3E:61:D2:91:D6:BA:03:65:1B:8A:9A
                DirName:/C=US/ST=Florida/L=Palm Beach Gardens/O=ZeroC, Inc./OU=Ice/CN=ZeroC Test CA 1/emailAddress=info@zeroc.com
                serial:CE:8A:67:ED:96:6F:7E:B6

            X509v3 Subject Alternative Name: 
                DNS:client, IP Address:127.0.0.1
    Signature Algorithm: sha256WithRSAEncryption
         a9:1e:1f:82:a3:8e:4c:2c:db:f9:ba:52:51:e2:d1:44:62:15:
         f8:17:0d:c4:d3:51:40:2f:b1:c5:03:52:e3:c6:22:b9:eb:38:
         79:20:d3:9a:15:35:b6:ea:15:08:ac:30:5e:43:9c:8b:54:07:
         e5:30:29:c1:94:9e:82:9a:64:2a:d4:4e:aa:9d:4b:0f:74:71:
         eb:fd:59:1f:b3:a1:7a:68:7f:2c:22:fc:7a:74:73:ec:86:34:
         91:ad:40:f8:be:5d:dc:ca:5c:a7:f3:a2:d7:85:b7:e7:9e:20:
         83:39:2b:43:3a:67:e0:96:3d:e5:d7:46:0c:63:ba:4e:99:74:
         e4:74
-----BEGIN CERTIFICATE-----
MIIDnTCCAwagAwIBAgIBATANBgkqhkiG9w0BAQsFADCBmTELMAkGA1UEBhMCVVMx
EDAOBgNVBAgTB0Zsb3JpZGExGzAZBgNVBAcTElBhbG0gQmVhY2ggR2FyZGVuczEU
MBIGA1UEChMLWmVyb0MsIEluYy4xDDAKBgNVBAsTA0ljZTEYMBYGA1UEAxMPWmVy
b0MgVGVzdCBDQSAxMR0wGwYJKoZIhvcNAQkBFg5pbmZvQHplcm9jLmNvbTAeFw0x
NDA4MTkxNDQwMzdaFw0yNDA4MTYxNDQwMzdaMHMxCzAJBgNVBAYTAlVTMRAwDgYD
VQQIEwdGbG9yaWRhMRQwEgYDVQQKEwtaZXJvQywgSW5jLjEMMAoGA1UECxMDSWNl
MR0wGwYJKoZIhvcNAQkBFg5pbmZvQHplcm9jLmNvbTEPMA0GA1UEAxMGQ2xpZW50
MIGfMA0GCSqGSIb3DQEBAQUAA4GNADCBiQKBgQCvoh3hr8mgSypWQnNLQCwAXPM+
Z26+RLYbQ34+a0SlP/UQ6Zu1O+BWwqFwqKYtwVHhr/QJc31sIVYM/B1CpRvrHak2
ra08Z2QRai1c+QXMYVYvgHWnfJvXKsEOMHmjGQU7KFerARAQ34pj+kEg5vmE00WI
bYrjw3e/W1EUmh64bwIDAQABo4IBGDCCARQwCQYDVR0TBAIwADAdBgNVHQ4EFgQU
ufqaO8mDFFg24clNs7fj+J6Ag2wwgc4GA1UdIwSBxjCBw4AUE/pyZ/40BZrJPmHS
kda6A2UbipqhgZ+kgZwwgZkxCzAJBgNVBAYTAlVTMRAwDgYDVQQIEwdGbG9yaWRh
MRswGQYDVQQHExJQYWxtIEJlYWNoIEdhcmRlbnMxFDASBgNVBAoTC1plcm9DLCBJ
bmMuMQwwCgYDVQQLEwNJY2UxGDAWBgNVBAMTD1plcm9DIFRlc3QgQ0EgMTEdMBsG
CSqGSIb3DQEJARYOaW5mb0B6ZXJvYy5jb22CCQDOimftlm9+tjAXBgNVHREEEDAO
ggZjbGllbnSHBH8AAAEwDQYJKoZIhvcNAQELBQADgYEAqR4fgqOOTCzb+bpSUeLR
RGIV+BcNxNNRQC+xxQNS48Yiues4eSDTmhU1tuoVCKwwXkOci1QH5TApwZSegppk
KtROqp1LD3Rx6/1ZH7Ohemh/LCL8enRz7IY0ka1A+L5d3Mpcp/Oi14W3554ggzkr
Qzpn4JY95ddGDGO6Tpl05HQ=
-----END CERTIFICATE-----
