Certificate:
    Data:
        Version: 3 (0x2)
        Serial Number: 1 (0x1)
        Signature Algorithm: md5WithRSAEncryption
        Issuer: C=US, ST=Florida, L=Palm Beach Gardens, O=ZeroC, Inc., OU=Ice, CN=ZeroC Test CA/emailAddress=info@zeroc.com
        Validity
            Not Before: Mar 31 16:19:55 2006 GMT
            Not After : Mar 28 16:19:55 2016 GMT
        Subject: C=US, ST=Florida, O=ZeroC, Inc., OU=Ice/emailAddress=info@zeroc.com, CN=Client
        Subject Public Key Info:
            Public Key Algorithm: rsaEncryption
            RSA Public Key: (1024 bit)
                Modulus (1024 bit):
                    00:ce:f0:cf:15:fa:34:2f:4e:90:e2:8d:02:84:13:
                    6d:4f:1c:e6:f1:93:ae:12:89:81:75:2f:ec:31:27:
                    60:59:c5:18:01:86:54:cc:72:50:3a:a3:30:87:9b:
                    92:29:dc:a7:e6:62:55:63:8d:6e:eb:9b:a9:b6:06:
                    3e:1e:37:c2:cd:d5:51:53:7a:bc:fc:93:3b:63:08:
                    9b:7b:e3:1b:6d:2f:a0:b4:64:e6:a9:2f:d5:fe:aa:
                    ac:c7:ea:3a:b4:5f:46:89:ea:45:79:a0:78:ea:52:
                    a3:a4:34:b1:2e:3b:f5:20:2a:32:1f:e9:01:c0:b3:
                    49:47:50:29:56:d4:e9:aa:13
                Exponent: 65537 (0x10001)
        X509v3 extensions:
            X509v3 Basic Constraints: 
            CA:FALSE
            X509v3 Subject Key Identifier: 
            8F:E0:11:53:95:FE:6E:AC:06:F1:97:C1:4B:A7:85:73:C7:62:04:7E
            X509v3 Authority Key Identifier: 
            keyid:5A:A7:44:4D:31:6D:4F:2F:BE:07:F4:C6:59:06:53:08:D7:0E:46:CE
            DirName:/C=US/ST=Florida/L=Palm Beach Gardens/O=ZeroC, Inc./OU=Ice/CN=ZeroC Test CA/emailAddress=info@zeroc.com
            serial:00

            X509v3 Subject Alternative Name: 
            DNS:client, IP Address:127.0.0.1
    Signature Algorithm: md5WithRSAEncryption
        2d:70:b5:14:41:a3:4a:b1:09:81:67:51:17:3f:2f:76:4e:63:
        f6:77:b9:93:31:ee:77:2a:d6:96:5e:b4:7f:2b:0b:d5:b5:f2:
        00:ff:40:ba:dd:0a:b0:78:11:d9:32:f9:c7:aa:92:9e:6d:8a:
        e9:90:31:f4:8c:30:56:fd:f3:1e:61:2b:93:08:19:7f:38:bc:
        c5:4b:60:64:97:34:13:70:91:a1:68:1c:6f:7f:9b:b9:a8:b9:
        a1:a7:37:ca:f8:23:b2:75:de:36:47:6d:99:d7:f6:e3:2a:0d:
        bb:a2:82:86:bd:42:56:d3:11:46:9b:2f:ac:d1:69:d1:05:52:
        3d:d7:e7:bd:44:4d:57:fc:3e:bf:33:d9:e4:0f:02:ba:f6:4a:
        b1:b9:de:18:88:6c:3b:6b:77:cc:d1:90:f0:ec:c8:4b:0f:20:
        ac:38:a9:5d:20:56:8b:0b:9f:9d:cb:7a:0f:37:e6:99:fa:c1:
        f3:61:6e:30:d4:2b:f7:79:88:f5:2a:42:2b:c5:fe:a0:23:63:
        37:fc:41:c9:f7:01:0a:b7:1f:05:02:fb:8e:a9:90:4c:24:2e:
        44:67:52:10:a3:a8:6b:ad:50:fc:c1:c3:b1:3b:57:40:cb:23:
        ac:ac:d6:b1:4d:00:63:2f:f7:9d:91:ba:e1:56:41:ba:44:0b:
        66:16:19:d0
-----BEGIN CERTIFICATE-----
MIIEEjCCAvqgAwIBAgIBATANBgkqhkiG9w0BAQQFADCBlzELMAkGA1UEBhMCVVMx
EDAOBgNVBAgTB0Zsb3JpZGExGzAZBgNVBAcTElBhbG0gQmVhY2ggR2FyZGVuczEU
MBIGA1UEChMLWmVyb0MsIEluYy4xDDAKBgNVBAsTA0ljZTEWMBQGA1UEAxMNWmVy
b0MgVGVzdCBDQTEdMBsGCSqGSIb3DQEJARYOaW5mb0B6ZXJvYy5jb20wHhcNMDYw
MzMxMTYxOTU1WhcNMTYwMzI4MTYxOTU1WjBzMQswCQYDVQQGEwJVUzEQMA4GA1UE
CBMHRmxvcmlkYTEUMBIGA1UEChMLWmVyb0MsIEluYy4xDDAKBgNVBAsTA0ljZTEd
MBsGCSqGSIb3DQEJARYOaW5mb0B6ZXJvYy5jb20xDzANBgNVBAMTBkNsaWVudDCB
nzANBgkqhkiG9w0BAQEFAAOBjQAwgYkCgYEAzvDPFfo0L06Q4o0ChBNtTxzm8ZOu
EomBdS/sMSdgWcUYAYZUzHJQOqMwh5uSKdyn5mJVY41u65uptgY+HjfCzdVRU3q8
/JM7Ywibe+MbbS+gtGTmqS/V/qqsx+o6tF9GiepFeaB46lKjpDSxLjv1ICoyH+kB
wLNJR1ApVtTpqhMCAwEAAaOCAQ4wggEKMAkGA1UdEwQCMAAwHQYDVR0OBBYEFI/g
EVOV/m6sBvGXwUunhXPHYgR+MIHEBgNVHSMEgbwwgbmAFFqnRE0xbU8vvgf0xlkG
UwjXDkbOoYGdpIGaMIGXMQswCQYDVQQGEwJVUzEQMA4GA1UECBMHRmxvcmlkYTEb
MBkGA1UEBxMSUGFsbSBCZWFjaCBHYXJkZW5zMRQwEgYDVQQKEwtaZXJvQywgSW5j
LjEMMAoGA1UECxMDSWNlMRYwFAYDVQQDEw1aZXJvQyBUZXN0IENBMR0wGwYJKoZI
hvcNAQkBFg5pbmZvQHplcm9jLmNvbYIBADAXBgNVHREEEDAOggZjbGllbnSHBH8A
AAEwDQYJKoZIhvcNAQEEBQADggEBAC1wtRRBo0qxCYFnURc/L3ZOY/Z3uZMx7ncq
1pZetH8rC9W18gD/QLrdCrB4Edky+ceqkp5tiumQMfSMMFb98x5hK5MIGX84vMVL
YGSXNBNwkaFoHG9/m7mouaGnN8r4I7J13jZHbZnX9uMqDbuigoa9QlbTEUabL6zR
adEFUj3X571ETVf8Pr8z2eQPArr2SrG53hiIbDtrd8zRkPDsyEsPIKw4qV0gVosL
n53Leg835pn6wfNhbjDUK/d5iPUqQivF/qAjYzf8Qcn3AQq3HwUC+46pkEwkLkRn
UhCjqGutUPzBw7E7V0DLI6ys1rFNAGMv952RuuFWQbpEC2YWGdA=
-----END CERTIFICATE-----
