Certificate:
    Data:
        Version: 3 (0x2)
        Serial Number: 1 (0x1)
        Signature Algorithm: md5WithRSAEncryption
        Issuer: C=US, ST=Florida, L=Palm Beach Gardens, O=ZeroC, Inc., OU=Ice, CN=ZeroC Test CA 1/emailAddress=info@zeroc.com
        Validity
            Not Before: Mar 31 16:55:17 2006 GMT
            Not After : Dec 31 00:00:00 2005 GMT
        Subject: C=US, ST=Florida, O=ZeroC, Inc., OU=Ice/emailAddress=info@zeroc.com, CN=Client
        Subject Public Key Info:
            Public Key Algorithm: rsaEncryption
            RSA Public Key: (1024 bit)
                Modulus (1024 bit):
                    00:f5:9c:2e:0c:d7:40:2c:15:10:b0:78:c5:9f:c5:
                    f7:bf:50:7f:71:d2:d7:56:45:f0:e5:33:51:d9:56:
                    ae:52:20:36:45:c0:08:5f:00:36:e5:37:27:e5:2f:
                    0d:45:80:16:17:47:9b:d5:7d:12:9a:b4:84:67:b2:
                    93:ab:6d:99:d3:6b:65:e7:a4:f0:7f:fd:75:e9:87:
                    f7:1f:23:a9:46:22:8a:aa:e2:a9:0f:22:d6:ab:ed:
                    e2:91:bb:dd:0c:67:a3:f8:02:36:65:d1:7e:06:cd:
                    d1:1c:31:81:91:56:71:40:82:26:f7:1b:5d:5c:ae:
                    72:c1:e3:77:14:da:7a:73:63
                Exponent: 65537 (0x10001)
        X509v3 extensions:
            X509v3 Basic Constraints: 
            CA:FALSE
            X509v3 Subject Key Identifier: 
            FE:37:31:50:48:82:29:A2:AB:AF:4D:C3:1D:58:61:F3:20:CB:30:CA
            X509v3 Authority Key Identifier: 
            keyid:CB:05:05:F0:3E:A1:4A:A1:CB:07:6F:86:8B:AF:EE:A5:E4:CA:62:BD
            DirName:/C=US/ST=Florida/L=Palm Beach Gardens/O=ZeroC, Inc./OU=Ice/CN=ZeroC Test CA 1/emailAddress=info@zeroc.com
            serial:00

            X509v3 Subject Alternative Name: 
            DNS:client, IP Address:127.0.0.1
    Signature Algorithm: md5WithRSAEncryption
        5a:cb:e5:0e:46:b1:92:c2:80:7b:f5:db:98:0d:48:ab:f6:0c:
        27:b3:40:b9:f2:e7:ae:a4:7e:a9:f1:cb:cc:7d:88:da:7f:f0:
        9d:2b:8f:59:cd:c6:f5:17:c6:65:7f:4c:27:fb:e0:c1:08:02:
        ba:a4:2f:7a:bc:0a:da:50:2f:7d:eb:86:8b:45:8d:f0:d5:32:
        0d:51:a6:01:a8:36:68:b0:eb:f8:dc:1b:ef:81:b0:c4:f9:42:
        21:ea:6e:51:a0:e5:96:67:fb:30:73:8f:3f:15:aa:00:10:84:
        e1:e2:82:85:50:84:66:9f:f4:30:f9:84:5e:68:97:71:fb:6d:
        17:4e:15:0f:09:9a:dc:d1:84:99:20:65:53:3f:69:27:c8:6a:
        a1:a9:2a:40:1a:d6:ce:46:79:80:46:69:ca:26:28:b0:80:42:
        92:aa:be:bf:8a:1a:69:e2:24:90:e8:20:4b:b9:d1:04:fd:dd:
        14:0e:8d:f9:2a:fd:85:60:90:a2:fc:a1:28:8f:35:09:15:b1:
        4d:0d:43:28:ba:e7:0f:2b:bf:3c:c7:f2:d9:56:0f:09:3c:e2:
        83:3b:b8:ef:98:bc:cb:c5:98:0b:3f:45:58:99:ea:25:e8:f3:
        1a:69:2a:45:1d:d4:5f:f3:45:e3:7d:67:f1:0a:ad:e6:43:ac:
        c2:a0:c9:04
-----BEGIN CERTIFICATE-----
MIIEFjCCAv6gAwIBAgIBATANBgkqhkiG9w0BAQQFADCBmTELMAkGA1UEBhMCVVMx
EDAOBgNVBAgTB0Zsb3JpZGExGzAZBgNVBAcTElBhbG0gQmVhY2ggR2FyZGVuczEU
MBIGA1UEChMLWmVyb0MsIEluYy4xDDAKBgNVBAsTA0ljZTEYMBYGA1UEAxMPWmVy
b0MgVGVzdCBDQSAxMR0wGwYJKoZIhvcNAQkBFg5pbmZvQHplcm9jLmNvbTAeFw0w
NjAzMzExNjU1MTdaFw0wNTEyMzEwMDAwMDBaMHMxCzAJBgNVBAYTAlVTMRAwDgYD
VQQIEwdGbG9yaWRhMRQwEgYDVQQKEwtaZXJvQywgSW5jLjEMMAoGA1UECxMDSWNl
MR0wGwYJKoZIhvcNAQkBFg5pbmZvQHplcm9jLmNvbTEPMA0GA1UEAxMGQ2xpZW50
MIGfMA0GCSqGSIb3DQEBAQUAA4GNADCBiQKBgQD1nC4M10AsFRCweMWfxfe/UH9x
0tdWRfDlM1HZVq5SIDZFwAhfADblNyflLw1FgBYXR5vVfRKatIRnspOrbZnTa2Xn
pPB//XXph/cfI6lGIoqq4qkPItar7eKRu90MZ6P4AjZl0X4GzdEcMYGRVnFAgib3
G11crnLB43cU2npzYwIDAQABo4IBEDCCAQwwCQYDVR0TBAIwADAdBgNVHQ4EFgQU
/jcxUEiCKaKrr03DHVhh8yDLMMowgcYGA1UdIwSBvjCBu4AUywUF8D6hSqHLB2+G
i6/upeTKYr2hgZ+kgZwwgZkxCzAJBgNVBAYTAlVTMRAwDgYDVQQIEwdGbG9yaWRh
MRswGQYDVQQHExJQYWxtIEJlYWNoIEdhcmRlbnMxFDASBgNVBAoTC1plcm9DLCBJ
bmMuMQwwCgYDVQQLEwNJY2UxGDAWBgNVBAMTD1plcm9DIFRlc3QgQ0EgMTEdMBsG
CSqGSIb3DQEJARYOaW5mb0B6ZXJvYy5jb22CAQAwFwYDVR0RBBAwDoIGY2xpZW50
hwR/AAABMA0GCSqGSIb3DQEBBAUAA4IBAQBay+UORrGSwoB79duYDUir9gwns0C5
8ueupH6p8cvMfYjaf/CdK49Zzcb1F8Zlf0wn++DBCAK6pC96vAraUC9964aLRY3w
1TINUaYBqDZosOv43BvvgbDE+UIh6m5RoOWWZ/swc48/FaoAEITh4oKFUIRmn/Qw
+YReaJdx+20XThUPCZrc0YSZIGVTP2knyGqhqSpAGtbORnmARmnKJiiwgEKSqr6/
ihpp4iSQ6CBLudEE/d0UDo35Kv2FYJCi/KEojzUJFbFNDUMouucPK788x/LZVg8J
POKDO7jvmLzLxZgLP0VYmeol6PMaaSpFHdRf80XjfWfxCq3mQ6zCoMkE
-----END CERTIFICATE-----
