Certificate:
    Data:
        Version: 3 (0x2)
        Serial Number: 1 (0x1)
        Signature Algorithm: md5WithRSAEncryption
        Issuer: C=US, ST=Florida, L=Palm Beach Gardens, O=ZeroC, Inc., OU=Ice, CN=ZeroC Test CA 1/emailAddress=info@zeroc.com
        Validity
            Not Before: Mar 31 16:55:16 2006 GMT
            Not After : Mar 28 16:55:16 2016 GMT
        Subject: C=US, ST=Florida, O=ZeroC, Inc., OU=Ice/emailAddress=info@zeroc.com, CN=Client
        Subject Public Key Info:
            Public Key Algorithm: rsaEncryption
            RSA Public Key: (1024 bit)
                Modulus (1024 bit):
                    00:c2:d4:cf:f0:5c:9f:e2:8b:8a:cb:8b:85:b4:54:
                    4e:9e:66:35:3f:cc:3c:80:73:2c:d6:b4:9d:e5:cf:
                    90:8e:d0:7d:81:d1:9e:08:b8:6d:f2:21:02:d4:8b:
                    4f:86:eb:e8:2f:1c:0f:31:10:a6:bc:c0:27:48:50:
                    12:71:16:5c:c4:a2:ad:03:30:96:46:b6:49:f0:c1:
                    5d:df:a3:80:74:2c:0b:6e:ea:f7:42:b1:8f:40:55:
                    2a:fb:1b:48:e4:46:d9:09:37:1e:a1:b8:e6:79:d4:
                    d8:76:df:05:b2:1b:d0:7f:82:7f:e9:dc:b9:8e:2c:
                    8d:cb:09:dc:14:cf:8d:bb:bd
                Exponent: 65537 (0x10001)
        X509v3 extensions:
            X509v3 Basic Constraints: 
            CA:FALSE
            X509v3 Subject Key Identifier: 
            F0:4C:7B:94:40:73:E6:34:0A:4A:11:86:4A:52:C7:B7:6C:FA:FB:11
            X509v3 Authority Key Identifier: 
            keyid:CB:05:05:F0:3E:A1:4A:A1:CB:07:6F:86:8B:AF:EE:A5:E4:CA:62:BD
            DirName:/C=US/ST=Florida/L=Palm Beach Gardens/O=ZeroC, Inc./OU=Ice/CN=ZeroC Test CA 1/emailAddress=info@zeroc.com
            serial:00

            X509v3 Subject Alternative Name: 
            DNS:client, IP Address:127.0.0.1
    Signature Algorithm: md5WithRSAEncryption
        0a:99:48:8d:79:f6:e4:f4:6d:02:93:2e:ac:5e:ed:62:db:2e:
        98:94:d1:95:0a:76:ce:34:e3:5c:68:aa:89:5d:24:88:81:db:
        44:2f:f0:e2:11:05:ad:a6:f5:1b:64:02:cc:37:21:13:23:30:
        7b:a6:81:d3:ce:56:b6:52:62:00:32:34:b8:81:2b:bf:81:cd:
        a0:0d:ac:2a:f1:bf:61:5b:f7:18:2e:a3:3e:60:a1:19:a8:0a:
        56:ea:39:59:7c:6b:b8:7e:3a:9a:c5:5f:f7:84:96:e0:8a:cf:
        1d:9d:7e:18:36:ab:30:e8:cf:3f:b3:d8:66:9e:df:dd:3f:74:
        d3:04:7d:2d:b5:f1:af:bc:89:fa:15:28:6f:83:85:81:12:78:
        13:2e:fb:a3:32:fc:14:1e:61:af:19:ec:a4:57:17:12:30:f2:
        52:2f:a4:f3:39:e0:c4:68:6d:ea:7c:42:d5:49:1d:a7:8b:73:
        a1:62:b5:4d:6f:ea:9c:4a:15:d7:49:f6:15:df:07:c7:cf:f3:
        b8:04:8b:99:29:f1:56:5e:36:d6:c7:f9:86:a1:60:0f:3f:da:
        af:83:0e:05:0c:6f:c8:67:d6:8e:62:ac:93:73:dc:62:bb:2e:
        65:6f:bb:32:33:92:a7:70:a3:8f:20:4b:3a:20:2d:cc:41:c6:
        69:58:6c:b0
-----BEGIN CERTIFICATE-----
MIIEFjCCAv6gAwIBAgIBATANBgkqhkiG9w0BAQQFADCBmTELMAkGA1UEBhMCVVMx
EDAOBgNVBAgTB0Zsb3JpZGExGzAZBgNVBAcTElBhbG0gQmVhY2ggR2FyZGVuczEU
MBIGA1UEChMLWmVyb0MsIEluYy4xDDAKBgNVBAsTA0ljZTEYMBYGA1UEAxMPWmVy
b0MgVGVzdCBDQSAxMR0wGwYJKoZIhvcNAQkBFg5pbmZvQHplcm9jLmNvbTAeFw0w
NjAzMzExNjU1MTZaFw0xNjAzMjgxNjU1MTZaMHMxCzAJBgNVBAYTAlVTMRAwDgYD
VQQIEwdGbG9yaWRhMRQwEgYDVQQKEwtaZXJvQywgSW5jLjEMMAoGA1UECxMDSWNl
MR0wGwYJKoZIhvcNAQkBFg5pbmZvQHplcm9jLmNvbTEPMA0GA1UEAxMGQ2xpZW50
MIGfMA0GCSqGSIb3DQEBAQUAA4GNADCBiQKBgQDC1M/wXJ/ii4rLi4W0VE6eZjU/
zDyAcyzWtJ3lz5CO0H2B0Z4IuG3yIQLUi0+G6+gvHA8xEKa8wCdIUBJxFlzEoq0D
MJZGtknwwV3fo4B0LAtu6vdCsY9AVSr7G0jkRtkJNx6huOZ51Nh23wWyG9B/gn/p
3LmOLI3LCdwUz427vQIDAQABo4IBEDCCAQwwCQYDVR0TBAIwADAdBgNVHQ4EFgQU
8Ex7lEBz5jQKShGGSlLHt2z6+xEwgcYGA1UdIwSBvjCBu4AUywUF8D6hSqHLB2+G
i6/upeTKYr2hgZ+kgZwwgZkxCzAJBgNVBAYTAlVTMRAwDgYDVQQIEwdGbG9yaWRh
MRswGQYDVQQHExJQYWxtIEJlYWNoIEdhcmRlbnMxFDASBgNVBAoTC1plcm9DLCBJ
bmMuMQwwCgYDVQQLEwNJY2UxGDAWBgNVBAMTD1plcm9DIFRlc3QgQ0EgMTEdMBsG
CSqGSIb3DQEJARYOaW5mb0B6ZXJvYy5jb22CAQAwFwYDVR0RBBAwDoIGY2xpZW50
hwR/AAABMA0GCSqGSIb3DQEBBAUAA4IBAQAKmUiNefbk9G0Cky6sXu1i2y6YlNGV
CnbONONcaKqJXSSIgdtEL/DiEQWtpvUbZALMNyETIzB7poHTzla2UmIAMjS4gSu/
gc2gDawq8b9hW/cYLqM+YKEZqApW6jlZfGu4fjqaxV/3hJbgis8dnX4YNqsw6M8/
s9hmnt/dP3TTBH0ttfGvvIn6FShvg4WBEngTLvujMvwUHmGvGeykVxcSMPJSL6Tz
OeDEaG3qfELVSR2ni3OhYrVNb+qcShXXSfYV3wfHz/O4BIuZKfFWXjbWx/mGoWAP
P9qvgw4FDG/IZ9aOYqyTc9xiuy5lb7syM5KncKOPIEs6IC3MQcZpWGyw
-----END CERTIFICATE-----
