Certificate:
    Data:
        Version: 3 (0x2)
        Serial Number: 1 (0x1)
        Signature Algorithm: md5WithRSAEncryption
        Issuer: C=US, ST=Florida, L=Palm Beach Gardens, O=ZeroC, Inc., OU=Ice, CN=ZeroC Test CA/emailAddress=info@zeroc.com
        Validity
            Not Before: Mar 31 16:19:56 2006 GMT
            Not After : Mar 28 16:19:56 2016 GMT
        Subject: C=US, ST=Florida, O=ZeroC, Inc., OU=Ice/emailAddress=info@zeroc.com, CN=Client
        Subject Public Key Info:
            Public Key Algorithm: rsaEncryption
            RSA Public Key: (1024 bit)
                Modulus (1024 bit):
                    00:a9:e9:0c:15:6e:e5:d4:8b:4a:0e:02:28:36:0e:
                    d7:fd:69:d4:77:c0:8e:df:9b:f0:45:49:0b:bb:95:
                    b0:98:6c:e5:49:2c:72:36:eb:5e:95:7e:b1:2d:93:
                    a2:a4:0a:b4:f0:35:31:bd:de:60:48:5f:03:43:9a:
                    f7:d7:04:71:14:27:4b:9f:58:46:a0:be:d8:f8:e2:
                    da:3b:e9:c0:24:b3:d0:22:92:d6:a3:44:62:b0:c1:
                    d1:93:ca:76:76:5e:ad:94:71:37:d6:73:a5:a1:e4:
                    2d:f1:53:df:26:1b:60:2e:04:94:85:27:b3:76:e1:
                    0d:41:d0:98:3d:ec:96:05:7b
                Exponent: 65537 (0x10001)
        X509v3 extensions:
            X509v3 Basic Constraints: 
            CA:FALSE
            X509v3 Subject Key Identifier: 
            3E:D3:CC:8C:B6:62:71:E0:44:F1:EA:AD:28:5E:DE:AF:1D:25:84:AF
            X509v3 Authority Key Identifier: 
            keyid:45:2B:F7:FE:7F:6E:B3:4C:09:E9:87:86:E5:A0:2E:FA:50:BD:C1:F8
            DirName:/C=US/ST=Florida/L=Palm Beach Gardens/O=ZeroC, Inc./OU=Ice/CN=ZeroC Test CA/emailAddress=info@zeroc.com
            serial:00

            X509v3 Subject Alternative Name: 
            DNS:client, IP Address:127.0.0.1
    Signature Algorithm: md5WithRSAEncryption
        c4:41:b4:48:ea:38:f1:2c:eb:11:8c:1f:c7:0e:57:98:96:7a:
        85:d2:9e:12:65:35:ef:ca:5e:31:bc:c5:f5:cc:8a:27:9e:47:
        37:2f:4f:f0:2a:e8:5c:25:7c:47:81:48:a3:89:e5:96:85:2c:
        ea:42:01:04:b0:a0:68:37:55:a2:18:db:a6:b3:4b:49:ef:46:
        41:71:75:04:18:70:98:05:28:88:6d:09:66:ff:95:10:f9:9c:
        d5:c4:94:f9:7a:e4:bd:b8:d7:6d:53:88:af:5c:27:d4:b6:7b:
        24:72:95:6e:ce:42:6b:f2:68:06:bf:2f:d1:f4:e0:5f:97:1d:
        24:b4:e0:65:b5:73:3a:a0:9e:37:27:15:fb:33:9c:75:1f:10:
        71:dc:27:b8:45:0d:22:3f:2a:2a:da:64:d6:0d:aa:ad:03:92:
        53:f7:e3:69:38:4b:91:45:20:7c:5c:8c:3f:12:6d:5e:34:6e:
        0a:29:ef:28:8d:d6:23:d7:50:65:20:4f:e9:6c:11:3c:60:b3:
        88:12:60:a7:2d:5a:2a:9d:44:2a:33:20:ba:26:03:c6:a7:01:
        87:80:cc:51:8c:c9:47:04:e7:bf:12:7b:c4:c4:3d:33:40:aa:
        3b:8b:72:c5:9f:da:cc:8b:e3:a2:39:5e:a1:41:9f:dd:53:a4:
        70:42:fa:11
-----BEGIN CERTIFICATE-----
MIIEEjCCAvqgAwIBAgIBATANBgkqhkiG9w0BAQQFADCBlzELMAkGA1UEBhMCVVMx
EDAOBgNVBAgTB0Zsb3JpZGExGzAZBgNVBAcTElBhbG0gQmVhY2ggR2FyZGVuczEU
MBIGA1UEChMLWmVyb0MsIEluYy4xDDAKBgNVBAsTA0ljZTEWMBQGA1UEAxMNWmVy
b0MgVGVzdCBDQTEdMBsGCSqGSIb3DQEJARYOaW5mb0B6ZXJvYy5jb20wHhcNMDYw
MzMxMTYxOTU2WhcNMTYwMzI4MTYxOTU2WjBzMQswCQYDVQQGEwJVUzEQMA4GA1UE
CBMHRmxvcmlkYTEUMBIGA1UEChMLWmVyb0MsIEluYy4xDDAKBgNVBAsTA0ljZTEd
MBsGCSqGSIb3DQEJARYOaW5mb0B6ZXJvYy5jb20xDzANBgNVBAMTBkNsaWVudDCB
nzANBgkqhkiG9w0BAQEFAAOBjQAwgYkCgYEAqekMFW7l1ItKDgIoNg7X/WnUd8CO
35vwRUkLu5WwmGzlSSxyNutelX6xLZOipAq08DUxvd5gSF8DQ5r31wRxFCdLn1hG
oL7Y+OLaO+nAJLPQIpLWo0RisMHRk8p2dl6tlHE31nOloeQt8VPfJhtgLgSUhSez
duENQdCYPeyWBXsCAwEAAaOCAQ4wggEKMAkGA1UdEwQCMAAwHQYDVR0OBBYEFD7T
zIy2YnHgRPHqrShe3q8dJYSvMIHEBgNVHSMEgbwwgbmAFEUr9/5/brNMCemHhuWg
LvpQvcH4oYGdpIGaMIGXMQswCQYDVQQGEwJVUzEQMA4GA1UECBMHRmxvcmlkYTEb
MBkGA1UEBxMSUGFsbSBCZWFjaCBHYXJkZW5zMRQwEgYDVQQKEwtaZXJvQywgSW5j
LjEMMAoGA1UECxMDSWNlMRYwFAYDVQQDEw1aZXJvQyBUZXN0IENBMR0wGwYJKoZI
hvcNAQkBFg5pbmZvQHplcm9jLmNvbYIBADAXBgNVHREEEDAOggZjbGllbnSHBH8A
AAEwDQYJKoZIhvcNAQEEBQADggEBAMRBtEjqOPEs6xGMH8cOV5iWeoXSnhJlNe/K
XjG8xfXMiieeRzcvT/Aq6FwlfEeBSKOJ5ZaFLOpCAQSwoGg3VaIY26azS0nvRkFx
dQQYcJgFKIhtCWb/lRD5nNXElPl65L24121TiK9cJ9S2eyRylW7OQmvyaAa/L9H0
4F+XHSS04GW1czqgnjcnFfsznHUfEHHcJ7hFDSI/KiraZNYNqq0DklP342k4S5FF
IHxcjD8SbV40bgop7yiN1iPXUGUgT+lsETxgs4gSYKctWiqdRCozILomA8anAYeA
zFGMyUcE578Se8TEPTNAqjuLcsWf2syL46I5XqFBn91TpHBC+hE=
-----END CERTIFICATE-----
