Certificate:
    Data:
        Version: 3 (0x2)
        Serial Number: 1 (0x1)
        Signature Algorithm: md5WithRSAEncryption
        Issuer: C=US, ST=Florida, L=Palm Beach Gardens, O=ZeroC, Inc., OU=Ice, CN=ZeroC Test CA 2/emailAddress=info@zeroc.com
        Validity
            Not Before: Mar 31 16:55:18 2006 GMT
            Not After : Mar 28 16:55:18 2016 GMT
        Subject: C=US, ST=Florida, O=ZeroC, Inc., OU=Ice/emailAddress=info@zeroc.com, CN=Client
        Subject Public Key Info:
            Public Key Algorithm: rsaEncryption
            RSA Public Key: (1024 bit)
                Modulus (1024 bit):
                    00:d9:11:e8:49:3c:d0:2b:07:cf:1d:04:81:0f:73:
                    35:ee:de:22:b0:57:97:3f:13:73:e9:58:71:09:6e:
                    3b:9a:cf:9f:04:2c:0c:4b:8c:80:8f:c4:e4:0c:b3:
                    a5:0e:1b:73:c7:af:e2:b2:87:38:30:eb:0f:b8:04:
                    0b:26:44:22:f9:62:2f:81:8b:b5:cd:14:74:24:90:
                    9a:05:bc:db:d8:3f:fb:5c:a1:1b:4a:a3:2d:15:70:
                    38:c3:a0:eb:67:9c:af:83:e1:39:e1:ec:bf:83:52:
                    86:0f:bc:69:34:7b:0b:f9:88:3b:1b:ab:ec:6d:3c:
                    0c:cd:f4:56:31:83:87:2a:73
                Exponent: 65537 (0x10001)
        X509v3 extensions:
            X509v3 Basic Constraints: 
            CA:FALSE
            X509v3 Subject Key Identifier: 
            A2:07:DB:EB:98:A6:4A:05:BB:A6:C2:9E:F4:40:07:6C:14:7E:64:24
            X509v3 Authority Key Identifier: 
            keyid:2E:3F:04:71:7E:A2:FA:BF:C9:24:06:9C:92:43:83:64:70:8D:6C:13
            DirName:/C=US/ST=Florida/L=Palm Beach Gardens/O=ZeroC, Inc./OU=Ice/CN=ZeroC Test CA 2/emailAddress=info@zeroc.com
            serial:00

            X509v3 Subject Alternative Name: 
            DNS:client, IP Address:127.0.0.1
    Signature Algorithm: md5WithRSAEncryption
        80:08:65:18:ef:3b:c5:08:27:e9:13:10:96:06:89:cc:ac:ea:
        52:bd:8d:5f:4c:9a:a8:45:cf:d7:a1:51:f3:29:09:0f:cd:00:
        8d:0a:52:7b:cc:96:62:3d:df:b0:e5:a6:ef:dd:b1:2e:df:67:
        ca:c0:f6:ec:11:2b:16:99:06:fd:68:ec:67:02:3b:c7:38:3a:
        14:8c:dc:02:e8:4a:6a:9a:ca:e4:1d:d0:6a:27:6f:a8:ec:8a:
        62:e9:d7:e1:b4:05:2d:b5:c5:d7:b3:6d:33:69:cd:3c:a0:30:
        42:b9:4f:cd:1c:4e:b9:ca:f8:38:4d:de:95:45:75:48:c7:ff:
        8c:b5:4e:b8:96:60:23:8a:74:f0:5e:9e:44:47:86:2f:6f:d7:
        28:e8:51:b6:16:25:db:d1:3f:9c:33:7e:5c:c2:bb:b6:4a:b9:
        3a:86:e8:ac:bd:86:08:93:b2:0f:b8:66:dd:87:f5:65:b4:70:
        f8:38:4d:5d:b6:9c:54:72:3e:c4:03:ed:ac:35:41:57:11:b4:
        b6:61:a6:a0:60:9f:f5:69:c8:41:7d:1f:18:c5:5d:e5:e4:20:
        e9:0c:f2:16:38:b6:39:4d:6c:b1:13:a3:aa:1e:ac:af:ee:06:
        1d:aa:19:2a:0b:bc:1e:21:55:25:8b:06:12:2b:a9:3a:d5:2c:
        3a:1d:aa:5a
-----BEGIN CERTIFICATE-----
MIIEFjCCAv6gAwIBAgIBATANBgkqhkiG9w0BAQQFADCBmTELMAkGA1UEBhMCVVMx
EDAOBgNVBAgTB0Zsb3JpZGExGzAZBgNVBAcTElBhbG0gQmVhY2ggR2FyZGVuczEU
MBIGA1UEChMLWmVyb0MsIEluYy4xDDAKBgNVBAsTA0ljZTEYMBYGA1UEAxMPWmVy
b0MgVGVzdCBDQSAyMR0wGwYJKoZIhvcNAQkBFg5pbmZvQHplcm9jLmNvbTAeFw0w
NjAzMzExNjU1MThaFw0xNjAzMjgxNjU1MThaMHMxCzAJBgNVBAYTAlVTMRAwDgYD
VQQIEwdGbG9yaWRhMRQwEgYDVQQKEwtaZXJvQywgSW5jLjEMMAoGA1UECxMDSWNl
MR0wGwYJKoZIhvcNAQkBFg5pbmZvQHplcm9jLmNvbTEPMA0GA1UEAxMGQ2xpZW50
MIGfMA0GCSqGSIb3DQEBAQUAA4GNADCBiQKBgQDZEehJPNArB88dBIEPczXu3iKw
V5c/E3PpWHEJbjuaz58ELAxLjICPxOQMs6UOG3PHr+Kyhzgw6w+4BAsmRCL5Yi+B
i7XNFHQkkJoFvNvYP/tcoRtKoy0VcDjDoOtnnK+D4Tnh7L+DUoYPvGk0ewv5iDsb
q+xtPAzN9FYxg4cqcwIDAQABo4IBEDCCAQwwCQYDVR0TBAIwADAdBgNVHQ4EFgQU
ogfb65imSgW7psKe9EAHbBR+ZCQwgcYGA1UdIwSBvjCBu4AULj8EcX6i+r/JJAac
kkODZHCNbBOhgZ+kgZwwgZkxCzAJBgNVBAYTAlVTMRAwDgYDVQQIEwdGbG9yaWRh
MRswGQYDVQQHExJQYWxtIEJlYWNoIEdhcmRlbnMxFDASBgNVBAoTC1plcm9DLCBJ
bmMuMQwwCgYDVQQLEwNJY2UxGDAWBgNVBAMTD1plcm9DIFRlc3QgQ0EgMjEdMBsG
CSqGSIb3DQEJARYOaW5mb0B6ZXJvYy5jb22CAQAwFwYDVR0RBBAwDoIGY2xpZW50
hwR/AAABMA0GCSqGSIb3DQEBBAUAA4IBAQCACGUY7zvFCCfpExCWBonMrOpSvY1f
TJqoRc/XoVHzKQkPzQCNClJ7zJZiPd+w5abv3bEu32fKwPbsESsWmQb9aOxnAjvH
ODoUjNwC6EpqmsrkHdBqJ2+o7Ipi6dfhtAUttcXXs20zac08oDBCuU/NHE65yvg4
Td6VRXVIx/+MtU64lmAjinTwXp5ER4Yvb9co6FG2FiXb0T+cM35cwru2Srk6huis
vYYIk7IPuGbdh/VltHD4OE1dtpxUcj7EA+2sNUFXEbS2YaagYJ/1achBfR8YxV3l
5CDpDPIWOLY5TWyxE6OqHqyv7gYdqhkqC7weIVUliwYSK6k61Sw6Hapa
-----END CERTIFICATE-----
