Certificate:
    Data:
        Version: 3 (0x2)
        Serial Number: 1 (0x1)
        Signature Algorithm: md5WithRSAEncryption
        Issuer: C=US, ST=Florida, L=Palm Beach Gardens, O=ZeroC, Inc., OU=Ice, CN=ZeroC Test CA 2/emailAddress=info@zeroc.com
        Validity
            Not Before: Sep 23 15:11:16 2009 GMT
            Not After : Sep 21 15:11:16 2019 GMT
        Subject: C=US, ST=Florida, O=ZeroC, Inc., OU=Ice/emailAddress=info@zeroc.com, CN=Client
        Subject Public Key Info:
            Public Key Algorithm: rsaEncryption
            RSA Public Key: (1024 bit)
                Modulus (1024 bit):
                    00:b6:f0:92:7a:8c:0d:45:94:ab:6c:f8:1f:76:50:
                    2e:52:fb:3c:05:e6:aa:3a:21:f8:f5:bb:01:5b:2e:
                    7e:a1:45:b0:e1:f0:d2:a1:20:9c:c7:cb:66:c1:5c:
                    c3:5c:5c:f5:f4:22:4a:56:d2:40:15:c3:f0:e0:c6:
                    88:ca:a5:df:69:52:ea:6e:38:43:8a:a4:70:e8:08:
                    25:45:a4:62:ab:4f:32:14:a5:2a:e8:9b:31:00:b5:
                    c6:9a:96:f1:96:88:e5:07:0e:9b:27:36:dd:37:8f:
                    36:91:b3:d7:d0:3b:2b:d8:25:44:2f:9b:af:7c:e6:
                    1a:b6:43:de:b9:ec:8c:81:87
                Exponent: 65537 (0x10001)
        X509v3 extensions:
            X509v3 Basic Constraints: 
                CA:FALSE
            X509v3 Subject Key Identifier: 
                7D:26:67:0F:36:14:9A:D7:7C:78:8B:5A:5D:88:70:38:91:18:42:4A
            X509v3 Authority Key Identifier: 
                keyid:A0:BB:CE:B7:73:BD:61:E3:0F:C9:0E:E3:4F:CB:69:FF:89:76:5F:43
                DirName:/C=US/ST=Florida/L=Palm Beach Gardens/O=ZeroC, Inc./OU=Ice/CN=ZeroC Test CA 2/emailAddress=info@zeroc.com
                serial:EC:24:BF:25:6B:1D:8A:46

            X509v3 Subject Alternative Name: 
                DNS:client, IP Address:127.0.0.1
    Signature Algorithm: md5WithRSAEncryption
        4d:e3:4a:e4:fa:18:19:09:74:8b:51:e7:4d:57:52:bc:08:9c:
        43:53:54:b8:2d:82:a6:d2:75:48:ec:44:df:4f:58:44:8e:76:
        a6:73:d7:27:19:c7:da:74:04:44:1e:4f:32:2d:bc:c5:e3:12:
        20:7a:1c:d5:0a:75:b2:6e:4f:ac:07:2e:2e:9c:c1:24:48:ae:
        32:a1:70:d4:07:c8:ee:98:a4:15:eb:f3:fd:40:1c:82:86:b0:
        8a:aa:47:d7:49:7c:9a:8a:c0:50:cd:cd:93:98:b2:85:51:37:
        e2:03:a8:5c:31:b7:6f:b1:3e:51:ae:6c:55:64:47:3b:3f:cf:
        31:09
-----BEGIN CERTIFICATE-----
MIIDnTCCAwagAwIBAgIBATANBgkqhkiG9w0BAQQFADCBmTELMAkGA1UEBhMCVVMx
EDAOBgNVBAgTB0Zsb3JpZGExGzAZBgNVBAcTElBhbG0gQmVhY2ggR2FyZGVuczEU
MBIGA1UEChMLWmVyb0MsIEluYy4xDDAKBgNVBAsTA0ljZTEYMBYGA1UEAxMPWmVy
b0MgVGVzdCBDQSAyMR0wGwYJKoZIhvcNAQkBFg5pbmZvQHplcm9jLmNvbTAeFw0w
OTA5MjMxNTExMTZaFw0xOTA5MjExNTExMTZaMHMxCzAJBgNVBAYTAlVTMRAwDgYD
VQQIEwdGbG9yaWRhMRQwEgYDVQQKEwtaZXJvQywgSW5jLjEMMAoGA1UECxMDSWNl
MR0wGwYJKoZIhvcNAQkBFg5pbmZvQHplcm9jLmNvbTEPMA0GA1UEAxMGQ2xpZW50
MIGfMA0GCSqGSIb3DQEBAQUAA4GNADCBiQKBgQC28JJ6jA1FlKts+B92UC5S+zwF
5qo6Ifj1uwFbLn6hRbDh8NKhIJzHy2bBXMNcXPX0IkpW0kAVw/DgxojKpd9pUupu
OEOKpHDoCCVFpGKrTzIUpSromzEAtcaalvGWiOUHDpsnNt03jzaRs9fQOyvYJUQv
m6985hq2Q9657IyBhwIDAQABo4IBGDCCARQwCQYDVR0TBAIwADAdBgNVHQ4EFgQU
fSZnDzYUmtd8eItaXYhwOJEYQkowgc4GA1UdIwSBxjCBw4AUoLvOt3O9YeMPyQ7j
T8tp/4l2X0OhgZ+kgZwwgZkxCzAJBgNVBAYTAlVTMRAwDgYDVQQIEwdGbG9yaWRh
MRswGQYDVQQHExJQYWxtIEJlYWNoIEdhcmRlbnMxFDASBgNVBAoTC1plcm9DLCBJ
bmMuMQwwCgYDVQQLEwNJY2UxGDAWBgNVBAMTD1plcm9DIFRlc3QgQ0EgMjEdMBsG
CSqGSIb3DQEJARYOaW5mb0B6ZXJvYy5jb22CCQDsJL8lax2KRjAXBgNVHREEEDAO
ggZjbGllbnSHBH8AAAEwDQYJKoZIhvcNAQEEBQADgYEATeNK5PoYGQl0i1HnTVdS
vAicQ1NUuC2CptJ1SOxE309YRI52pnPXJxnH2nQERB5PMi28xeMSIHoc1Qp1sm5P
rAcuLpzBJEiuMqFw1AfI7pikFevz/UAcgoawiqpH10l8morAUM3Nk5iyhVE34gOo
XDG3b7E+Ua5sVWRHOz/PMQk=
-----END CERTIFICATE-----
