Certificate:
    Data:
        Version: 3 (0x2)
        Serial Number: 1 (0x1)
    Signature Algorithm: sha256WithRSAEncryption
        Issuer: C=US, ST=Florida, L=Palm Beach Gardens, O=ZeroC, Inc., OU=Ice, CN=ZeroC Test CA 1/emailAddress=info@zeroc.com
        Validity
            Not Before: Jul 11 17:17:36 2014 GMT
            Not After : Jul  8 17:17:36 2024 GMT
        Subject: C=US, ST=Florida, O=ZeroC, Inc., OU=Ice/emailAddress=info@zeroc.com, CN=Client
        Subject Public Key Info:
            Public Key Algorithm: rsaEncryption
                Public-Key: (1024 bit)
                Modulus:
                    00:94:71:42:6e:d1:2a:5d:a0:9d:b6:13:05:5a:40:
                    0f:42:85:28:a7:cb:da:28:93:63:f3:03:52:78:88:
                    e3:6e:b6:64:f3:32:8f:88:f5:0c:53:be:0e:4e:20:
                    5a:2c:f5:f3:d2:a0:8f:9f:26:d6:1c:af:81:56:5e:
                    0f:9e:c6:a0:a8:b8:21:1e:61:27:81:3e:ad:91:b7:
                    44:a6:ee:29:bc:32:56:2b:2f:07:d3:57:79:00:98:
                    8d:f3:af:6f:0c:8f:a9:27:04:52:1e:00:76:a6:9d:
                    22:ca:ec:e2:4a:06:1f:df:4a:9a:9e:52:9e:60:29:
                    46:08:95:9c:3e:28:b1:d7:7b
                Exponent: 65537 (0x10001)
        X509v3 extensions:
            X509v3 Basic Constraints: 
                CA:FALSE
            X509v3 Subject Key Identifier: 
                CC:7B:FA:66:DA:CC:EC:93:5E:BE:65:E3:DA:A9:8E:3D:4E:16:1C:6B
            X509v3 Authority Key Identifier: 
                keyid:D3:64:A2:78:6C:8C:1F:AD:F2:26:79:F8:1B:05:25:C5:8B:62:A9:F3
                DirName:/C=US/ST=Florida/L=Palm Beach Gardens/O=ZeroC, Inc./OU=Ice/CN=ZeroC Test CA 1/emailAddress=info@zeroc.com
                serial:F9:E6:F8:11:B0:B7:85:00

            X509v3 Subject Alternative Name: 
                DNS:client, IP Address:127.0.0.1
    Signature Algorithm: sha256WithRSAEncryption
         92:75:e4:28:91:3b:20:48:67:33:0d:60:5b:6d:14:a2:b2:af:
         47:89:93:50:e2:d0:85:0c:3c:2d:85:af:f8:bb:42:6d:41:1c:
         fb:7a:8f:9c:43:08:51:76:ef:6f:36:a1:73:7b:58:4e:fa:50:
         2e:91:00:0d:cb:5c:0c:68:8f:92:05:61:8d:4f:79:c9:77:f8:
         b8:78:5a:11:7b:55:80:3c:41:c8:d5:ff:39:e9:30:2a:ca:ce:
         2f:98:78:d6:9e:2c:f1:e0:6d:97:85:19:9a:fc:67:cc:7c:09:
         e4:c4:63:50:ca:60:52:42:24:61:2e:ee:69:b8:19:f2:f2:e7:
         30:08
-----BEGIN CERTIFICATE-----
MIIDnTCCAwagAwIBAgIBATANBgkqhkiG9w0BAQsFADCBmTELMAkGA1UEBhMCVVMx
EDAOBgNVBAgTB0Zsb3JpZGExGzAZBgNVBAcTElBhbG0gQmVhY2ggR2FyZGVuczEU
MBIGA1UEChMLWmVyb0MsIEluYy4xDDAKBgNVBAsTA0ljZTEYMBYGA1UEAxMPWmVy
b0MgVGVzdCBDQSAxMR0wGwYJKoZIhvcNAQkBFg5pbmZvQHplcm9jLmNvbTAeFw0x
NDA3MTExNzE3MzZaFw0yNDA3MDgxNzE3MzZaMHMxCzAJBgNVBAYTAlVTMRAwDgYD
VQQIEwdGbG9yaWRhMRQwEgYDVQQKEwtaZXJvQywgSW5jLjEMMAoGA1UECxMDSWNl
MR0wGwYJKoZIhvcNAQkBFg5pbmZvQHplcm9jLmNvbTEPMA0GA1UEAxMGQ2xpZW50
MIGfMA0GCSqGSIb3DQEBAQUAA4GNADCBiQKBgQCUcUJu0SpdoJ22EwVaQA9ChSin
y9ook2PzA1J4iONutmTzMo+I9QxTvg5OIFos9fPSoI+fJtYcr4FWXg+exqCouCEe
YSeBPq2Rt0Sm7im8MlYrLwfTV3kAmI3zr28Mj6knBFIeAHamnSLK7OJKBh/fSpqe
Up5gKUYIlZw+KLHXewIDAQABo4IBGDCCARQwCQYDVR0TBAIwADAdBgNVHQ4EFgQU
zHv6ZtrM7JNevmXj2qmOPU4WHGswgc4GA1UdIwSBxjCBw4AU02SieGyMH63yJnn4
GwUlxYtiqfOhgZ+kgZwwgZkxCzAJBgNVBAYTAlVTMRAwDgYDVQQIEwdGbG9yaWRh
MRswGQYDVQQHExJQYWxtIEJlYWNoIEdhcmRlbnMxFDASBgNVBAoTC1plcm9DLCBJ
bmMuMQwwCgYDVQQLEwNJY2UxGDAWBgNVBAMTD1plcm9DIFRlc3QgQ0EgMTEdMBsG
CSqGSIb3DQEJARYOaW5mb0B6ZXJvYy5jb22CCQD55vgRsLeFADAXBgNVHREEEDAO
ggZjbGllbnSHBH8AAAEwDQYJKoZIhvcNAQELBQADgYEAknXkKJE7IEhnMw1gW20U
orKvR4mTUOLQhQw8LYWv+LtCbUEc+3qPnEMIUXbvbzahc3tYTvpQLpEADctcDGiP
kgVhjU95yXf4uHhaEXtVgDxByNX/OekwKsrOL5h41p4s8eBtl4UZmvxnzHwJ5MRj
UMpgUkIkYS7uabgZ8vLnMAg=
-----END CERTIFICATE-----
