Certificate:
    Data:
        Version: 3 (0x2)
        Serial Number: 1 (0x1)
        Signature Algorithm: md5WithRSAEncryption
        Issuer: C=US, ST=Florida, L=Palm Beach Gardens, O=ZeroC, Inc., OU=Ice, CN=ZeroC Test CA 1/emailAddress=info@zeroc.com
        Validity
            Not Before: Jul 14 18:25:32 2009 GMT
            Not After : Dec 31 00:00:00 2005 GMT
        Subject: C=US, ST=Florida, O=ZeroC, Inc., OU=Ice/emailAddress=info@zeroc.com, CN=Client
        Subject Public Key Info:
            Public Key Algorithm: rsaEncryption
            RSA Public Key: (1024 bit)
                Modulus (1024 bit):
                    00:d7:84:5c:54:ab:dc:c7:d6:a5:38:3a:24:82:7a:
                    9d:ab:08:61:67:4e:a2:37:9c:8b:8b:34:3e:56:ba:
                    33:d9:15:5a:db:e1:b9:7a:34:94:c9:09:dd:5c:c6:
                    d0:f4:f3:40:c3:1e:bc:70:e5:d8:26:48:a4:41:54:
                    39:32:ea:54:33:cf:15:dc:38:ed:8d:22:93:fc:64:
                    dc:92:e9:71:32:e0:d5:a4:15:75:35:ac:0d:f5:07:
                    01:3c:c2:44:f8:06:08:c7:eb:25:19:b0:c0:61:cd:
                    ed:b7:0f:ea:71:c6:c3:41:bb:d0:64:0d:9a:c4:24:
                    91:82:eb:3e:b9:87:49:f5:bb
                Exponent: 65537 (0x10001)
        X509v3 extensions:
            X509v3 Basic Constraints: 
                CA:FALSE
            X509v3 Subject Key Identifier: 
                CD:2E:87:8D:35:3D:1A:08:C3:AD:56:58:26:9C:78:58:0C:FA:E7:C4
            X509v3 Authority Key Identifier: 
                keyid:B1:F2:E4:5D:CF:98:23:64:C7:71:1A:F6:CA:8B:35:71:61:CF:F9:A4
                DirName:/C=US/ST=Florida/L=Palm Beach Gardens/O=ZeroC, Inc./OU=Ice/CN=ZeroC Test CA 1/emailAddress=info@zeroc.com
                serial:EE:56:13:BD:34:21:F7:82

            X509v3 Subject Alternative Name: 
                DNS:client, IP Address:127.0.0.1
    Signature Algorithm: md5WithRSAEncryption
        5b:a1:ff:cb:43:34:68:80:a8:ff:2f:ed:b6:d6:53:95:2b:f0:
        c2:8c:0b:d7:4e:68:b7:eb:3f:de:6e:a9:12:9f:b0:21:c0:2a:
        49:6a:b9:c5:96:51:51:01:d4:7c:72:6c:16:e7:29:ec:43:52:
        0c:a6:9f:a1:14:5e:5a:65:bc:5f:fc:de:94:7f:89:91:1a:26:
        0e:2c:3f:37:d4:78:dc:6e:13:d8:c7:ea:b0:77:bb:4e:2c:d7:
        fa:78:7e:30:7b:ed:78:45:04:e9:e1:3e:0e:d0:bd:f6:53:95:
        ec:2f:bc:59:8a:22:45:3e:ed:7f:ea:2d:a6:49:66:66:98:91:
        bd:91
-----BEGIN CERTIFICATE-----
MIIDnTCCAwagAwIBAgIBATANBgkqhkiG9w0BAQQFADCBmTELMAkGA1UEBhMCVVMx
EDAOBgNVBAgTB0Zsb3JpZGExGzAZBgNVBAcTElBhbG0gQmVhY2ggR2FyZGVuczEU
MBIGA1UEChMLWmVyb0MsIEluYy4xDDAKBgNVBAsTA0ljZTEYMBYGA1UEAxMPWmVy
b0MgVGVzdCBDQSAxMR0wGwYJKoZIhvcNAQkBFg5pbmZvQHplcm9jLmNvbTAeFw0w
OTA3MTQxODI1MzJaFw0wNTEyMzEwMDAwMDBaMHMxCzAJBgNVBAYTAlVTMRAwDgYD
VQQIEwdGbG9yaWRhMRQwEgYDVQQKEwtaZXJvQywgSW5jLjEMMAoGA1UECxMDSWNl
MR0wGwYJKoZIhvcNAQkBFg5pbmZvQHplcm9jLmNvbTEPMA0GA1UEAxMGQ2xpZW50
MIGfMA0GCSqGSIb3DQEBAQUAA4GNADCBiQKBgQDXhFxUq9zH1qU4OiSCep2rCGFn
TqI3nIuLND5WujPZFVrb4bl6NJTJCd1cxtD080DDHrxw5dgmSKRBVDky6lQzzxXc
OO2NIpP8ZNyS6XEy4NWkFXU1rA31BwE8wkT4BgjH6yUZsMBhze23D+pxxsNBu9Bk
DZrEJJGC6z65h0n1uwIDAQABo4IBGDCCARQwCQYDVR0TBAIwADAdBgNVHQ4EFgQU
zS6HjTU9GgjDrVZYJpx4WAz658Qwgc4GA1UdIwSBxjCBw4AUsfLkXc+YI2THcRr2
yos1cWHP+aShgZ+kgZwwgZkxCzAJBgNVBAYTAlVTMRAwDgYDVQQIEwdGbG9yaWRh
MRswGQYDVQQHExJQYWxtIEJlYWNoIEdhcmRlbnMxFDASBgNVBAoTC1plcm9DLCBJ
bmMuMQwwCgYDVQQLEwNJY2UxGDAWBgNVBAMTD1plcm9DIFRlc3QgQ0EgMTEdMBsG
CSqGSIb3DQEJARYOaW5mb0B6ZXJvYy5jb22CCQDuVhO9NCH3gjAXBgNVHREEEDAO
ggZjbGllbnSHBH8AAAEwDQYJKoZIhvcNAQEEBQADgYEAW6H/y0M0aICo/y/tttZT
lSvwwowL105ot+s/3m6pEp+wIcAqSWq5xZZRUQHUfHJsFucp7ENSDKafoRReWmW8
X/zelH+JkRomDiw/N9R43G4T2MfqsHe7TizX+nh+MHvteEUE6eE+DtC99lOV7C+8
WYoiRT7tf+otpklmZpiRvZE=
-----END CERTIFICATE-----
