Certificate:
    Data:
        Version: 3 (0x2)
        Serial Number: 1 (0x1)
        Signature Algorithm: md5WithRSAEncryption
        Issuer: C=US, ST=Florida, L=Palm Beach Gardens, O=ZeroC, Inc., OU=Ice, CN=ZeroC Test CA 1/emailAddress=info@zeroc.com
        Validity
            Not Before: Jul 14 18:25:32 2009 GMT
            Not After : Jul 12 18:25:32 2019 GMT
        Subject: C=US, ST=Florida, O=ZeroC, Inc., OU=Ice/emailAddress=info@zeroc.com, CN=Client
        Subject Public Key Info:
            Public Key Algorithm: rsaEncryption
            RSA Public Key: (1024 bit)
                Modulus (1024 bit):
                    00:de:e7:78:e2:f7:5c:ab:6d:44:dc:f4:26:27:f8:
                    24:12:1b:5a:cd:2e:7c:32:9c:a3:39:58:c0:71:cf:
                    62:21:4f:6a:78:b6:79:e0:be:62:cd:73:2d:cd:ab:
                    8e:68:54:13:f8:a8:de:5f:5f:e2:54:06:09:39:22:
                    72:09:b8:35:95:da:57:29:30:c2:4b:93:6f:3d:39:
                    ea:cd:da:9e:e8:a2:18:75:64:4a:24:93:b1:db:e7:
                    4e:c4:f8:27:ce:91:3b:e3:02:a4:3e:75:eb:15:d4:
                    65:18:77:7f:f7:a9:3f:ea:3c:d5:81:30:d7:c7:08:
                    69:48:fe:c4:bc:dd:54:47:0b
                Exponent: 65537 (0x10001)
        X509v3 extensions:
            X509v3 Basic Constraints: 
                CA:FALSE
            X509v3 Subject Key Identifier: 
                A1:66:94:33:09:20:69:E4:F8:72:AF:E0:AA:C0:56:8E:05:C7:67:68
            X509v3 Authority Key Identifier: 
                keyid:B1:F2:E4:5D:CF:98:23:64:C7:71:1A:F6:CA:8B:35:71:61:CF:F9:A4
                DirName:/C=US/ST=Florida/L=Palm Beach Gardens/O=ZeroC, Inc./OU=Ice/CN=ZeroC Test CA 1/emailAddress=info@zeroc.com
                serial:EE:56:13:BD:34:21:F7:82

            X509v3 Subject Alternative Name: 
                DNS:client, IP Address:127.0.0.1
    Signature Algorithm: md5WithRSAEncryption
        8b:fe:9a:57:65:0c:c7:6b:76:60:30:21:cc:6f:fd:bd:8f:c4:
        62:50:80:4f:8a:3f:e2:8c:b2:32:fd:27:ab:70:55:05:8a:7a:
        7e:7d:23:42:b7:a1:ea:08:39:d4:c7:db:e3:09:12:b5:ff:dd:
        3d:c5:37:10:a1:10:67:8f:34:30:6d:a2:b0:df:d2:84:d1:8c:
        2d:20:ee:39:9b:8b:e7:59:bd:d5:a5:ac:e8:9b:da:c5:71:65:
        f9:94:b2:3b:26:20:ef:76:9a:f3:6e:db:f5:22:9b:44:85:5c:
        0a:d5:0f:4e:09:b9:50:4f:80:a7:fe:14:17:d9:35:5d:a1:78:
        d2:4a
-----BEGIN CERTIFICATE-----
MIIDnTCCAwagAwIBAgIBATANBgkqhkiG9w0BAQQFADCBmTELMAkGA1UEBhMCVVMx
EDAOBgNVBAgTB0Zsb3JpZGExGzAZBgNVBAcTElBhbG0gQmVhY2ggR2FyZGVuczEU
MBIGA1UEChMLWmVyb0MsIEluYy4xDDAKBgNVBAsTA0ljZTEYMBYGA1UEAxMPWmVy
b0MgVGVzdCBDQSAxMR0wGwYJKoZIhvcNAQkBFg5pbmZvQHplcm9jLmNvbTAeFw0w
OTA3MTQxODI1MzJaFw0xOTA3MTIxODI1MzJaMHMxCzAJBgNVBAYTAlVTMRAwDgYD
VQQIEwdGbG9yaWRhMRQwEgYDVQQKEwtaZXJvQywgSW5jLjEMMAoGA1UECxMDSWNl
MR0wGwYJKoZIhvcNAQkBFg5pbmZvQHplcm9jLmNvbTEPMA0GA1UEAxMGQ2xpZW50
MIGfMA0GCSqGSIb3DQEBAQUAA4GNADCBiQKBgQDe53ji91yrbUTc9CYn+CQSG1rN
LnwynKM5WMBxz2IhT2p4tnngvmLNcy3Nq45oVBP4qN5fX+JUBgk5InIJuDWV2lcp
MMJLk289OerN2p7oohh1ZEokk7Hb507E+CfOkTvjAqQ+desV1GUYd3/3qT/qPNWB
MNfHCGlI/sS83VRHCwIDAQABo4IBGDCCARQwCQYDVR0TBAIwADAdBgNVHQ4EFgQU
oWaUMwkgaeT4cq/gqsBWjgXHZ2gwgc4GA1UdIwSBxjCBw4AUsfLkXc+YI2THcRr2
yos1cWHP+aShgZ+kgZwwgZkxCzAJBgNVBAYTAlVTMRAwDgYDVQQIEwdGbG9yaWRh
MRswGQYDVQQHExJQYWxtIEJlYWNoIEdhcmRlbnMxFDASBgNVBAoTC1plcm9DLCBJ
bmMuMQwwCgYDVQQLEwNJY2UxGDAWBgNVBAMTD1plcm9DIFRlc3QgQ0EgMTEdMBsG
CSqGSIb3DQEJARYOaW5mb0B6ZXJvYy5jb22CCQDuVhO9NCH3gjAXBgNVHREEEDAO
ggZjbGllbnSHBH8AAAEwDQYJKoZIhvcNAQEEBQADgYEAi/6aV2UMx2t2YDAhzG/9
vY/EYlCAT4o/4oyyMv0nq3BVBYp6fn0jQreh6gg51Mfb4wkStf/dPcU3EKEQZ480
MG2isN/ShNGMLSDuOZuL51m91aWs6JvaxXFl+ZSyOyYg73aa827b9SKbRIVcCtUP
Tgm5UE+Ap/4UF9k1XaF40ko=
-----END CERTIFICATE-----
