Certificate:
    Data:
        Version: 3 (0x2)
        Serial Number: 1 (0x1)
    Signature Algorithm: sha256WithRSAEncryption
        Issuer: C=US, ST=Florida, L=Palm Beach Gardens, O=ZeroC, Inc., OU=Ice, CN=ZeroC Test CA 1/emailAddress=info@zeroc.com
        Validity
            Not Before: Jul 11 17:17:36 2014 GMT
            Not After : Jul  8 17:17:36 2024 GMT
        Subject: C=US, ST=Florida, O=ZeroC, Inc., OU=Ice/emailAddress=info@zeroc.com, CN=Client
        Subject Public Key Info:
            Public Key Algorithm: rsaEncryption
                Public-Key: (1024 bit)
                Modulus:
                    00:b3:56:a0:08:04:94:b7:cb:67:d0:a4:26:40:7d:
                    9d:47:4d:da:2d:1c:6a:72:2b:eb:67:80:f3:f4:31:
                    ba:78:38:e6:2f:8f:13:c4:12:86:05:cc:b7:6e:c0:
                    ac:f5:5d:69:3c:03:06:76:ee:5b:9c:ef:f0:51:ea:
                    af:b9:63:a0:2d:58:6f:c0:62:f2:a5:c5:97:a2:84:
                    fc:ee:58:b2:e8:6f:0c:03:4f:63:4e:f9:fb:dd:98:
                    e1:b2:f0:39:26:3b:b3:7b:d5:f3:80:ae:38:08:2c:
                    6a:13:64:8d:36:0b:a4:d1:e5:ea:64:31:e8:ac:2d:
                    3b:d5:fd:4b:0d:12:3c:10:67
                Exponent: 65537 (0x10001)
        X509v3 extensions:
            X509v3 Basic Constraints: 
                CA:FALSE
            X509v3 Subject Key Identifier: 
                54:72:19:52:20:4A:A8:AA:B7:37:6A:BF:DA:B9:87:E2:47:51:03:4B
            X509v3 Authority Key Identifier: 
                keyid:D3:64:A2:78:6C:8C:1F:AD:F2:26:79:F8:1B:05:25:C5:8B:62:A9:F3
                DirName:/C=US/ST=Florida/L=Palm Beach Gardens/O=ZeroC, Inc./OU=Ice/CN=ZeroC Test CA 1/emailAddress=info@zeroc.com
                serial:F9:E6:F8:11:B0:B7:85:00

            X509v3 Subject Alternative Name: 
                DNS:client, IP Address:127.0.0.1
    Signature Algorithm: sha256WithRSAEncryption
         2c:7d:9b:27:57:91:85:3f:67:f4:a4:6f:57:19:70:bd:b6:a4:
         9f:25:72:36:18:ba:a0:14:60:99:36:e7:98:95:0a:ed:fb:5c:
         93:e7:f5:3b:fa:ac:dd:3c:07:ec:a1:2d:40:65:84:a1:f4:aa:
         96:30:62:bc:a1:99:4a:5b:aa:e4:8d:42:af:c8:01:89:6e:33:
         61:54:2d:14:1a:25:46:29:c0:28:b6:3d:bc:67:9e:ef:d5:9f:
         cd:1f:d9:bd:08:95:76:19:77:a7:25:78:66:44:50:ff:69:84:
         31:59:ec:1b:e5:53:fe:4f:66:b2:73:1e:69:3a:a9:31:68:f8:
         2a:91
-----BEGIN CERTIFICATE-----
MIIDnTCCAwagAwIBAgIBATANBgkqhkiG9w0BAQsFADCBmTELMAkGA1UEBhMCVVMx
EDAOBgNVBAgTB0Zsb3JpZGExGzAZBgNVBAcTElBhbG0gQmVhY2ggR2FyZGVuczEU
MBIGA1UEChMLWmVyb0MsIEluYy4xDDAKBgNVBAsTA0ljZTEYMBYGA1UEAxMPWmVy
b0MgVGVzdCBDQSAxMR0wGwYJKoZIhvcNAQkBFg5pbmZvQHplcm9jLmNvbTAeFw0x
NDA3MTExNzE3MzZaFw0yNDA3MDgxNzE3MzZaMHMxCzAJBgNVBAYTAlVTMRAwDgYD
VQQIEwdGbG9yaWRhMRQwEgYDVQQKEwtaZXJvQywgSW5jLjEMMAoGA1UECxMDSWNl
MR0wGwYJKoZIhvcNAQkBFg5pbmZvQHplcm9jLmNvbTEPMA0GA1UEAxMGQ2xpZW50
MIGfMA0GCSqGSIb3DQEBAQUAA4GNADCBiQKBgQCzVqAIBJS3y2fQpCZAfZ1HTdot
HGpyK+tngPP0Mbp4OOYvjxPEEoYFzLduwKz1XWk8AwZ27luc7/BR6q+5Y6AtWG/A
YvKlxZeihPzuWLLobwwDT2NO+fvdmOGy8DkmO7N71fOArjgILGoTZI02C6TR5epk
MeisLTvV/UsNEjwQZwIDAQABo4IBGDCCARQwCQYDVR0TBAIwADAdBgNVHQ4EFgQU
VHIZUiBKqKq3N2q/2rmH4kdRA0swgc4GA1UdIwSBxjCBw4AU02SieGyMH63yJnn4
GwUlxYtiqfOhgZ+kgZwwgZkxCzAJBgNVBAYTAlVTMRAwDgYDVQQIEwdGbG9yaWRh
MRswGQYDVQQHExJQYWxtIEJlYWNoIEdhcmRlbnMxFDASBgNVBAoTC1plcm9DLCBJ
bmMuMQwwCgYDVQQLEwNJY2UxGDAWBgNVBAMTD1plcm9DIFRlc3QgQ0EgMTEdMBsG
CSqGSIb3DQEJARYOaW5mb0B6ZXJvYy5jb22CCQD55vgRsLeFADAXBgNVHREEEDAO
ggZjbGllbnSHBH8AAAEwDQYJKoZIhvcNAQELBQADgYEALH2bJ1eRhT9n9KRvVxlw
vbaknyVyNhi6oBRgmTbnmJUK7ftck+f1O/qs3TwH7KEtQGWEofSqljBivKGZSluq
5I1Cr8gBiW4zYVQtFBolRinAKLY9vGee79WfzR/ZvQiVdhl3pyV4ZkRQ/2mEMVns
G+VT/k9msnMeaTqpMWj4KpE=
-----END CERTIFICATE-----
