Certificate:
    Data:
        Version: 3 (0x2)
        Serial Number: 1 (0x1)
        Signature Algorithm: md5WithRSAEncryption
        Issuer: C=US, ST=Florida, L=Palm Beach Gardens, O=ZeroC, Inc., OU=Ice, CN=ZeroC Test CA/emailAddress=info@zeroc.com
        Validity
            Not Before: Mar 28 18:09:57 2006 GMT
            Not After : Mar 25 18:09:57 2016 GMT
        Subject: C=US, ST=Florida, O=ZeroC, Inc., OU=Ice/emailAddress=info@zeroc.com, CN=Client
        Subject Public Key Info:
            Public Key Algorithm: rsaEncryption
            RSA Public Key: (1024 bit)
                Modulus (1024 bit):
                    00:bd:6c:36:d8:0b:cf:97:e7:63:a9:be:53:24:99:
                    fc:48:bc:03:34:93:af:33:a4:25:03:49:81:3b:df:
                    03:21:e7:ec:3b:22:cb:16:d3:83:f3:4c:a7:d2:51:
                    3e:37:64:5b:b1:a7:a1:ef:43:3f:8c:1d:9e:bd:2d:
                    e0:c8:da:8e:ac:97:1c:fb:b3:2a:d2:3f:d2:af:a8:
                    93:bf:4c:ba:41:46:2e:7c:35:94:c1:8f:22:8e:9f:
                    5f:7d:fb:92:00:16:c3:cc:0d:07:8f:e3:b4:0e:c6:
                    3f:3e:e4:3f:7e:83:bf:f7:af:00:da:7c:96:54:2f:
                    fa:44:36:03:c2:d3:e6:6c:2f
                Exponent: 65537 (0x10001)
        X509v3 extensions:
            X509v3 Basic Constraints: 
            CA:FALSE
            X509v3 Subject Key Identifier: 
            91:F0:42:68:7C:E8:C9:D8:E4:27:F2:B2:11:CF:F5:BD:82:F8:3D:07
            X509v3 Authority Key Identifier: 
            keyid:A3:8D:7D:FF:A8:69:1E:7C:54:58:46:61:FE:B7:68:BC:2C:FC:CB:DE
            DirName:/C=US/ST=Florida/L=Palm Beach Gardens/O=ZeroC, Inc./OU=Ice/CN=ZeroC Test CA/emailAddress=info@zeroc.com
            serial:00

            X509v3 Subject Alternative Name: 
            DNS:client, IP Address:127.0.0.1
    Signature Algorithm: md5WithRSAEncryption
        1a:d8:c4:90:34:42:e4:2e:e7:2b:6a:b1:50:54:cd:e2:7d:89:
        14:c8:a4:71:b0:10:fd:67:0c:9b:66:f5:55:5e:0e:4f:c6:5f:
        2e:a4:3d:ce:2e:3b:30:a7:a3:14:f1:83:a0:14:2d:2c:f3:1c:
        bd:93:7d:1d:5b:f2:e7:6b:b9:17:c4:36:54:a7:b6:5f:94:9f:
        79:7e:49:e8:92:b1:7f:cf:27:a7:7f:0e:76:86:9e:48:7e:61:
        f5:af:c0:3b:72:c7:78:3a:16:cd:e9:b0:bd:33:4f:a1:3a:09:
        ba:f2:f1:60:36:d2:ba:3b:36:7e:37:96:8b:d8:bf:db:b8:55:
        cf:e7:2c:ac:2b:76:f9:2b:8b:30:8a:56:b1:aa:d8:04:f7:07:
        c5:a5:82:2d:40:59:01:76:29:b8:e0:e8:37:8e:ae:94:30:f7:
        60:20:9e:67:b6:ea:1a:20:c7:7d:c3:79:2d:dc:86:c9:e6:b9:
        43:11:ac:c3:b7:4e:35:5d:91:fe:cb:77:35:3f:e0:d8:e2:2f:
        a0:c8:58:2d:ac:1f:6b:53:c4:36:0a:6d:79:f4:cc:9a:33:fb:
        b8:ff:be:55:c1:82:b0:63:ed:1c:fb:22:e7:b0:87:ee:57:04:
        f8:be:fa:03:ee:24:61:f0:07:86:9e:b7:41:d3:2b:bd:c4:1b:
        db:85:ec:81
-----BEGIN CERTIFICATE-----
MIIEEjCCAvqgAwIBAgIBATANBgkqhkiG9w0BAQQFADCBlzELMAkGA1UEBhMCVVMx
EDAOBgNVBAgTB0Zsb3JpZGExGzAZBgNVBAcTElBhbG0gQmVhY2ggR2FyZGVuczEU
MBIGA1UEChMLWmVyb0MsIEluYy4xDDAKBgNVBAsTA0ljZTEWMBQGA1UEAxMNWmVy
b0MgVGVzdCBDQTEdMBsGCSqGSIb3DQEJARYOaW5mb0B6ZXJvYy5jb20wHhcNMDYw
MzI4MTgwOTU3WhcNMTYwMzI1MTgwOTU3WjBzMQswCQYDVQQGEwJVUzEQMA4GA1UE
CBMHRmxvcmlkYTEUMBIGA1UEChMLWmVyb0MsIEluYy4xDDAKBgNVBAsTA0ljZTEd
MBsGCSqGSIb3DQEJARYOaW5mb0B6ZXJvYy5jb20xDzANBgNVBAMTBkNsaWVudDCB
nzANBgkqhkiG9w0BAQEFAAOBjQAwgYkCgYEAvWw22AvPl+djqb5TJJn8SLwDNJOv
M6QlA0mBO98DIefsOyLLFtOD80yn0lE+N2Rbsaeh70M/jB2evS3gyNqOrJcc+7Mq
0j/Sr6iTv0y6QUYufDWUwY8ijp9fffuSABbDzA0Hj+O0DsY/PuQ/foO/968A2nyW
VC/6RDYDwtPmbC8CAwEAAaOCAQ4wggEKMAkGA1UdEwQCMAAwHQYDVR0OBBYEFJHw
Qmh86MnY5CfyshHP9b2C+D0HMIHEBgNVHSMEgbwwgbmAFKONff+oaR58VFhGYf63
aLws/MveoYGdpIGaMIGXMQswCQYDVQQGEwJVUzEQMA4GA1UECBMHRmxvcmlkYTEb
MBkGA1UEBxMSUGFsbSBCZWFjaCBHYXJkZW5zMRQwEgYDVQQKEwtaZXJvQywgSW5j
LjEMMAoGA1UECxMDSWNlMRYwFAYDVQQDEw1aZXJvQyBUZXN0IENBMR0wGwYJKoZI
hvcNAQkBFg5pbmZvQHplcm9jLmNvbYIBADAXBgNVHREEEDAOggZjbGllbnSHBH8A
AAEwDQYJKoZIhvcNAQEEBQADggEBABrYxJA0QuQu5ytqsVBUzeJ9iRTIpHGwEP1n
DJtm9VVeDk/GXy6kPc4uOzCnoxTxg6AULSzzHL2TfR1b8udruRfENlSntl+Un3l+
SeiSsX/PJ6d/DnaGnkh+YfWvwDtyx3g6Fs3psL0zT6E6Cbry8WA20ro7Nn43lovY
v9u4Vc/nLKwrdvkrizCKVrGq2AT3B8Wlgi1AWQF2Kbjg6DeOrpQw92Agnme26hog
x33DeS3chsnmuUMRrMO3TjVdkf7LdzU/4NjiL6DIWC2sH2tTxDYKbXn0zJoz+7j/
vlXBgrBj7Rz7Iuewh+5XBPi++gPuJGHwB4aet0HTK73EG9uF7IE=
-----END CERTIFICATE-----
