Certificate:
    Data:
        Version: 3 (0x2)
        Serial Number: 1 (0x1)
        Signature Algorithm: md5WithRSAEncryption
        Issuer: C=US, ST=Florida, L=Palm Beach Gardens, O=ZeroC, Inc., OU=Ice, CN=ZeroC Test CA 1/emailAddress=info@zeroc.com
        Validity
            Not Before: Sep 23 15:11:16 2009 GMT
            Not After : Sep 21 15:11:16 2019 GMT
        Subject: C=US, ST=Florida, O=ZeroC, Inc., OU=Ice/emailAddress=info@zeroc.com, CN=Client
        Subject Public Key Info:
            Public Key Algorithm: rsaEncryption
            RSA Public Key: (1024 bit)
                Modulus (1024 bit):
                    00:e1:1c:80:d0:92:c5:38:23:ff:60:ee:eb:c5:fc:
                    8a:7c:cb:09:98:6c:9e:30:21:bb:92:23:94:86:07:
                    02:e7:a4:30:d7:2d:6b:11:a6:f6:90:1c:f0:fd:b0:
                    40:a1:a1:d5:09:56:66:f8:53:7e:f2:ea:cf:0d:7d:
                    1f:c5:fa:25:7b:55:0b:22:a6:62:ed:f9:55:af:44:
                    89:a9:a2:49:b0:c1:f9:e4:fe:7e:f4:2f:f8:b0:af:
                    5a:b4:b8:96:72:8b:45:5f:4d:bb:49:d3:69:9f:31:
                    b9:82:44:8d:22:4b:d0:29:3a:4d:62:88:7f:71:3e:
                    c4:64:0d:0d:a9:24:d5:64:85
                Exponent: 65537 (0x10001)
        X509v3 extensions:
            X509v3 Basic Constraints: 
                CA:FALSE
            X509v3 Subject Key Identifier: 
                A0:03:38:A3:D9:66:F8:81:A5:C7:08:80:FA:42:D0:9F:87:0D:17:EB
            X509v3 Authority Key Identifier: 
                keyid:28:11:80:FD:88:57:63:47:6B:C0:BA:A6:CE:3A:C7:C4:7F:73:31:25
                DirName:/C=US/ST=Florida/L=Palm Beach Gardens/O=ZeroC, Inc./OU=Ice/CN=ZeroC Test CA 1/emailAddress=info@zeroc.com
                serial:DD:26:15:4D:4C:3F:B6:11

            X509v3 Subject Alternative Name: 
                DNS:client, IP Address:127.0.0.1
    Signature Algorithm: md5WithRSAEncryption
        b7:fc:74:62:99:6d:06:c7:bf:fa:d5:ff:ef:54:be:3b:7c:c9:
        9d:b7:a6:86:37:a3:79:1f:31:47:e2:e5:f4:31:27:71:bf:1d:
        5d:73:36:5b:ed:ff:7b:3f:3f:b8:96:91:2c:cc:2a:6c:67:43:
        e0:c8:3b:35:f5:f8:d8:8b:41:fd:19:ef:90:85:40:31:19:d5:
        e5:cd:f8:02:42:54:21:af:e2:ed:ed:17:d2:42:6b:0a:a4:64:
        f3:08:51:fd:11:c3:98:7e:02:d8:54:3b:48:9e:fa:2b:5a:f0:
        18:6a:2e:94:e7:9c:47:10:4f:35:32:69:ef:49:eb:d0:11:f5:
        b7:70
-----BEGIN CERTIFICATE-----
MIIDnTCCAwagAwIBAgIBATANBgkqhkiG9w0BAQQFADCBmTELMAkGA1UEBhMCVVMx
EDAOBgNVBAgTB0Zsb3JpZGExGzAZBgNVBAcTElBhbG0gQmVhY2ggR2FyZGVuczEU
MBIGA1UEChMLWmVyb0MsIEluYy4xDDAKBgNVBAsTA0ljZTEYMBYGA1UEAxMPWmVy
b0MgVGVzdCBDQSAxMR0wGwYJKoZIhvcNAQkBFg5pbmZvQHplcm9jLmNvbTAeFw0w
OTA5MjMxNTExMTZaFw0xOTA5MjExNTExMTZaMHMxCzAJBgNVBAYTAlVTMRAwDgYD
VQQIEwdGbG9yaWRhMRQwEgYDVQQKEwtaZXJvQywgSW5jLjEMMAoGA1UECxMDSWNl
MR0wGwYJKoZIhvcNAQkBFg5pbmZvQHplcm9jLmNvbTEPMA0GA1UEAxMGQ2xpZW50
MIGfMA0GCSqGSIb3DQEBAQUAA4GNADCBiQKBgQDhHIDQksU4I/9g7uvF/Ip8ywmY
bJ4wIbuSI5SGBwLnpDDXLWsRpvaQHPD9sEChodUJVmb4U37y6s8NfR/F+iV7VQsi
pmLt+VWvRImpokmwwfnk/n70L/iwr1q0uJZyi0VfTbtJ02mfMbmCRI0iS9ApOk1i
iH9xPsRkDQ2pJNVkhQIDAQABo4IBGDCCARQwCQYDVR0TBAIwADAdBgNVHQ4EFgQU
oAM4o9lm+IGlxwiA+kLQn4cNF+swgc4GA1UdIwSBxjCBw4AUKBGA/YhXY0drwLqm
zjrHxH9zMSWhgZ+kgZwwgZkxCzAJBgNVBAYTAlVTMRAwDgYDVQQIEwdGbG9yaWRh
MRswGQYDVQQHExJQYWxtIEJlYWNoIEdhcmRlbnMxFDASBgNVBAoTC1plcm9DLCBJ
bmMuMQwwCgYDVQQLEwNJY2UxGDAWBgNVBAMTD1plcm9DIFRlc3QgQ0EgMTEdMBsG
CSqGSIb3DQEJARYOaW5mb0B6ZXJvYy5jb22CCQDdJhVNTD+2ETAXBgNVHREEEDAO
ggZjbGllbnSHBH8AAAEwDQYJKoZIhvcNAQEEBQADgYEAt/x0YpltBse/+tX/71S+
O3zJnbemhjejeR8xR+Ll9DEncb8dXXM2W+3/ez8/uJaRLMwqbGdD4Mg7NfX42ItB
/RnvkIVAMRnV5c34AkJUIa/i7e0X0kJrCqRk8whR/RHDmH4C2FQ7SJ76K1rwGGou
lOecRxBPNTJp70nr0BH1t3A=
-----END CERTIFICATE-----
