Certificate:
    Data:
        Version: 3 (0x2)
        Serial Number: 1 (0x1)
        Signature Algorithm: md5WithRSAEncryption
        Issuer: C=US, ST=Florida, L=Palm Beach Gardens, O=ZeroC, Inc., OU=Ice, CN=ZeroC Test CA/emailAddress=info@zeroc.com
        Validity
            Not Before: Mar 31 16:19:55 2006 GMT
            Not After : Mar 28 16:19:55 2016 GMT
        Subject: C=US, ST=Florida, O=ZeroC, Inc., OU=Ice/emailAddress=info@zeroc.com, CN=Client
        Subject Public Key Info:
            Public Key Algorithm: rsaEncryption
            RSA Public Key: (1024 bit)
                Modulus (1024 bit):
                    00:99:93:d6:94:df:78:2b:1e:6a:56:6f:17:0a:98:
                    e6:5a:a0:8c:87:f9:db:8b:6d:00:84:97:e1:59:a8:
                    bf:81:c4:c1:31:4c:20:d9:6e:ac:77:c3:e8:3e:02:
                    90:4a:25:4b:a6:30:21:e6:86:25:22:ef:ce:1f:0e:
                    26:d2:92:f5:cc:51:96:2e:ad:59:43:43:fb:a3:4b:
                    6e:ca:67:c7:55:d7:e1:55:71:9f:3b:e5:61:f8:0c:
                    f6:14:69:4d:30:96:4a:dc:36:ee:dd:e6:74:fa:7f:
                    dc:43:75:92:ba:65:bc:a6:85:cf:29:46:50:e4:64:
                    10:03:c6:5a:df:a4:87:23:31
                Exponent: 65537 (0x10001)
        X509v3 extensions:
            X509v3 Basic Constraints: 
            CA:FALSE
            X509v3 Subject Key Identifier: 
            E4:94:15:70:1C:3E:96:04:46:FC:78:32:39:40:39:E6:4A:9A:D0:FF
            X509v3 Authority Key Identifier: 
            keyid:5A:A7:44:4D:31:6D:4F:2F:BE:07:F4:C6:59:06:53:08:D7:0E:46:CE
            DirName:/C=US/ST=Florida/L=Palm Beach Gardens/O=ZeroC, Inc./OU=Ice/CN=ZeroC Test CA/emailAddress=info@zeroc.com
            serial:00

            X509v3 Subject Alternative Name: 
            DNS:client, IP Address:127.0.0.1
    Signature Algorithm: md5WithRSAEncryption
        3f:ed:20:7b:d7:7a:86:ea:65:e5:da:53:28:50:62:5a:7d:76:
        98:ed:04:3d:ac:cc:20:4f:d4:6d:74:59:8c:ec:2c:67:42:1b:
        fb:1b:e8:db:02:c0:70:81:eb:1b:78:78:11:5a:b0:ed:d9:a0:
        c4:a0:89:1f:7d:0e:80:6e:2d:91:68:b5:2e:59:1a:93:88:d3:
        e8:8f:fc:e2:67:9d:f1:b3:ca:90:f7:e1:73:3d:7c:e2:5f:07:
        17:17:22:3f:5d:92:b7:7b:22:4a:8e:2d:31:b8:83:52:27:16:
        d9:e1:d2:f1:fc:00:16:22:a2:a4:53:15:1e:98:63:12:fa:92:
        56:db:f6:2c:aa:de:f6:38:95:84:c9:fc:29:48:30:da:bd:a7:
        9b:27:e5:7e:01:4a:80:90:d7:93:36:e1:d4:77:3a:db:b1:6a:
        36:08:4a:50:28:5b:97:8d:08:ed:3b:73:a9:c3:a1:1e:21:7c:
        f2:dd:93:a0:83:9b:7f:9a:46:f9:ea:86:eb:81:5d:af:91:9d:
        67:b3:ab:fa:1d:12:0c:dd:38:5e:5d:0e:ca:da:e3:79:a3:91:
        82:63:02:39:20:7b:f3:39:28:6e:c2:35:4c:48:29:ed:26:45:
        fa:a6:60:ab:b8:bc:cb:51:a0:96:b5:69:8f:30:e9:f7:f6:d7:
        ff:c8:dd:83
-----BEGIN CERTIFICATE-----
MIIEEjCCAvqgAwIBAgIBATANBgkqhkiG9w0BAQQFADCBlzELMAkGA1UEBhMCVVMx
EDAOBgNVBAgTB0Zsb3JpZGExGzAZBgNVBAcTElBhbG0gQmVhY2ggR2FyZGVuczEU
MBIGA1UEChMLWmVyb0MsIEluYy4xDDAKBgNVBAsTA0ljZTEWMBQGA1UEAxMNWmVy
b0MgVGVzdCBDQTEdMBsGCSqGSIb3DQEJARYOaW5mb0B6ZXJvYy5jb20wHhcNMDYw
MzMxMTYxOTU1WhcNMTYwMzI4MTYxOTU1WjBzMQswCQYDVQQGEwJVUzEQMA4GA1UE
CBMHRmxvcmlkYTEUMBIGA1UEChMLWmVyb0MsIEluYy4xDDAKBgNVBAsTA0ljZTEd
MBsGCSqGSIb3DQEJARYOaW5mb0B6ZXJvYy5jb20xDzANBgNVBAMTBkNsaWVudDCB
nzANBgkqhkiG9w0BAQEFAAOBjQAwgYkCgYEAmZPWlN94Kx5qVm8XCpjmWqCMh/nb
i20AhJfhWai/gcTBMUwg2W6sd8PoPgKQSiVLpjAh5oYlIu/OHw4m0pL1zFGWLq1Z
Q0P7o0tuymfHVdfhVXGfO+Vh+Az2FGlNMJZK3Dbu3eZ0+n/cQ3WSumW8poXPKUZQ
5GQQA8Za36SHIzECAwEAAaOCAQ4wggEKMAkGA1UdEwQCMAAwHQYDVR0OBBYEFOSU
FXAcPpYERvx4MjlAOeZKmtD/MIHEBgNVHSMEgbwwgbmAFFqnRE0xbU8vvgf0xlkG
UwjXDkbOoYGdpIGaMIGXMQswCQYDVQQGEwJVUzEQMA4GA1UECBMHRmxvcmlkYTEb
MBkGA1UEBxMSUGFsbSBCZWFjaCBHYXJkZW5zMRQwEgYDVQQKEwtaZXJvQywgSW5j
LjEMMAoGA1UECxMDSWNlMRYwFAYDVQQDEw1aZXJvQyBUZXN0IENBMR0wGwYJKoZI
hvcNAQkBFg5pbmZvQHplcm9jLmNvbYIBADAXBgNVHREEEDAOggZjbGllbnSHBH8A
AAEwDQYJKoZIhvcNAQEEBQADggEBAD/tIHvXeobqZeXaUyhQYlp9dpjtBD2szCBP
1G10WYzsLGdCG/sb6NsCwHCB6xt4eBFasO3ZoMSgiR99DoBuLZFotS5ZGpOI0+iP
/OJnnfGzypD34XM9fOJfBxcXIj9dkrd7IkqOLTG4g1InFtnh0vH8ABYioqRTFR6Y
YxL6klbb9iyq3vY4lYTJ/ClIMNq9p5sn5X4BSoCQ15M24dR3OtuxajYISlAoW5eN
CO07c6nDoR4hfPLdk6CDm3+aRvnqhuuBXa+RnWezq/odEgzdOF5dDsra43mjkYJj
Ajkge/M5KG7CNUxIKe0mRfqmYKu4vMtRoJa1aY8w6ff21//I3YM=
-----END CERTIFICATE-----
