Certificate:
    Data:
        Version: 3 (0x2)
        Serial Number: 1 (0x1)
        Signature Algorithm: md5WithRSAEncryption
        Issuer: C=US, ST=Florida, L=Palm Beach Gardens, O=ZeroC, Inc., OU=Ice, CN=ZeroC Test CA/emailAddress=info@zeroc.com
        Validity
            Not Before: Mar 28 18:09:57 2006 GMT
            Not After : Dec 31 00:00:00 2005 GMT
        Subject: C=US, ST=Florida, O=ZeroC, Inc., OU=Ice/emailAddress=info@zeroc.com, CN=Client
        Subject Public Key Info:
            Public Key Algorithm: rsaEncryption
            RSA Public Key: (1024 bit)
                Modulus (1024 bit):
                    00:a3:c2:b1:0a:88:e6:ac:a9:87:0d:f8:94:fb:c1:
                    c0:16:b1:1a:6f:04:e0:14:0e:c2:aa:ee:1d:ef:c9:
                    c0:bc:ec:8a:41:88:2a:2d:2b:fd:15:ac:83:2f:3c:
                    f5:86:e1:bb:71:45:07:2e:16:5e:d8:4d:0b:70:dd:
                    5c:c4:96:29:02:d7:4f:f6:7f:82:99:01:cb:87:d7:
                    be:0f:e5:b8:e2:7c:7a:70:19:d9:7c:78:b2:9b:23:
                    a3:0a:cc:88:80:da:94:2d:5f:f7:2f:25:db:8b:15:
                    70:3a:51:55:b9:cd:e6:bb:d6:f0:46:ab:28:61:cd:
                    27:9b:6b:b7:0b:3e:d1:fd:a1
                Exponent: 65537 (0x10001)
        X509v3 extensions:
            X509v3 Basic Constraints: 
            CA:FALSE
            X509v3 Subject Key Identifier: 
            2C:1A:E5:40:AA:C6:AB:5B:E6:0C:8F:A4:21:02:DE:35:5F:C4:02:B3
            X509v3 Authority Key Identifier: 
            keyid:A3:8D:7D:FF:A8:69:1E:7C:54:58:46:61:FE:B7:68:BC:2C:FC:CB:DE
            DirName:/C=US/ST=Florida/L=Palm Beach Gardens/O=ZeroC, Inc./OU=Ice/CN=ZeroC Test CA/emailAddress=info@zeroc.com
            serial:00

            X509v3 Subject Alternative Name: 
            DNS:client, IP Address:127.0.0.1
    Signature Algorithm: md5WithRSAEncryption
        ea:a6:22:d8:a8:09:b9:e9:d3:80:de:c9:07:88:09:ef:b8:14:
        d7:28:a9:dc:48:b2:95:bc:4a:e6:9a:98:81:6d:f6:b9:84:2d:
        8e:bf:bf:97:b7:b7:74:30:91:6f:a2:3a:c1:f4:30:b4:b9:df:
        71:3d:e5:92:9d:70:51:e9:c8:89:7c:a7:21:f9:6f:dc:f0:d8:
        6e:0c:94:3c:3e:c5:0f:33:7a:29:0a:b1:d5:8e:91:00:cd:ad:
        e0:28:87:3f:e1:bc:e6:e0:d8:27:93:96:10:2a:23:b4:5b:15:
        33:b7:7b:27:a0:5f:aa:2e:80:e8:e4:95:88:c2:96:69:87:cd:
        ff:4f:56:db:94:95:c8:e9:62:54:2b:0b:dd:78:a2:70:e8:a2:
        b8:02:5b:a2:59:77:aa:9a:46:d4:35:d8:52:ac:a2:3c:65:6c:
        11:05:19:97:8f:aa:47:c6:b9:5f:b2:22:5f:4a:c3:d9:89:5b:
        50:0b:87:f7:c2:89:a6:5c:2d:84:83:c6:6e:f4:20:77:12:7d:
        30:61:94:a9:07:8f:55:f5:21:fe:06:d5:bb:3d:67:ee:f8:87:
        5b:f7:f1:78:e1:2e:4b:14:fe:6d:d9:3b:c6:d0:65:ed:00:a9:
        5c:e0:c2:0f:5d:0d:71:d8:8d:db:bd:57:f5:f9:68:5b:31:2a:
        e4:0f:b4:3a
-----BEGIN CERTIFICATE-----
MIIEEjCCAvqgAwIBAgIBATANBgkqhkiG9w0BAQQFADCBlzELMAkGA1UEBhMCVVMx
EDAOBgNVBAgTB0Zsb3JpZGExGzAZBgNVBAcTElBhbG0gQmVhY2ggR2FyZGVuczEU
MBIGA1UEChMLWmVyb0MsIEluYy4xDDAKBgNVBAsTA0ljZTEWMBQGA1UEAxMNWmVy
b0MgVGVzdCBDQTEdMBsGCSqGSIb3DQEJARYOaW5mb0B6ZXJvYy5jb20wHhcNMDYw
MzI4MTgwOTU3WhcNMDUxMjMxMDAwMDAwWjBzMQswCQYDVQQGEwJVUzEQMA4GA1UE
CBMHRmxvcmlkYTEUMBIGA1UEChMLWmVyb0MsIEluYy4xDDAKBgNVBAsTA0ljZTEd
MBsGCSqGSIb3DQEJARYOaW5mb0B6ZXJvYy5jb20xDzANBgNVBAMTBkNsaWVudDCB
nzANBgkqhkiG9w0BAQEFAAOBjQAwgYkCgYEAo8KxCojmrKmHDfiU+8HAFrEabwTg
FA7Cqu4d78nAvOyKQYgqLSv9FayDLzz1huG7cUUHLhZe2E0LcN1cxJYpAtdP9n+C
mQHLh9e+D+W44nx6cBnZfHiymyOjCsyIgNqULV/3LyXbixVwOlFVuc3mu9bwRqso
Yc0nm2u3Cz7R/aECAwEAAaOCAQ4wggEKMAkGA1UdEwQCMAAwHQYDVR0OBBYEFCwa
5UCqxqtb5gyPpCEC3jVfxAKzMIHEBgNVHSMEgbwwgbmAFKONff+oaR58VFhGYf63
aLws/MveoYGdpIGaMIGXMQswCQYDVQQGEwJVUzEQMA4GA1UECBMHRmxvcmlkYTEb
MBkGA1UEBxMSUGFsbSBCZWFjaCBHYXJkZW5zMRQwEgYDVQQKEwtaZXJvQywgSW5j
LjEMMAoGA1UECxMDSWNlMRYwFAYDVQQDEw1aZXJvQyBUZXN0IENBMR0wGwYJKoZI
hvcNAQkBFg5pbmZvQHplcm9jLmNvbYIBADAXBgNVHREEEDAOggZjbGllbnSHBH8A
AAEwDQYJKoZIhvcNAQEEBQADggEBAOqmItioCbnp04DeyQeICe+4FNcoqdxIspW8
SuaamIFt9rmELY6/v5e3t3QwkW+iOsH0MLS533E95ZKdcFHpyIl8pyH5b9zw2G4M
lDw+xQ8zeikKsdWOkQDNreAohz/hvObg2CeTlhAqI7RbFTO3eyegX6ougOjklYjC
lmmHzf9PVtuUlcjpYlQrC914onDoorgCW6JZd6qaRtQ12FKsojxlbBEFGZePqkfG
uV+yIl9Kw9mJW1ALh/fCiaZcLYSDxm70IHcSfTBhlKkHj1X1If4G1bs9Z+74h1v3
8XjhLksU/m3ZO8bQZe0AqVzgwg9dDXHYjdu9V/X5aFsxKuQPtDo=
-----END CERTIFICATE-----
