Certificate:
    Data:
        Version: 3 (0x2)
        Serial Number: 1 (0x1)
        Signature Algorithm: md5WithRSAEncryption
        Issuer: C=US, ST=Florida, L=Palm Beach Gardens, O=ZeroC, Inc., OU=Ice, CN=ZeroC Test CA 1/emailAddress=info@zeroc.com
        Validity
            Not Before: Mar 31 16:55:17 2006 GMT
            Not After : Mar 28 16:55:17 2016 GMT
        Subject: C=US, ST=Florida, O=ZeroC, Inc., OU=Ice/emailAddress=info@zeroc.com, CN=Client
        Subject Public Key Info:
            Public Key Algorithm: rsaEncryption
            RSA Public Key: (1024 bit)
                Modulus (1024 bit):
                    00:c8:86:0d:ac:22:f0:bc:05:8a:f8:ec:4c:69:4b:
                    0e:1b:c8:c5:7e:1f:48:72:5d:17:b7:14:2c:db:ad:
                    1a:bd:93:db:5a:d6:76:09:cf:29:0a:6d:1d:1c:1f:
                    26:57:67:b4:de:35:b5:cb:83:53:88:46:19:5a:b7:
                    5e:be:e4:54:5e:ca:fb:d1:d9:e6:3a:2f:03:22:96:
                    e4:2c:3f:93:80:4a:1a:38:d3:23:ee:a7:33:22:86:
                    d5:86:4b:1f:a1:97:b0:a0:75:75:8e:2d:57:68:d5:
                    90:41:cc:61:7a:03:b8:7f:25:b9:06:74:68:a1:4e:
                    99:8b:f2:df:dd:54:d1:7c:2b
                Exponent: 65537 (0x10001)
        X509v3 extensions:
            X509v3 Basic Constraints: 
            CA:FALSE
            X509v3 Subject Key Identifier: 
            5F:4E:19:42:FC:68:15:40:4E:E7:DD:7D:B0:CA:CC:99:24:4A:CA:7B
            X509v3 Authority Key Identifier: 
            keyid:CB:05:05:F0:3E:A1:4A:A1:CB:07:6F:86:8B:AF:EE:A5:E4:CA:62:BD
            DirName:/C=US/ST=Florida/L=Palm Beach Gardens/O=ZeroC, Inc./OU=Ice/CN=ZeroC Test CA 1/emailAddress=info@zeroc.com
            serial:00

            X509v3 Subject Alternative Name: 
            DNS:client, IP Address:127.0.0.1
    Signature Algorithm: md5WithRSAEncryption
        c6:27:d0:62:a2:b3:a5:be:88:a2:c6:cc:6e:07:86:82:e7:4d:
        00:e1:55:02:46:22:df:7d:45:eb:b6:9e:a1:ae:b9:93:13:1f:
        b9:c2:98:01:03:e6:89:fc:a3:f3:ad:50:df:9d:dc:3d:12:87:
        75:44:5d:58:78:7a:97:56:9a:fc:82:40:42:0e:49:da:60:f2:
        59:b1:ed:f3:38:7d:cd:e8:58:f9:56:40:a5:c5:bc:10:34:d3:
        e5:08:4e:06:95:12:3f:93:72:c0:4a:98:3f:46:0a:ef:be:e3:
        a7:05:c9:7f:2e:0e:50:28:6d:00:9d:a0:b6:ed:3a:ff:66:72:
        32:41:d8:46:0c:5b:94:1c:96:dc:b1:f2:3b:13:37:fb:88:0a:
        33:31:a8:9b:1c:9b:00:0e:98:3f:f9:fc:3b:55:b8:c4:58:d4:
        cd:24:ad:73:e0:14:74:8a:4e:69:23:c7:bc:d2:5d:68:30:a7:
        c3:d3:34:3f:4e:9c:b8:16:60:bb:63:05:9c:c2:6f:f2:f3:bf:
        d2:2d:67:14:17:7b:9b:a3:4c:84:bb:8c:6d:44:77:2e:8e:d8:
        2b:4a:db:1c:0e:66:95:15:4a:7c:dc:32:97:42:f7:0a:29:2d:
        c5:6c:e4:d3:83:67:51:1c:a5:fe:34:c6:4a:00:1c:1f:df:27:
        67:cc:0b:44
-----BEGIN CERTIFICATE-----
MIIEFjCCAv6gAwIBAgIBATANBgkqhkiG9w0BAQQFADCBmTELMAkGA1UEBhMCVVMx
EDAOBgNVBAgTB0Zsb3JpZGExGzAZBgNVBAcTElBhbG0gQmVhY2ggR2FyZGVuczEU
MBIGA1UEChMLWmVyb0MsIEluYy4xDDAKBgNVBAsTA0ljZTEYMBYGA1UEAxMPWmVy
b0MgVGVzdCBDQSAxMR0wGwYJKoZIhvcNAQkBFg5pbmZvQHplcm9jLmNvbTAeFw0w
NjAzMzExNjU1MTdaFw0xNjAzMjgxNjU1MTdaMHMxCzAJBgNVBAYTAlVTMRAwDgYD
VQQIEwdGbG9yaWRhMRQwEgYDVQQKEwtaZXJvQywgSW5jLjEMMAoGA1UECxMDSWNl
MR0wGwYJKoZIhvcNAQkBFg5pbmZvQHplcm9jLmNvbTEPMA0GA1UEAxMGQ2xpZW50
MIGfMA0GCSqGSIb3DQEBAQUAA4GNADCBiQKBgQDIhg2sIvC8BYr47ExpSw4byMV+
H0hyXRe3FCzbrRq9k9ta1nYJzykKbR0cHyZXZ7TeNbXLg1OIRhlat16+5FReyvvR
2eY6LwMiluQsP5OASho40yPupzMihtWGSx+hl7CgdXWOLVdo1ZBBzGF6A7h/JbkG
dGihTpmL8t/dVNF8KwIDAQABo4IBEDCCAQwwCQYDVR0TBAIwADAdBgNVHQ4EFgQU
X04ZQvxoFUBO5919sMrMmSRKynswgcYGA1UdIwSBvjCBu4AUywUF8D6hSqHLB2+G
i6/upeTKYr2hgZ+kgZwwgZkxCzAJBgNVBAYTAlVTMRAwDgYDVQQIEwdGbG9yaWRh
MRswGQYDVQQHExJQYWxtIEJlYWNoIEdhcmRlbnMxFDASBgNVBAoTC1plcm9DLCBJ
bmMuMQwwCgYDVQQLEwNJY2UxGDAWBgNVBAMTD1plcm9DIFRlc3QgQ0EgMTEdMBsG
CSqGSIb3DQEJARYOaW5mb0B6ZXJvYy5jb22CAQAwFwYDVR0RBBAwDoIGY2xpZW50
hwR/AAABMA0GCSqGSIb3DQEBBAUAA4IBAQDGJ9BiorOlvoiixsxuB4aC500A4VUC
RiLffUXrtp6hrrmTEx+5wpgBA+aJ/KPzrVDfndw9Eod1RF1YeHqXVpr8gkBCDkna
YPJZse3zOH3N6Fj5VkClxbwQNNPlCE4GlRI/k3LASpg/RgrvvuOnBcl/Lg5QKG0A
naC27Tr/ZnIyQdhGDFuUHJbcsfI7Ezf7iAozMaibHJsADpg/+fw7VbjEWNTNJK1z
4BR0ik5pI8e80l1oMKfD0zQ/Tpy4FmC7YwWcwm/y87/SLWcUF3ubo0yEu4xtRHcu
jtgrStscDmaVFUp83DKXQvcKKS3FbOTTg2dRHKX+NMZKABwf3ydnzAtE
-----END CERTIFICATE-----
