Certificate:
    Data:
        Version: 3 (0x2)
        Serial Number: 2 (0x2)
    Signature Algorithm: sha256WithRSAEncryption
        Issuer: C=US, ST=Florida, L=Palm Beach Gardens, O=ZeroC, Inc., OU=Ice, CN=ZeroC Test CA 1/emailAddress=info@zeroc.com
        Validity
            Not Before: Aug 19 14:40:37 2014 GMT
            Not After : Aug 16 14:40:37 2024 GMT
        Subject: C=US, ST=Florida, O=ZeroC, Inc., OU=Ice/emailAddress=info@zeroc.com, CN=Client
        Subject Public Key Info:
            Public Key Algorithm: rsaEncryption
                Public-Key: (1024 bit)
                Modulus:
                    00:d4:4a:91:65:62:27:7d:41:c8:67:f9:38:e8:1d:
                    1c:e1:d5:1d:43:a0:63:f2:9e:73:cb:bd:d4:95:07:
                    4b:26:12:88:bd:3f:84:91:32:5d:df:dc:80:bb:d0:
                    6e:de:a9:81:9b:17:39:06:2b:87:33:9a:4e:e9:e5:
                    e3:51:e4:49:47:30:6c:35:4b:8a:80:84:11:14:6c:
                    c8:57:1d:68:2f:e8:b7:68:91:24:75:51:40:a2:f9:
                    b8:33:c4:06:e8:2b:ee:09:f5:71:6d:b0:9c:a5:32:
                    15:3c:20:0b:43:06:b1:5b:b4:0c:23:cb:cd:6f:30:
                    4d:23:1f:b1:9e:63:7d:9e:ff
                Exponent: 65537 (0x10001)
        X509v3 extensions:
            X509v3 Basic Constraints: 
                CA:FALSE
            X509v3 Subject Key Identifier: 
                58:77:81:07:55:2A:0C:10:19:88:13:47:6F:27:6E:21:75:5F:85:CA
            X509v3 Authority Key Identifier: 
                keyid:13:FA:72:67:FE:34:05:9A:C9:3E:61:D2:91:D6:BA:03:65:1B:8A:9A
                DirName:/C=US/ST=Florida/L=Palm Beach Gardens/O=ZeroC, Inc./OU=Ice/CN=ZeroC Test CA 1/emailAddress=info@zeroc.com
                serial:CE:8A:67:ED:96:6F:7E:B6

            X509v3 Subject Alternative Name: 
                DNS:client, IP Address:127.0.0.1
    Signature Algorithm: sha256WithRSAEncryption
         74:35:66:b0:fb:07:aa:40:f4:1a:6f:2e:02:fb:08:59:9b:5e:
         af:ec:2a:05:c9:ec:ae:ed:ae:d6:a0:b9:8b:fb:72:58:d6:85:
         a6:f4:28:de:9f:dc:d5:45:0b:65:ce:28:55:f9:45:65:11:58:
         33:81:22:4c:ff:80:45:b7:47:cd:45:27:77:62:99:51:b8:d4:
         fa:39:1e:ac:4d:90:2e:5c:ef:a9:02:df:9d:d7:cd:4f:3f:86:
         05:05:84:36:ed:70:c0:96:58:71:87:7d:f9:f5:4a:91:d0:69:
         e1:da:22:24:6b:ed:9c:52:df:ba:81:c2:64:cd:cc:58:8f:9e:
         f0:3c
-----BEGIN CERTIFICATE-----
MIIDnTCCAwagAwIBAgIBAjANBgkqhkiG9w0BAQsFADCBmTELMAkGA1UEBhMCVVMx
EDAOBgNVBAgTB0Zsb3JpZGExGzAZBgNVBAcTElBhbG0gQmVhY2ggR2FyZGVuczEU
MBIGA1UEChMLWmVyb0MsIEluYy4xDDAKBgNVBAsTA0ljZTEYMBYGA1UEAxMPWmVy
b0MgVGVzdCBDQSAxMR0wGwYJKoZIhvcNAQkBFg5pbmZvQHplcm9jLmNvbTAeFw0x
NDA4MTkxNDQwMzdaFw0yNDA4MTYxNDQwMzdaMHMxCzAJBgNVBAYTAlVTMRAwDgYD
VQQIEwdGbG9yaWRhMRQwEgYDVQQKEwtaZXJvQywgSW5jLjEMMAoGA1UECxMDSWNl
MR0wGwYJKoZIhvcNAQkBFg5pbmZvQHplcm9jLmNvbTEPMA0GA1UEAxMGQ2xpZW50
MIGfMA0GCSqGSIb3DQEBAQUAA4GNADCBiQKBgQDUSpFlYid9Qchn+TjoHRzh1R1D
oGPynnPLvdSVB0smEoi9P4SRMl3f3IC70G7eqYGbFzkGK4czmk7p5eNR5ElHMGw1
S4qAhBEUbMhXHWgv6LdokSR1UUCi+bgzxAboK+4J9XFtsJylMhU8IAtDBrFbtAwj
y81vME0jH7GeY32e/wIDAQABo4IBGDCCARQwCQYDVR0TBAIwADAdBgNVHQ4EFgQU
WHeBB1UqDBAZiBNHbyduIXVfhcowgc4GA1UdIwSBxjCBw4AUE/pyZ/40BZrJPmHS
kda6A2UbipqhgZ+kgZwwgZkxCzAJBgNVBAYTAlVTMRAwDgYDVQQIEwdGbG9yaWRh
MRswGQYDVQQHExJQYWxtIEJlYWNoIEdhcmRlbnMxFDASBgNVBAoTC1plcm9DLCBJ
bmMuMQwwCgYDVQQLEwNJY2UxGDAWBgNVBAMTD1plcm9DIFRlc3QgQ0EgMTEdMBsG
CSqGSIb3DQEJARYOaW5mb0B6ZXJvYy5jb22CCQDOimftlm9+tjAXBgNVHREEEDAO
ggZjbGllbnSHBH8AAAEwDQYJKoZIhvcNAQELBQADgYEAdDVmsPsHqkD0Gm8uAvsI
WZter+wqBcnsru2u1qC5i/tyWNaFpvQo3p/c1UULZc4oVflFZRFYM4EiTP+ARbdH
zUUnd2KZUbjU+jkerE2QLlzvqQLfndfNTz+GBQWENu1wwJZYcYd9+fVKkdBp4doi
JGvtnFLfuoHCZM3MWI+e8Dw=
-----END CERTIFICATE-----
