Certificate:
    Data:
        Version: 3 (0x2)
        Serial Number: 1 (0x1)
        Signature Algorithm: sha1WithRSAEncryption
        Issuer: C=US, ST=Florida, L=Palm Beach Gardens, O=ZeroC, Inc., OU=Ice, CN=ZeroC Test CA 1/emailAddress=info@zeroc.com
        Validity
            Not Before: Mar 17 14:50:34 2010 GMT
            Not After : Mar 14 14:50:34 2020 GMT
        Subject: C=US, ST=Florida, O=ZeroC, Inc., OU=Ice/emailAddress=info@zeroc.com, CN=Client
        Subject Public Key Info:
            Public Key Algorithm: rsaEncryption
                Public-Key: (1024 bit)
                Modulus:
                    00:d9:4a:2f:c0:7d:97:5c:1b:f7:42:82:9e:cd:c0:
                    8e:5b:e4:de:21:d7:a4:63:91:49:32:8c:b9:be:8c:
                    30:d9:2e:13:6b:a2:b0:0b:6c:4f:db:cd:8d:a9:0b:
                    9b:8e:cf:f4:cf:d9:82:63:84:1e:f4:c1:9c:75:8f:
                    d5:5c:6b:ac:83:65:e3:ed:d8:b1:35:a0:90:b4:90:
                    21:81:aa:29:39:b0:dd:c0:20:d9:4b:2c:20:8c:6b:
                    af:0e:a0:e9:13:2b:42:1c:a0:58:10:b7:a3:66:2f:
                    f2:17:10:be:c4:0e:4d:ae:28:69:5c:cb:7d:37:45:
                    df:aa:ec:d1:b6:36:26:86:9f
                Exponent: 65537 (0x10001)
        X509v3 extensions:
            X509v3 Basic Constraints: 
                CA:FALSE
            X509v3 Subject Key Identifier: 
                87:FC:AE:41:A0:C9:34:E7:05:43:C9:89:96:2C:A9:8D:10:56:14:62
            X509v3 Authority Key Identifier: 
                keyid:A2:D9:80:2A:E4:91:8E:0B:85:B7:E4:D5:28:62:4F:C7:C9:8B:E8:D1
                DirName:/C=US/ST=Florida/L=Palm Beach Gardens/O=ZeroC, Inc./OU=Ice/CN=ZeroC Test CA 1/emailAddress=info@zeroc.com
                serial:94:31:70:AC:50:6A:15:99

            X509v3 Subject Alternative Name: 
                DNS:client, IP Address:127.0.0.1
    Signature Algorithm: sha1WithRSAEncryption
        7d:a2:77:2f:a4:0f:93:9c:c8:35:e2:fe:c5:15:9b:41:47:36:
        be:93:27:d3:c5:d5:d8:59:a7:46:98:4e:ae:c4:03:37:40:3e:
        45:0d:90:0e:b6:5e:00:af:6d:15:1f:c7:4d:1a:4d:67:e4:fa:
        b8:8d:63:58:13:cc:c4:60:23:a9:25:cb:dc:42:66:67:16:46:
        6b:64:93:a3:97:63:20:7a:f4:59:5b:b7:74:11:ea:d2:5c:af:
        2e:3c:8b:60:82:d6:8b:da:c6:db:bf:6a:f2:09:95:67:53:50:
        64:c6:35:55:ca:74:2e:8f:41:5b:8e:b8:ba:7a:91:6d:8b:28:
        1d:69
-----BEGIN CERTIFICATE-----
MIIDnTCCAwagAwIBAgIBATANBgkqhkiG9w0BAQUFADCBmTELMAkGA1UEBhMCVVMx
EDAOBgNVBAgTB0Zsb3JpZGExGzAZBgNVBAcTElBhbG0gQmVhY2ggR2FyZGVuczEU
MBIGA1UEChMLWmVyb0MsIEluYy4xDDAKBgNVBAsTA0ljZTEYMBYGA1UEAxMPWmVy
b0MgVGVzdCBDQSAxMR0wGwYJKoZIhvcNAQkBFg5pbmZvQHplcm9jLmNvbTAeFw0x
MDAzMTcxNDUwMzRaFw0yMDAzMTQxNDUwMzRaMHMxCzAJBgNVBAYTAlVTMRAwDgYD
VQQIEwdGbG9yaWRhMRQwEgYDVQQKEwtaZXJvQywgSW5jLjEMMAoGA1UECxMDSWNl
MR0wGwYJKoZIhvcNAQkBFg5pbmZvQHplcm9jLmNvbTEPMA0GA1UEAxMGQ2xpZW50
MIGfMA0GCSqGSIb3DQEBAQUAA4GNADCBiQKBgQDZSi/AfZdcG/dCgp7NwI5b5N4h
16RjkUkyjLm+jDDZLhNrorALbE/bzY2pC5uOz/TP2YJjhB70wZx1j9Vca6yDZePt
2LE1oJC0kCGBqik5sN3AINlLLCCMa68OoOkTK0IcoFgQt6NmL/IXEL7EDk2uKGlc
y303Rd+q7NG2NiaGnwIDAQABo4IBGDCCARQwCQYDVR0TBAIwADAdBgNVHQ4EFgQU
h/yuQaDJNOcFQ8mJliypjRBWFGIwgc4GA1UdIwSBxjCBw4AUotmAKuSRjguFt+TV
KGJPx8mL6NGhgZ+kgZwwgZkxCzAJBgNVBAYTAlVTMRAwDgYDVQQIEwdGbG9yaWRh
MRswGQYDVQQHExJQYWxtIEJlYWNoIEdhcmRlbnMxFDASBgNVBAoTC1plcm9DLCBJ
bmMuMQwwCgYDVQQLEwNJY2UxGDAWBgNVBAMTD1plcm9DIFRlc3QgQ0EgMTEdMBsG
CSqGSIb3DQEJARYOaW5mb0B6ZXJvYy5jb22CCQCUMXCsUGoVmTAXBgNVHREEEDAO
ggZjbGllbnSHBH8AAAEwDQYJKoZIhvcNAQEFBQADgYEAfaJ3L6QPk5zINeL+xRWb
QUc2vpMn08XV2FmnRphOrsQDN0A+RQ2QDrZeAK9tFR/HTRpNZ+T6uI1jWBPMxGAj
qSXL3EJmZxZGa2STo5djIHr0WVu3dBHq0lyvLjyLYILWi9rG279q8gmVZ1NQZMY1
Vcp0Lo9BW464unqRbYsoHWk=
-----END CERTIFICATE-----
