Certificate:
    Data:
        Version: 3 (0x2)
        Serial Number: 1 (0x1)
        Signature Algorithm: md5WithRSAEncryption
        Issuer: C=US, ST=Florida, L=Palm Beach Gardens, O=ZeroC, Inc., OU=Ice, CN=ZeroC Test CA/emailAddress=info@zeroc.com
        Validity
            Not Before: Mar 28 18:09:57 2006 GMT
            Not After : Mar 25 18:09:57 2016 GMT
        Subject: C=US, ST=Florida, O=ZeroC, Inc., OU=Ice/emailAddress=info@zeroc.com, CN=Client
        Subject Public Key Info:
            Public Key Algorithm: rsaEncryption
            RSA Public Key: (1024 bit)
                Modulus (1024 bit):
                    00:b9:e9:dc:e9:25:35:34:0c:f5:78:74:a6:0a:44:
                    15:a4:7d:09:f6:77:a2:9a:ff:2e:43:27:d8:c2:58:
                    b8:16:40:4e:ef:d2:ac:28:bc:b0:34:17:f1:0f:9e:
                    a0:76:27:30:24:c8:c8:60:f1:46:9e:8b:7d:96:c0:
                    11:4b:48:2f:38:ad:2a:4b:bf:72:b6:49:ac:ee:c5:
                    83:d2:d4:85:9d:c5:36:34:57:0e:1f:a9:bc:75:5e:
                    d1:c4:96:8b:66:f5:1b:aa:e0:d1:29:a4:5b:18:c1:
                    c6:4b:0d:09:41:3c:7c:e2:68:82:32:9f:2e:5e:b8:
                    bf:75:6d:02:aa:dc:63:e0:1f
                Exponent: 65537 (0x10001)
        X509v3 extensions:
            X509v3 Basic Constraints: 
            CA:FALSE
            X509v3 Subject Key Identifier: 
            9B:38:4C:97:AD:BB:3F:CF:36:52:53:8C:8E:3A:37:71:3E:87:F8:C3
            X509v3 Authority Key Identifier: 
            keyid:A3:8D:7D:FF:A8:69:1E:7C:54:58:46:61:FE:B7:68:BC:2C:FC:CB:DE
            DirName:/C=US/ST=Florida/L=Palm Beach Gardens/O=ZeroC, Inc./OU=Ice/CN=ZeroC Test CA/emailAddress=info@zeroc.com
            serial:00

            X509v3 Subject Alternative Name: 
            DNS:client, IP Address:127.0.0.1
    Signature Algorithm: md5WithRSAEncryption
        a2:ca:10:e7:7c:b3:4c:ba:76:c6:e9:8b:90:d3:70:0b:f7:3d:
        7d:c5:91:f0:29:e1:2b:d7:8b:b5:8d:e9:72:f0:ba:17:3f:88:
        4b:d9:11:30:da:1f:d8:25:be:62:ca:23:9a:8d:d7:6a:db:21:
        7c:fa:e4:54:54:db:17:6a:7f:c7:63:a8:35:e0:8c:fa:d0:5d:
        b6:e8:1a:ef:1b:98:ea:d0:a9:5c:46:ba:3d:4a:8b:e5:eb:f6:
        1a:ef:71:8a:f7:62:70:3a:6f:4c:06:3f:5e:39:57:fa:89:0b:
        ed:63:1f:fd:b8:18:ee:f6:de:cc:62:ef:f2:6a:da:16:3e:32:
        ab:d3:7f:4d:e8:16:61:61:da:64:8f:26:38:31:77:ef:cc:bc:
        82:34:2f:c5:31:ce:1a:78:40:4d:1d:ca:9f:75:db:e1:eb:54:
        df:b3:3c:bf:d1:13:91:4d:d1:a8:da:ef:89:31:70:3e:e0:bb:
        10:65:7d:b6:d6:98:5e:1c:9f:23:a6:12:b8:cc:be:bc:df:56:
        05:21:5d:27:df:0f:e8:24:04:df:f5:ae:de:3c:f1:17:7e:c0:
        74:2e:79:be:1f:7b:b8:b7:fe:bb:59:5d:d5:b2:ab:51:4d:d0:
        9e:df:5e:75:1b:4e:b8:18:dd:47:44:99:a5:6d:41:b1:9b:48:
        eb:ea:af:8b
-----BEGIN CERTIFICATE-----
MIIEEjCCAvqgAwIBAgIBATANBgkqhkiG9w0BAQQFADCBlzELMAkGA1UEBhMCVVMx
EDAOBgNVBAgTB0Zsb3JpZGExGzAZBgNVBAcTElBhbG0gQmVhY2ggR2FyZGVuczEU
MBIGA1UEChMLWmVyb0MsIEluYy4xDDAKBgNVBAsTA0ljZTEWMBQGA1UEAxMNWmVy
b0MgVGVzdCBDQTEdMBsGCSqGSIb3DQEJARYOaW5mb0B6ZXJvYy5jb20wHhcNMDYw
MzI4MTgwOTU3WhcNMTYwMzI1MTgwOTU3WjBzMQswCQYDVQQGEwJVUzEQMA4GA1UE
CBMHRmxvcmlkYTEUMBIGA1UEChMLWmVyb0MsIEluYy4xDDAKBgNVBAsTA0ljZTEd
MBsGCSqGSIb3DQEJARYOaW5mb0B6ZXJvYy5jb20xDzANBgNVBAMTBkNsaWVudDCB
nzANBgkqhkiG9w0BAQEFAAOBjQAwgYkCgYEAuenc6SU1NAz1eHSmCkQVpH0J9nei
mv8uQyfYwli4FkBO79KsKLywNBfxD56gdicwJMjIYPFGnot9lsARS0gvOK0qS79y
tkms7sWD0tSFncU2NFcOH6m8dV7RxJaLZvUbquDRKaRbGMHGSw0JQTx84miCMp8u
Xri/dW0Cqtxj4B8CAwEAAaOCAQ4wggEKMAkGA1UdEwQCMAAwHQYDVR0OBBYEFJs4
TJetuz/PNlJTjI46N3E+h/jDMIHEBgNVHSMEgbwwgbmAFKONff+oaR58VFhGYf63
aLws/MveoYGdpIGaMIGXMQswCQYDVQQGEwJVUzEQMA4GA1UECBMHRmxvcmlkYTEb
MBkGA1UEBxMSUGFsbSBCZWFjaCBHYXJkZW5zMRQwEgYDVQQKEwtaZXJvQywgSW5j
LjEMMAoGA1UECxMDSWNlMRYwFAYDVQQDEw1aZXJvQyBUZXN0IENBMR0wGwYJKoZI
hvcNAQkBFg5pbmZvQHplcm9jLmNvbYIBADAXBgNVHREEEDAOggZjbGllbnSHBH8A
AAEwDQYJKoZIhvcNAQEEBQADggEBAKLKEOd8s0y6dsbpi5DTcAv3PX3FkfAp4SvX
i7WN6XLwuhc/iEvZETDaH9glvmLKI5qN12rbIXz65FRU2xdqf8djqDXgjPrQXbbo
Gu8bmOrQqVxGuj1Ki+Xr9hrvcYr3YnA6b0wGP145V/qJC+1jH/24GO723sxi7/Jq
2hY+MqvTf03oFmFh2mSPJjgxd+/MvII0L8Uxzhp4QE0dyp912+HrVN+zPL/RE5FN
0aja74kxcD7guxBlfbbWmF4cnyOmErjMvrzfVgUhXSffD+gkBN/1rt488Rd+wHQu
eb4fe7i3/rtZXdWyq1FN0J7fXnUbTrgY3UdEmaVtQbGbSOvqr4s=
-----END CERTIFICATE-----
