Certificate:
    Data:
        Version: 3 (0x2)
        Serial Number: 1 (0x1)
        Signature Algorithm: md5WithRSAEncryption
        Issuer: C=US, ST=Florida, L=Palm Beach Gardens, O=ZeroC, Inc., OU=Ice, CN=ZeroC Test CA/emailAddress=info@zeroc.com
        Validity
            Not Before: Mar 28 18:09:58 2006 GMT
            Not After : Mar 25 18:09:58 2016 GMT
        Subject: C=US, ST=Florida, O=ZeroC, Inc., OU=Ice/emailAddress=info@zeroc.com, CN=Client
        Subject Public Key Info:
            Public Key Algorithm: rsaEncryption
            RSA Public Key: (1024 bit)
                Modulus (1024 bit):
                    00:d3:81:83:61:7c:08:c6:4d:43:8c:7c:7e:0d:48:
                    08:b2:d0:ab:23:83:fa:96:ca:92:63:70:fa:65:d8:
                    3a:69:3b:46:9c:76:8a:33:c7:aa:fa:f7:6c:d2:a3:
                    77:55:f6:3e:68:5d:9a:ed:47:90:37:38:61:4b:53:
                    ed:1c:a7:57:bb:4d:f1:18:13:bc:a6:75:c4:33:ef:
                    c7:e9:96:08:1d:84:26:8a:10:95:73:58:11:59:e0:
                    1e:80:11:47:b4:ec:11:a0:07:a8:69:4c:52:7d:cb:
                    99:f2:b8:31:7a:2a:b9:80:d7:c5:e8:33:68:47:8f:
                    b9:b0:c0:bf:a5:b7:ed:76:9b
                Exponent: 65537 (0x10001)
        X509v3 extensions:
            X509v3 Basic Constraints: 
            CA:FALSE
            X509v3 Subject Key Identifier: 
            D6:56:54:71:D9:44:C3:36:C4:8D:2F:AF:65:B0:B9:A6:DF:A4:45:5B
            X509v3 Authority Key Identifier: 
            keyid:BD:5A:BA:8A:D2:B9:96:DC:91:5C:64:9F:99:94:E2:48:44:2C:A9:DA
            DirName:/C=US/ST=Florida/L=Palm Beach Gardens/O=ZeroC, Inc./OU=Ice/CN=ZeroC Test CA/emailAddress=info@zeroc.com
            serial:00

            X509v3 Subject Alternative Name: 
            DNS:client, IP Address:127.0.0.1
    Signature Algorithm: md5WithRSAEncryption
        af:83:44:8b:af:5f:c2:32:34:bd:3a:ce:b3:09:c6:1d:83:2b:
        5b:fa:ae:93:7d:24:ca:75:c6:f1:bc:fd:ff:67:b2:0f:f5:59:
        db:c9:73:18:7e:39:0b:00:d9:71:d7:0c:00:ca:1e:89:53:83:
        22:78:b1:1d:d0:62:2d:95:65:bd:63:65:cf:87:82:e7:81:00:
        ae:c7:3b:67:9e:70:ac:c7:69:99:af:77:b6:0f:cb:78:76:0f:
        2d:af:23:a6:80:5c:f0:47:7f:ed:55:8b:ed:12:69:ed:38:fb:
        48:53:41:27:36:ae:e5:30:72:ed:51:15:f9:15:60:c1:0f:13:
        9b:51:33:af:50:80:dd:3a:64:98:cf:65:5f:5f:76:2d:03:7b:
        de:d0:28:93:c2:c0:ba:05:6c:13:95:cd:be:1a:0f:b6:6f:a6:
        73:50:69:7c:4e:37:66:20:37:e0:0a:ee:e2:d8:43:b4:31:41:
        c6:e4:08:51:47:07:5a:98:94:d2:1e:b7:5a:d4:c5:ea:7e:0f:
        fa:bc:03:5f:9c:d9:5e:25:4c:45:a4:42:42:5f:72:06:7e:9a:
        4b:83:ce:91:e8:af:9e:70:42:71:a7:56:d5:26:90:db:1d:08:
        03:c4:18:0e:39:c9:f9:4a:70:a3:c3:f8:51:19:a3:db:96:92:
        06:75:d2:95
-----BEGIN CERTIFICATE-----
MIIEEjCCAvqgAwIBAgIBATANBgkqhkiG9w0BAQQFADCBlzELMAkGA1UEBhMCVVMx
EDAOBgNVBAgTB0Zsb3JpZGExGzAZBgNVBAcTElBhbG0gQmVhY2ggR2FyZGVuczEU
MBIGA1UEChMLWmVyb0MsIEluYy4xDDAKBgNVBAsTA0ljZTEWMBQGA1UEAxMNWmVy
b0MgVGVzdCBDQTEdMBsGCSqGSIb3DQEJARYOaW5mb0B6ZXJvYy5jb20wHhcNMDYw
MzI4MTgwOTU4WhcNMTYwMzI1MTgwOTU4WjBzMQswCQYDVQQGEwJVUzEQMA4GA1UE
CBMHRmxvcmlkYTEUMBIGA1UEChMLWmVyb0MsIEluYy4xDDAKBgNVBAsTA0ljZTEd
MBsGCSqGSIb3DQEJARYOaW5mb0B6ZXJvYy5jb20xDzANBgNVBAMTBkNsaWVudDCB
nzANBgkqhkiG9w0BAQEFAAOBjQAwgYkCgYEA04GDYXwIxk1DjHx+DUgIstCrI4P6
lsqSY3D6Zdg6aTtGnHaKM8eq+vds0qN3VfY+aF2a7UeQNzhhS1PtHKdXu03xGBO8
pnXEM+/H6ZYIHYQmihCVc1gRWeAegBFHtOwRoAeoaUxSfcuZ8rgxeiq5gNfF6DNo
R4+5sMC/pbftdpsCAwEAAaOCAQ4wggEKMAkGA1UdEwQCMAAwHQYDVR0OBBYEFNZW
VHHZRMM2xI0vr2WwuabfpEVbMIHEBgNVHSMEgbwwgbmAFL1auorSuZbckVxkn5mU
4khELKnaoYGdpIGaMIGXMQswCQYDVQQGEwJVUzEQMA4GA1UECBMHRmxvcmlkYTEb
MBkGA1UEBxMSUGFsbSBCZWFjaCBHYXJkZW5zMRQwEgYDVQQKEwtaZXJvQywgSW5j
LjEMMAoGA1UECxMDSWNlMRYwFAYDVQQDEw1aZXJvQyBUZXN0IENBMR0wGwYJKoZI
hvcNAQkBFg5pbmZvQHplcm9jLmNvbYIBADAXBgNVHREEEDAOggZjbGllbnSHBH8A
AAEwDQYJKoZIhvcNAQEEBQADggEBAK+DRIuvX8IyNL06zrMJxh2DK1v6rpN9JMp1
xvG8/f9nsg/1WdvJcxh+OQsA2XHXDADKHolTgyJ4sR3QYi2VZb1jZc+HgueBAK7H
O2eecKzHaZmvd7YPy3h2Dy2vI6aAXPBHf+1Vi+0Sae04+0hTQSc2ruUwcu1RFfkV
YMEPE5tRM69QgN06ZJjPZV9fdi0De97QKJPCwLoFbBOVzb4aD7ZvpnNQaXxON2Yg
N+AK7uLYQ7QxQcbkCFFHB1qYlNIet1rUxep+D/q8A1+c2V4lTEWkQkJfcgZ+mkuD
zpHor55wQnGnVtUmkNsdCAPEGA45yflKcKPD+FEZo9uWkgZ10pU=
-----END CERTIFICATE-----
