Certificate:
    Data:
        Version: 3 (0x2)
        Serial Number: 1 (0x1)
        Signature Algorithm: sha1WithRSAEncryption
        Issuer: C=US, ST=Florida, L=Palm Beach Gardens, O=ZeroC, Inc., OU=Ice, CN=ZeroC Test CA 1/emailAddress=info@zeroc.com
        Validity
            Not Before: Mar 17 14:50:34 2010 GMT
            Not After : Mar 14 14:50:34 2020 GMT
        Subject: C=US, ST=Florida, O=ZeroC, Inc., OU=Ice/emailAddress=info@zeroc.com, CN=Client
        Subject Public Key Info:
            Public Key Algorithm: rsaEncryption
                Public-Key: (1024 bit)
                Modulus:
                    00:eb:26:2d:df:c1:5b:a3:ae:74:60:cb:74:7f:d0:
                    a4:89:39:db:6b:08:6b:fd:2d:bc:42:3a:ec:00:dd:
                    19:09:38:e8:dc:fb:e5:38:83:19:7e:d8:48:37:04:
                    5b:7c:d0:7b:99:c6:7d:45:1f:50:36:a6:b4:5e:d7:
                    2b:45:0e:b5:69:8e:02:df:54:19:39:16:3a:d3:0b:
                    b7:de:52:bf:a8:70:e2:b4:d0:a2:08:e1:aa:ea:3f:
                    5e:5d:32:0b:1c:ff:06:b3:72:2b:db:7f:6d:a6:4e:
                    c3:54:51:9c:ca:9f:f8:55:8a:39:e0:da:07:b6:20:
                    4e:e3:15:e1:41:b3:d8:32:e5
                Exponent: 65537 (0x10001)
        X509v3 extensions:
            X509v3 Basic Constraints: 
                CA:FALSE
            X509v3 Subject Key Identifier: 
                BC:67:37:CB:29:51:25:C5:38:49:42:80:8C:C3:77:6E:AF:96:73:77
            X509v3 Authority Key Identifier: 
                keyid:A2:D9:80:2A:E4:91:8E:0B:85:B7:E4:D5:28:62:4F:C7:C9:8B:E8:D1
                DirName:/C=US/ST=Florida/L=Palm Beach Gardens/O=ZeroC, Inc./OU=Ice/CN=ZeroC Test CA 1/emailAddress=info@zeroc.com
                serial:94:31:70:AC:50:6A:15:99

            X509v3 Subject Alternative Name: 
                DNS:client, IP Address:127.0.0.1
    Signature Algorithm: sha1WithRSAEncryption
        13:35:86:c6:73:44:95:59:95:76:24:ef:56:00:c5:8b:f0:74:
        ce:a4:fa:f1:b7:6d:58:14:22:8f:db:65:06:a6:cf:60:cd:6b:
        75:c5:c3:0d:5b:6f:73:be:1a:8c:84:ba:05:29:7d:dd:36:62:
        36:1f:a4:fa:e1:31:5c:49:16:4c:27:d7:97:e3:48:9f:17:18:
        6c:18:62:61:47:e6:d9:d4:9f:56:5b:e0:16:64:c5:f6:e3:aa:
        39:80:c5:af:54:73:e4:4d:54:ed:fd:6c:cd:f3:d2:09:38:68:
        84:a1:d8:71:25:3f:7c:42:df:ac:ba:58:d7:2b:d8:d7:da:f9:
        44:fa
-----BEGIN CERTIFICATE-----
MIIDnTCCAwagAwIBAgIBATANBgkqhkiG9w0BAQUFADCBmTELMAkGA1UEBhMCVVMx
EDAOBgNVBAgTB0Zsb3JpZGExGzAZBgNVBAcTElBhbG0gQmVhY2ggR2FyZGVuczEU
MBIGA1UEChMLWmVyb0MsIEluYy4xDDAKBgNVBAsTA0ljZTEYMBYGA1UEAxMPWmVy
b0MgVGVzdCBDQSAxMR0wGwYJKoZIhvcNAQkBFg5pbmZvQHplcm9jLmNvbTAeFw0x
MDAzMTcxNDUwMzRaFw0yMDAzMTQxNDUwMzRaMHMxCzAJBgNVBAYTAlVTMRAwDgYD
VQQIEwdGbG9yaWRhMRQwEgYDVQQKEwtaZXJvQywgSW5jLjEMMAoGA1UECxMDSWNl
MR0wGwYJKoZIhvcNAQkBFg5pbmZvQHplcm9jLmNvbTEPMA0GA1UEAxMGQ2xpZW50
MIGfMA0GCSqGSIb3DQEBAQUAA4GNADCBiQKBgQDrJi3fwVujrnRgy3R/0KSJOdtr
CGv9LbxCOuwA3RkJOOjc++U4gxl+2Eg3BFt80HuZxn1FH1A2prRe1ytFDrVpjgLf
VBk5FjrTC7feUr+ocOK00KII4arqP15dMgsc/wazcivbf22mTsNUUZzKn/hVijng
2ge2IE7jFeFBs9gy5QIDAQABo4IBGDCCARQwCQYDVR0TBAIwADAdBgNVHQ4EFgQU
vGc3yylRJcU4SUKAjMN3bq+Wc3cwgc4GA1UdIwSBxjCBw4AUotmAKuSRjguFt+TV
KGJPx8mL6NGhgZ+kgZwwgZkxCzAJBgNVBAYTAlVTMRAwDgYDVQQIEwdGbG9yaWRh
MRswGQYDVQQHExJQYWxtIEJlYWNoIEdhcmRlbnMxFDASBgNVBAoTC1plcm9DLCBJ
bmMuMQwwCgYDVQQLEwNJY2UxGDAWBgNVBAMTD1plcm9DIFRlc3QgQ0EgMTEdMBsG
CSqGSIb3DQEJARYOaW5mb0B6ZXJvYy5jb22CCQCUMXCsUGoVmTAXBgNVHREEEDAO
ggZjbGllbnSHBH8AAAEwDQYJKoZIhvcNAQEFBQADgYEAEzWGxnNElVmVdiTvVgDF
i/B0zqT68bdtWBQij9tlBqbPYM1rdcXDDVtvc74ajIS6BSl93TZiNh+k+uExXEkW
TCfXl+NInxcYbBhiYUfm2dSfVlvgFmTF9uOqOYDFr1Rz5E1U7f1szfPSCThohKHY
cSU/fELfrLpY1yvY19r5RPo=
-----END CERTIFICATE-----
