Certificate:
    Data:
        Version: 3 (0x2)
        Serial Number: 1 (0x1)
        Signature Algorithm: md5WithRSAEncryption
        Issuer: C=US, ST=Florida, L=Palm Beach Gardens, O=ZeroC, Inc., OU=Ice, CN=ZeroC Test CA 1/emailAddress=info@zeroc.com
        Validity
            Not Before: Sep 23 15:11:16 2009 GMT
            Not After : Dec 31 00:00:00 2005 GMT
        Subject: C=US, ST=Florida, O=ZeroC, Inc., OU=Ice/emailAddress=info@zeroc.com, CN=Client
        Subject Public Key Info:
            Public Key Algorithm: rsaEncryption
            RSA Public Key: (1024 bit)
                Modulus (1024 bit):
                    00:ac:d3:af:a1:27:6b:a7:7b:e1:ae:f7:ff:96:4e:
                    16:ce:d8:35:63:26:25:ab:01:aa:1e:5e:b0:21:fc:
                    16:aa:b1:df:b0:8e:02:10:e2:bf:9e:57:c4:87:e7:
                    2e:00:24:b2:49:cb:39:69:f9:12:40:f2:74:70:83:
                    12:7b:38:f8:dc:f8:9f:98:f9:aa:8e:c1:03:9a:6e:
                    e7:b0:16:ab:c7:3e:70:ed:c3:d9:f8:0a:40:73:99:
                    1b:90:15:78:ba:44:f8:3e:e2:c7:c6:ec:6b:cc:2e:
                    88:de:53:cf:e8:4f:70:2f:d3:3a:72:e4:0f:7e:94:
                    e5:88:b3:25:9b:6f:7d:24:45
                Exponent: 65537 (0x10001)
        X509v3 extensions:
            X509v3 Basic Constraints: 
                CA:FALSE
            X509v3 Subject Key Identifier: 
                FE:F5:7D:A5:AC:51:64:60:5A:0D:D4:94:CB:57:21:B7:D0:1D:1B:35
            X509v3 Authority Key Identifier: 
                keyid:28:11:80:FD:88:57:63:47:6B:C0:BA:A6:CE:3A:C7:C4:7F:73:31:25
                DirName:/C=US/ST=Florida/L=Palm Beach Gardens/O=ZeroC, Inc./OU=Ice/CN=ZeroC Test CA 1/emailAddress=info@zeroc.com
                serial:DD:26:15:4D:4C:3F:B6:11

            X509v3 Subject Alternative Name: 
                DNS:client, IP Address:127.0.0.1
    Signature Algorithm: md5WithRSAEncryption
        88:fc:f2:09:91:01:e3:1b:14:93:b6:aa:95:b8:0d:a7:ab:13:
        11:84:de:a5:35:03:74:ce:e4:06:c0:82:c2:96:b3:f4:56:ea:
        0b:8f:63:71:97:05:fe:44:04:00:fa:10:16:7d:a0:fa:9c:7f:
        93:c8:46:bc:bc:b3:5f:73:54:79:2b:5f:10:aa:34:50:d6:94:
        5a:65:78:1d:d9:f3:b4:39:4e:c1:2d:7c:7a:62:c6:00:ba:88:
        21:cf:94:e5:fe:56:fd:8e:40:0a:53:9a:52:7c:23:7e:8a:32:
        ed:73:1f:3e:66:83:9a:9a:6f:16:b1:cf:e2:1c:41:b8:d6:c8:
        1c:55
-----BEGIN CERTIFICATE-----
MIIDnTCCAwagAwIBAgIBATANBgkqhkiG9w0BAQQFADCBmTELMAkGA1UEBhMCVVMx
EDAOBgNVBAgTB0Zsb3JpZGExGzAZBgNVBAcTElBhbG0gQmVhY2ggR2FyZGVuczEU
MBIGA1UEChMLWmVyb0MsIEluYy4xDDAKBgNVBAsTA0ljZTEYMBYGA1UEAxMPWmVy
b0MgVGVzdCBDQSAxMR0wGwYJKoZIhvcNAQkBFg5pbmZvQHplcm9jLmNvbTAeFw0w
OTA5MjMxNTExMTZaFw0wNTEyMzEwMDAwMDBaMHMxCzAJBgNVBAYTAlVTMRAwDgYD
VQQIEwdGbG9yaWRhMRQwEgYDVQQKEwtaZXJvQywgSW5jLjEMMAoGA1UECxMDSWNl
MR0wGwYJKoZIhvcNAQkBFg5pbmZvQHplcm9jLmNvbTEPMA0GA1UEAxMGQ2xpZW50
MIGfMA0GCSqGSIb3DQEBAQUAA4GNADCBiQKBgQCs06+hJ2une+Gu9/+WThbO2DVj
JiWrAaoeXrAh/Baqsd+wjgIQ4r+eV8SH5y4AJLJJyzlp+RJA8nRwgxJ7OPjc+J+Y
+aqOwQOabuewFqvHPnDtw9n4CkBzmRuQFXi6RPg+4sfG7GvMLojeU8/oT3Av0zpy
5A9+lOWIsyWbb30kRQIDAQABo4IBGDCCARQwCQYDVR0TBAIwADAdBgNVHQ4EFgQU
/vV9paxRZGBaDdSUy1cht9AdGzUwgc4GA1UdIwSBxjCBw4AUKBGA/YhXY0drwLqm
zjrHxH9zMSWhgZ+kgZwwgZkxCzAJBgNVBAYTAlVTMRAwDgYDVQQIEwdGbG9yaWRh
MRswGQYDVQQHExJQYWxtIEJlYWNoIEdhcmRlbnMxFDASBgNVBAoTC1plcm9DLCBJ
bmMuMQwwCgYDVQQLEwNJY2UxGDAWBgNVBAMTD1plcm9DIFRlc3QgQ0EgMTEdMBsG
CSqGSIb3DQEJARYOaW5mb0B6ZXJvYy5jb22CCQDdJhVNTD+2ETAXBgNVHREEEDAO
ggZjbGllbnSHBH8AAAEwDQYJKoZIhvcNAQEEBQADgYEAiPzyCZEB4xsUk7aqlbgN
p6sTEYTepTUDdM7kBsCCwpaz9FbqC49jcZcF/kQEAPoQFn2g+px/k8hGvLyzX3NU
eStfEKo0UNaUWmV4HdnztDlOwS18emLGALqIIc+U5f5W/Y5AClOaUnwjfooy7XMf
PmaDmppvFrHP4hxBuNbIHFU=
-----END CERTIFICATE-----
