Certificate:
    Data:
        Version: 3 (0x2)
        Serial Number: 1 (0x1)
        Signature Algorithm: md5WithRSAEncryption
        Issuer: C=US, ST=Florida, L=Palm Beach Gardens, O=ZeroC, Inc., OU=Ice, CN=ZeroC Test CA 1/emailAddress=info@zeroc.com
        Validity
            Not Before: Sep 23 15:11:16 2009 GMT
            Not After : Sep 21 15:11:16 2019 GMT
        Subject: C=US, ST=Florida, O=ZeroC, Inc., OU=Ice/emailAddress=info@zeroc.com, CN=Client
        Subject Public Key Info:
            Public Key Algorithm: rsaEncryption
            RSA Public Key: (1024 bit)
                Modulus (1024 bit):
                    00:b7:1f:4e:9f:60:7f:f1:38:4c:7c:a0:c2:ac:38:
                    fd:03:0b:30:70:6a:68:ee:f1:e7:18:5d:e1:75:d9:
                    69:46:1b:89:99:96:cf:87:c9:94:cc:c0:a7:76:40:
                    7e:2c:8f:39:83:f3:3f:4c:1e:69:ef:ef:29:6c:4c:
                    e0:65:2b:89:c3:3b:3f:5e:76:d3:1c:8a:2b:89:c7:
                    5b:81:bf:32:fd:a5:ad:01:a2:a0:2d:64:90:5a:3f:
                    75:92:8d:5d:79:76:39:c6:96:ce:9e:35:c3:4a:46:
                    1d:b2:12:b0:06:86:9c:3e:e8:80:52:2d:1d:fb:42:
                    ad:13:df:0a:5c:84:52:b4:a9
                Exponent: 65537 (0x10001)
        X509v3 extensions:
            X509v3 Basic Constraints: 
                CA:FALSE
            X509v3 Subject Key Identifier: 
                90:9A:0C:74:D1:F0:F6:CF:50:22:31:E0:6B:BC:6F:F3:67:BA:96:16
            X509v3 Authority Key Identifier: 
                keyid:28:11:80:FD:88:57:63:47:6B:C0:BA:A6:CE:3A:C7:C4:7F:73:31:25
                DirName:/C=US/ST=Florida/L=Palm Beach Gardens/O=ZeroC, Inc./OU=Ice/CN=ZeroC Test CA 1/emailAddress=info@zeroc.com
                serial:DD:26:15:4D:4C:3F:B6:11

            X509v3 Subject Alternative Name: 
                DNS:client, IP Address:127.0.0.1
    Signature Algorithm: md5WithRSAEncryption
        e8:74:a1:71:ee:45:d5:c1:4c:be:7f:7f:eb:51:21:00:ba:7b:
        06:cf:97:78:6b:a8:8b:7f:f2:b4:9d:51:70:34:ee:cc:f7:16:
        25:68:36:df:37:44:e7:b3:11:36:da:50:4e:26:4e:cf:7e:02:
        42:bb:85:b9:26:dd:2a:7f:fe:e4:b7:e2:2c:43:f3:ea:7e:78:
        11:2c:b1:f9:4e:13:e3:17:e9:c6:a8:f3:a9:26:c4:87:b6:16:
        7e:d0:b1:f9:2b:f9:19:30:4f:13:3e:b6:3f:9d:43:64:56:d7:
        f7:7e:b1:66:9d:83:fc:d4:c8:72:98:57:52:6e:46:48:23:b5:
        4d:c1
-----BEGIN CERTIFICATE-----
MIIDnTCCAwagAwIBAgIBATANBgkqhkiG9w0BAQQFADCBmTELMAkGA1UEBhMCVVMx
EDAOBgNVBAgTB0Zsb3JpZGExGzAZBgNVBAcTElBhbG0gQmVhY2ggR2FyZGVuczEU
MBIGA1UEChMLWmVyb0MsIEluYy4xDDAKBgNVBAsTA0ljZTEYMBYGA1UEAxMPWmVy
b0MgVGVzdCBDQSAxMR0wGwYJKoZIhvcNAQkBFg5pbmZvQHplcm9jLmNvbTAeFw0w
OTA5MjMxNTExMTZaFw0xOTA5MjExNTExMTZaMHMxCzAJBgNVBAYTAlVTMRAwDgYD
VQQIEwdGbG9yaWRhMRQwEgYDVQQKEwtaZXJvQywgSW5jLjEMMAoGA1UECxMDSWNl
MR0wGwYJKoZIhvcNAQkBFg5pbmZvQHplcm9jLmNvbTEPMA0GA1UEAxMGQ2xpZW50
MIGfMA0GCSqGSIb3DQEBAQUAA4GNADCBiQKBgQC3H06fYH/xOEx8oMKsOP0DCzBw
amju8ecYXeF12WlGG4mZls+HyZTMwKd2QH4sjzmD8z9MHmnv7ylsTOBlK4nDOz9e
dtMciiuJx1uBvzL9pa0BoqAtZJBaP3WSjV15djnGls6eNcNKRh2yErAGhpw+6IBS
LR37Qq0T3wpchFK0qQIDAQABo4IBGDCCARQwCQYDVR0TBAIwADAdBgNVHQ4EFgQU
kJoMdNHw9s9QIjHga7xv82e6lhYwgc4GA1UdIwSBxjCBw4AUKBGA/YhXY0drwLqm
zjrHxH9zMSWhgZ+kgZwwgZkxCzAJBgNVBAYTAlVTMRAwDgYDVQQIEwdGbG9yaWRh
MRswGQYDVQQHExJQYWxtIEJlYWNoIEdhcmRlbnMxFDASBgNVBAoTC1plcm9DLCBJ
bmMuMQwwCgYDVQQLEwNJY2UxGDAWBgNVBAMTD1plcm9DIFRlc3QgQ0EgMTEdMBsG
CSqGSIb3DQEJARYOaW5mb0B6ZXJvYy5jb22CCQDdJhVNTD+2ETAXBgNVHREEEDAO
ggZjbGllbnSHBH8AAAEwDQYJKoZIhvcNAQEEBQADgYEA6HShce5F1cFMvn9/61Eh
ALp7Bs+XeGuoi3/ytJ1RcDTuzPcWJWg23zdE57MRNtpQTiZOz34CQruFuSbdKn/+
5LfiLEPz6n54ESyx+U4T4xfpxqjzqSbEh7YWftCx+Sv5GTBPEz62P51DZFbX936x
Zp2D/NTIcphXUm5GSCO1TcE=
-----END CERTIFICATE-----
