Certificate:
    Data:
        Version: 3 (0x2)
        Serial Number: 1 (0x1)
        Signature Algorithm: sha1WithRSAEncryption
        Issuer: C=US, ST=Florida, L=Palm Beach Gardens, O=ZeroC, Inc., OU=Ice, CN=ZeroC Test CA 1/emailAddress=info@zeroc.com
        Validity
            Not Before: Mar 17 14:50:34 2010 GMT
            Not After : Dec 31 00:00:00 2005 GMT
        Subject: C=US, ST=Florida, O=ZeroC, Inc., OU=Ice/emailAddress=info@zeroc.com, CN=Client
        Subject Public Key Info:
            Public Key Algorithm: rsaEncryption
                Public-Key: (1024 bit)
                Modulus:
                    00:d6:85:cb:de:4c:66:c2:78:23:23:2c:11:c3:2f:
                    bb:34:99:a9:a2:23:89:d2:45:53:ec:ac:4c:c4:f7:
                    89:05:42:7e:7c:ec:f3:66:47:9a:ec:a4:b6:cb:01:
                    d3:4a:13:3f:3d:1a:ed:2d:38:9e:fb:83:84:bb:a3:
                    9d:58:70:d8:8c:32:d1:d0:28:f0:6c:50:99:27:24:
                    19:83:7d:4e:96:09:23:97:32:5c:16:e5:76:fb:61:
                    6a:cf:ff:19:b2:db:14:83:cc:d0:fa:f9:91:d8:22:
                    9b:33:13:18:de:8c:e8:47:f9:bf:6d:98:99:a6:3f:
                    5f:60:c0:57:c1:16:a7:22:41
                Exponent: 65537 (0x10001)
        X509v3 extensions:
            X509v3 Basic Constraints: 
                CA:FALSE
            X509v3 Subject Key Identifier: 
                76:01:3F:85:33:E8:6B:C9:14:0E:DA:33:56:7F:43:AE:17:90:A1:1C
            X509v3 Authority Key Identifier: 
                keyid:A2:D9:80:2A:E4:91:8E:0B:85:B7:E4:D5:28:62:4F:C7:C9:8B:E8:D1
                DirName:/C=US/ST=Florida/L=Palm Beach Gardens/O=ZeroC, Inc./OU=Ice/CN=ZeroC Test CA 1/emailAddress=info@zeroc.com
                serial:94:31:70:AC:50:6A:15:99

            X509v3 Subject Alternative Name: 
                DNS:client, IP Address:127.0.0.1
    Signature Algorithm: sha1WithRSAEncryption
        78:88:01:44:5c:49:7a:f0:49:bc:fe:a4:36:65:86:51:0a:0e:
        c5:05:9f:71:3a:7b:c7:e7:5f:51:b9:e7:31:a8:45:a8:36:ed:
        25:4b:61:55:5e:33:39:bb:f8:c7:f8:d6:49:92:53:9d:15:11:
        a6:85:4c:6d:2f:05:ab:26:bb:40:86:9b:f4:61:e5:4d:fc:72:
        64:34:5c:83:66:90:f0:60:c2:12:8d:04:cf:f5:5d:7e:7c:15:
        fb:f5:2a:2e:f2:11:f4:ff:95:d2:67:47:f6:85:82:09:78:fd:
        4e:d3:cf:eb:2f:bc:b8:b0:e9:93:c2:37:9c:e7:a0:2a:17:6e:
        7d:89
-----BEGIN CERTIFICATE-----
MIIDnTCCAwagAwIBAgIBATANBgkqhkiG9w0BAQUFADCBmTELMAkGA1UEBhMCVVMx
EDAOBgNVBAgTB0Zsb3JpZGExGzAZBgNVBAcTElBhbG0gQmVhY2ggR2FyZGVuczEU
MBIGA1UEChMLWmVyb0MsIEluYy4xDDAKBgNVBAsTA0ljZTEYMBYGA1UEAxMPWmVy
b0MgVGVzdCBDQSAxMR0wGwYJKoZIhvcNAQkBFg5pbmZvQHplcm9jLmNvbTAeFw0x
MDAzMTcxNDUwMzRaFw0wNTEyMzEwMDAwMDBaMHMxCzAJBgNVBAYTAlVTMRAwDgYD
VQQIEwdGbG9yaWRhMRQwEgYDVQQKEwtaZXJvQywgSW5jLjEMMAoGA1UECxMDSWNl
MR0wGwYJKoZIhvcNAQkBFg5pbmZvQHplcm9jLmNvbTEPMA0GA1UEAxMGQ2xpZW50
MIGfMA0GCSqGSIb3DQEBAQUAA4GNADCBiQKBgQDWhcveTGbCeCMjLBHDL7s0mami
I4nSRVPsrEzE94kFQn587PNmR5rspLbLAdNKEz89Gu0tOJ77g4S7o51YcNiMMtHQ
KPBsUJknJBmDfU6WCSOXMlwW5Xb7YWrP/xmy2xSDzND6+ZHYIpszExjejOhH+b9t
mJmmP19gwFfBFqciQQIDAQABo4IBGDCCARQwCQYDVR0TBAIwADAdBgNVHQ4EFgQU
dgE/hTPoa8kUDtozVn9DrheQoRwwgc4GA1UdIwSBxjCBw4AUotmAKuSRjguFt+TV
KGJPx8mL6NGhgZ+kgZwwgZkxCzAJBgNVBAYTAlVTMRAwDgYDVQQIEwdGbG9yaWRh
MRswGQYDVQQHExJQYWxtIEJlYWNoIEdhcmRlbnMxFDASBgNVBAoTC1plcm9DLCBJ
bmMuMQwwCgYDVQQLEwNJY2UxGDAWBgNVBAMTD1plcm9DIFRlc3QgQ0EgMTEdMBsG
CSqGSIb3DQEJARYOaW5mb0B6ZXJvYy5jb22CCQCUMXCsUGoVmTAXBgNVHREEEDAO
ggZjbGllbnSHBH8AAAEwDQYJKoZIhvcNAQEFBQADgYEAeIgBRFxJevBJvP6kNmWG
UQoOxQWfcTp7x+dfUbnnMahFqDbtJUthVV4zObv4x/jWSZJTnRURpoVMbS8Fqya7
QIab9GHlTfxyZDRcg2aQ8GDCEo0Ez/VdfnwV+/UqLvIR9P+V0mdH9oWCCXj9TtPP
6y+8uLDpk8I3nOegKhdufYk=
-----END CERTIFICATE-----
