Certificate:
    Data:
        Version: 3 (0x2)
        Serial Number: 1 (0x1)
        Signature Algorithm: md5WithRSAEncryption
        Issuer: C=US, ST=Florida, L=Palm Beach Gardens, O=ZeroC, Inc., OU=Ice, CN=ZeroC Test CA/emailAddress=info@zeroc.com
        Validity
            Not Before: Mar 31 16:19:55 2006 GMT
            Not After : Dec 31 00:00:00 2005 GMT
        Subject: C=US, ST=Florida, O=ZeroC, Inc., OU=Ice/emailAddress=info@zeroc.com, CN=Client
        Subject Public Key Info:
            Public Key Algorithm: rsaEncryption
            RSA Public Key: (1024 bit)
                Modulus (1024 bit):
                    00:b4:1b:e7:d3:4e:c7:5b:98:ed:f3:3d:1c:d7:5e:
                    80:b5:b2:0a:34:0b:bf:b8:e2:df:84:32:1e:9c:f8:
                    c3:31:c4:d5:db:8f:89:c9:72:c0:13:5e:f6:79:81:
                    f9:9e:14:7c:26:4a:ae:df:06:5e:06:4c:87:d3:e5:
                    51:de:12:04:ee:cd:11:fc:00:be:bd:0a:49:45:9d:
                    04:e4:bd:da:9a:26:76:18:a8:1a:2f:76:eb:31:5f:
                    b3:e9:80:c7:cd:fd:ac:a4:ba:b7:40:94:dd:fb:0d:
                    c1:2f:95:05:e2:7d:4e:da:d6:cd:0b:c1:6c:95:96:
                    57:f1:c8:54:e5:cb:e0:20:df
                Exponent: 65537 (0x10001)
        X509v3 extensions:
            X509v3 Basic Constraints: 
            CA:FALSE
            X509v3 Subject Key Identifier: 
            0C:43:B9:35:90:7C:58:40:0F:84:ED:A0:11:56:B9:BE:71:DE:4D:FC
            X509v3 Authority Key Identifier: 
            keyid:5A:A7:44:4D:31:6D:4F:2F:BE:07:F4:C6:59:06:53:08:D7:0E:46:CE
            DirName:/C=US/ST=Florida/L=Palm Beach Gardens/O=ZeroC, Inc./OU=Ice/CN=ZeroC Test CA/emailAddress=info@zeroc.com
            serial:00

            X509v3 Subject Alternative Name: 
            DNS:client, IP Address:127.0.0.1
    Signature Algorithm: md5WithRSAEncryption
        0a:ec:7a:b1:76:15:67:4e:05:5b:7a:62:92:1f:48:1f:f6:5b:
        52:5d:8d:90:67:ae:c4:ae:30:e6:aa:7c:cb:48:19:2c:52:45:
        e1:a4:17:76:7a:c7:31:34:6b:a4:22:3b:84:36:14:35:24:79:
        5f:84:10:02:58:0b:98:c4:33:ae:18:18:bc:fa:47:c3:7f:c1:
        f4:6a:18:c5:2e:5c:8b:c1:ec:ed:a3:0c:82:d4:ff:bd:25:7d:
        55:a2:97:19:17:af:29:b4:3a:a0:bd:c2:a8:94:75:56:c7:d7:
        3a:57:70:fa:8b:96:6c:61:c5:dc:fd:b2:09:cc:d0:1d:31:52:
        a7:3c:39:1b:7e:9f:1b:fa:f3:91:d1:49:15:3d:6f:31:13:39:
        1e:3a:09:c9:5e:54:c0:fa:b5:c0:94:d1:6d:6e:c3:71:b6:53:
        50:86:3d:94:c4:16:0f:83:d7:6d:f2:a2:5c:7d:63:78:6a:9d:
        c8:67:11:07:95:08:11:d0:38:17:65:61:de:08:39:f5:6a:12:
        c7:c3:6f:c6:8d:5a:c0:82:d8:16:7e:46:98:ed:76:1f:83:5b:
        2a:6b:8a:5b:7f:71:57:9a:5d:ed:93:af:2b:3b:6b:fa:9f:38:
        bf:c6:df:e7:54:1e:ee:2d:e6:b9:2e:c9:83:70:5f:81:49:78:
        3b:1e:09:bb
-----BEGIN CERTIFICATE-----
MIIEEjCCAvqgAwIBAgIBATANBgkqhkiG9w0BAQQFADCBlzELMAkGA1UEBhMCVVMx
EDAOBgNVBAgTB0Zsb3JpZGExGzAZBgNVBAcTElBhbG0gQmVhY2ggR2FyZGVuczEU
MBIGA1UEChMLWmVyb0MsIEluYy4xDDAKBgNVBAsTA0ljZTEWMBQGA1UEAxMNWmVy
b0MgVGVzdCBDQTEdMBsGCSqGSIb3DQEJARYOaW5mb0B6ZXJvYy5jb20wHhcNMDYw
MzMxMTYxOTU1WhcNMDUxMjMxMDAwMDAwWjBzMQswCQYDVQQGEwJVUzEQMA4GA1UE
CBMHRmxvcmlkYTEUMBIGA1UEChMLWmVyb0MsIEluYy4xDDAKBgNVBAsTA0ljZTEd
MBsGCSqGSIb3DQEJARYOaW5mb0B6ZXJvYy5jb20xDzANBgNVBAMTBkNsaWVudDCB
nzANBgkqhkiG9w0BAQEFAAOBjQAwgYkCgYEAtBvn007HW5jt8z0c116AtbIKNAu/
uOLfhDIenPjDMcTV24+JyXLAE172eYH5nhR8Jkqu3wZeBkyH0+VR3hIE7s0R/AC+
vQpJRZ0E5L3amiZ2GKgaL3brMV+z6YDHzf2spLq3QJTd+w3BL5UF4n1O2tbNC8Fs
lZZX8chU5cvgIN8CAwEAAaOCAQ4wggEKMAkGA1UdEwQCMAAwHQYDVR0OBBYEFAxD
uTWQfFhAD4TtoBFWub5x3k38MIHEBgNVHSMEgbwwgbmAFFqnRE0xbU8vvgf0xlkG
UwjXDkbOoYGdpIGaMIGXMQswCQYDVQQGEwJVUzEQMA4GA1UECBMHRmxvcmlkYTEb
MBkGA1UEBxMSUGFsbSBCZWFjaCBHYXJkZW5zMRQwEgYDVQQKEwtaZXJvQywgSW5j
LjEMMAoGA1UECxMDSWNlMRYwFAYDVQQDEw1aZXJvQyBUZXN0IENBMR0wGwYJKoZI
hvcNAQkBFg5pbmZvQHplcm9jLmNvbYIBADAXBgNVHREEEDAOggZjbGllbnSHBH8A
AAEwDQYJKoZIhvcNAQEEBQADggEBAArserF2FWdOBVt6YpIfSB/2W1JdjZBnrsSu
MOaqfMtIGSxSReGkF3Z6xzE0a6QiO4Q2FDUkeV+EEAJYC5jEM64YGLz6R8N/wfRq
GMUuXIvB7O2jDILU/70lfVWilxkXrym0OqC9wqiUdVbH1zpXcPqLlmxhxdz9sgnM
0B0xUqc8ORt+nxv685HRSRU9bzETOR46CcleVMD6tcCU0W1uw3G2U1CGPZTEFg+D
123yolx9Y3hqnchnEQeVCBHQOBdlYd4IOfVqEsfDb8aNWsCC2BZ+Rpjtdh+DWypr
ilt/cVeaXe2Trys7a/qfOL/G3+dUHu4t5rkuyYNwX4FJeDseCbs=
-----END CERTIFICATE-----
