Certificate:
    Data:
        Version: 3 (0x2)
        Serial Number: 1 (0x1)
    Signature Algorithm: sha256WithRSAEncryption
        Issuer: C=US, ST=Florida, L=Palm Beach Gardens, O=ZeroC, Inc., OU=Ice, CN=ZeroC Test CA 2/emailAddress=info@zeroc.com
        Validity
            Not Before: Jul 11 17:17:36 2014 GMT
            Not After : Jul  8 17:17:36 2024 GMT
        Subject: C=US, ST=Florida, O=ZeroC, Inc., OU=Ice/emailAddress=info@zeroc.com, CN=Client
        Subject Public Key Info:
            Public Key Algorithm: rsaEncryption
                Public-Key: (1024 bit)
                Modulus:
                    00:fb:73:61:48:a9:7f:3e:66:69:ac:ec:82:df:49:
                    6a:62:a1:83:a4:10:cd:ab:ba:56:df:58:1c:5c:74:
                    a0:65:7f:aa:a3:da:08:46:c1:1a:6c:48:11:03:b9:
                    5e:0a:6f:37:bb:58:66:f7:94:62:eb:89:75:9f:a2:
                    39:3e:6f:e9:f0:13:a8:c0:69:db:43:0d:e5:df:02:
                    35:e1:3a:f7:d7:68:b4:7e:87:ef:b1:ad:fd:9f:c1:
                    11:e5:b9:7e:d0:a0:9c:5b:ca:93:34:2e:d8:38:0c:
                    30:05:ad:dc:68:58:b2:bc:f6:3a:02:52:b8:25:bc:
                    0b:00:e5:86:32:48:f9:ba:19
                Exponent: 65537 (0x10001)
        X509v3 extensions:
            X509v3 Basic Constraints: 
                CA:FALSE
            X509v3 Subject Key Identifier: 
                DF:14:07:62:70:8B:BA:BB:36:CE:09:FE:50:8B:AE:9E:68:27:0E:66
            X509v3 Authority Key Identifier: 
                keyid:E6:A2:63:95:8F:8C:4D:7F:7A:3C:62:1A:C3:2A:BA:53:BB:C2:BF:B1
                DirName:/C=US/ST=Florida/L=Palm Beach Gardens/O=ZeroC, Inc./OU=Ice/CN=ZeroC Test CA 2/emailAddress=info@zeroc.com
                serial:E3:A0:C8:CA:39:6A:77:CF

            X509v3 Subject Alternative Name: 
                DNS:client, IP Address:127.0.0.1
    Signature Algorithm: sha256WithRSAEncryption
         24:7b:f6:3a:82:8a:27:9e:8c:c4:e8:27:2e:64:eb:2e:a4:59:
         08:95:9a:d5:41:d4:62:32:21:33:7b:11:26:ef:33:08:97:98:
         e2:40:fa:c2:8a:3f:87:f2:c7:17:42:79:b0:34:88:c6:74:3f:
         5d:fe:28:3d:32:c3:2a:8a:cf:8e:ae:29:21:5d:52:df:cf:5c:
         ee:10:ff:32:70:ba:ae:c2:c7:14:89:f6:38:5b:fb:6c:e3:e3:
         eb:50:40:ad:c7:0b:46:d4:38:78:c4:b4:22:32:7a:72:13:16:
         e3:de:f6:26:de:28:34:44:19:1f:9e:ae:c5:61:13:23:73:6a:
         9b:d7
-----BEGIN CERTIFICATE-----
MIIDnTCCAwagAwIBAgIBATANBgkqhkiG9w0BAQsFADCBmTELMAkGA1UEBhMCVVMx
EDAOBgNVBAgTB0Zsb3JpZGExGzAZBgNVBAcTElBhbG0gQmVhY2ggR2FyZGVuczEU
MBIGA1UEChMLWmVyb0MsIEluYy4xDDAKBgNVBAsTA0ljZTEYMBYGA1UEAxMPWmVy
b0MgVGVzdCBDQSAyMR0wGwYJKoZIhvcNAQkBFg5pbmZvQHplcm9jLmNvbTAeFw0x
NDA3MTExNzE3MzZaFw0yNDA3MDgxNzE3MzZaMHMxCzAJBgNVBAYTAlVTMRAwDgYD
VQQIEwdGbG9yaWRhMRQwEgYDVQQKEwtaZXJvQywgSW5jLjEMMAoGA1UECxMDSWNl
MR0wGwYJKoZIhvcNAQkBFg5pbmZvQHplcm9jLmNvbTEPMA0GA1UEAxMGQ2xpZW50
MIGfMA0GCSqGSIb3DQEBAQUAA4GNADCBiQKBgQD7c2FIqX8+Zmms7ILfSWpioYOk
EM2rulbfWBxcdKBlf6qj2ghGwRpsSBEDuV4Kbze7WGb3lGLriXWfojk+b+nwE6jA
adtDDeXfAjXhOvfXaLR+h++xrf2fwRHluX7QoJxbypM0Ltg4DDAFrdxoWLK89joC
UrglvAsA5YYySPm6GQIDAQABo4IBGDCCARQwCQYDVR0TBAIwADAdBgNVHQ4EFgQU
3xQHYnCLurs2zgn+UIuunmgnDmYwgc4GA1UdIwSBxjCBw4AU5qJjlY+MTX96PGIa
wyq6U7vCv7GhgZ+kgZwwgZkxCzAJBgNVBAYTAlVTMRAwDgYDVQQIEwdGbG9yaWRh
MRswGQYDVQQHExJQYWxtIEJlYWNoIEdhcmRlbnMxFDASBgNVBAoTC1plcm9DLCBJ
bmMuMQwwCgYDVQQLEwNJY2UxGDAWBgNVBAMTD1plcm9DIFRlc3QgQ0EgMjEdMBsG
CSqGSIb3DQEJARYOaW5mb0B6ZXJvYy5jb22CCQDjoMjKOWp3zzAXBgNVHREEEDAO
ggZjbGllbnSHBH8AAAEwDQYJKoZIhvcNAQELBQADgYEAJHv2OoKKJ56MxOgnLmTr
LqRZCJWa1UHUYjIhM3sRJu8zCJeY4kD6woo/h/LHF0J5sDSIxnQ/Xf4oPTLDKorP
jq4pIV1S389c7hD/MnC6rsLHFIn2OFv7bOPj61BArccLRtQ4eMS0IjJ6chMW4972
Jt4oNEQZH56uxWETI3Nqm9c=
-----END CERTIFICATE-----
