Certificate:
    Data:
        Version: 3 (0x2)
        Serial Number: 1 (0x1)
        Signature Algorithm: sha1WithRSAEncryption
        Issuer: C=US, ST=Florida, L=Palm Beach Gardens, O=ZeroC, Inc., OU=Ice, CN=ZeroC Test CA 2/emailAddress=info@zeroc.com
        Validity
            Not Before: Mar 17 14:50:34 2010 GMT
            Not After : Mar 14 14:50:34 2020 GMT
        Subject: C=US, ST=Florida, O=ZeroC, Inc., OU=Ice/emailAddress=info@zeroc.com, CN=Client
        Subject Public Key Info:
            Public Key Algorithm: rsaEncryption
                Public-Key: (1024 bit)
                Modulus:
                    00:ba:03:cd:2d:cc:e2:de:e3:92:3e:2c:43:4e:78:
                    41:4a:af:23:10:4c:4b:84:fc:bd:c6:f0:c8:01:be:
                    ab:d1:2d:0b:fc:26:f8:61:0d:49:1b:a7:ea:bc:d6:
                    58:95:a8:68:28:67:97:67:e9:90:33:f0:e1:6e:4e:
                    0f:76:16:ee:67:4c:44:0b:d8:1e:d9:f3:71:a1:77:
                    e6:c5:7f:bc:d8:27:3b:ec:ff:26:e7:64:df:f9:32:
                    89:f4:4e:01:5e:55:d9:1a:b2:b1:1b:3f:2b:88:35:
                    24:61:e8:9e:e5:7d:5e:da:e9:a7:81:02:54:97:03:
                    d9:0c:4b:3e:bc:2d:c7:36:43
                Exponent: 65537 (0x10001)
        X509v3 extensions:
            X509v3 Basic Constraints: 
                CA:FALSE
            X509v3 Subject Key Identifier: 
                7D:37:65:25:0A:DB:24:C7:23:B1:AD:EB:63:75:97:3D:14:BA:1E:8D
            X509v3 Authority Key Identifier: 
                keyid:29:71:09:F4:CF:57:4E:F3:3C:2B:7F:49:CE:4F:7F:64:45:CE:5F:05
                DirName:/C=US/ST=Florida/L=Palm Beach Gardens/O=ZeroC, Inc./OU=Ice/CN=ZeroC Test CA 2/emailAddress=info@zeroc.com
                serial:C5:15:C5:DC:84:DB:8A:C9

            X509v3 Subject Alternative Name: 
                DNS:client, IP Address:127.0.0.1
    Signature Algorithm: sha1WithRSAEncryption
        8a:41:b1:17:ca:11:25:bc:07:ca:b2:a5:68:9d:fb:97:b4:a4:
        73:54:75:4e:97:2f:ca:d0:45:d2:d5:17:21:a4:3d:fd:6b:a6:
        12:47:c0:95:2a:de:2b:c7:70:94:79:88:be:f9:83:5e:4f:2b:
        1e:36:24:b7:73:4c:54:cf:15:59:f9:cc:af:37:c0:05:c3:ad:
        92:e6:5a:96:92:6b:7d:c9:63:0d:fb:c2:5c:b6:ad:d0:ea:19:
        c7:1e:b7:02:9a:1f:45:f2:15:65:d2:00:b7:1f:b5:73:38:4e:
        49:11:f6:81:f5:ab:8b:70:fa:b2:88:a6:35:84:48:1d:fb:61:
        b7:11
-----BEGIN CERTIFICATE-----
MIIDnTCCAwagAwIBAgIBATANBgkqhkiG9w0BAQUFADCBmTELMAkGA1UEBhMCVVMx
EDAOBgNVBAgTB0Zsb3JpZGExGzAZBgNVBAcTElBhbG0gQmVhY2ggR2FyZGVuczEU
MBIGA1UEChMLWmVyb0MsIEluYy4xDDAKBgNVBAsTA0ljZTEYMBYGA1UEAxMPWmVy
b0MgVGVzdCBDQSAyMR0wGwYJKoZIhvcNAQkBFg5pbmZvQHplcm9jLmNvbTAeFw0x
MDAzMTcxNDUwMzRaFw0yMDAzMTQxNDUwMzRaMHMxCzAJBgNVBAYTAlVTMRAwDgYD
VQQIEwdGbG9yaWRhMRQwEgYDVQQKEwtaZXJvQywgSW5jLjEMMAoGA1UECxMDSWNl
MR0wGwYJKoZIhvcNAQkBFg5pbmZvQHplcm9jLmNvbTEPMA0GA1UEAxMGQ2xpZW50
MIGfMA0GCSqGSIb3DQEBAQUAA4GNADCBiQKBgQC6A80tzOLe45I+LENOeEFKryMQ
TEuE/L3G8MgBvqvRLQv8JvhhDUkbp+q81liVqGgoZ5dn6ZAz8OFuTg92Fu5nTEQL
2B7Z83Ghd+bFf7zYJzvs/ybnZN/5Mon0TgFeVdkasrEbPyuINSRh6J7lfV7a6aeB
AlSXA9kMSz68Lcc2QwIDAQABo4IBGDCCARQwCQYDVR0TBAIwADAdBgNVHQ4EFgQU
fTdlJQrbJMcjsa3rY3WXPRS6Ho0wgc4GA1UdIwSBxjCBw4AUKXEJ9M9XTvM8K39J
zk9/ZEXOXwWhgZ+kgZwwgZkxCzAJBgNVBAYTAlVTMRAwDgYDVQQIEwdGbG9yaWRh
MRswGQYDVQQHExJQYWxtIEJlYWNoIEdhcmRlbnMxFDASBgNVBAoTC1plcm9DLCBJ
bmMuMQwwCgYDVQQLEwNJY2UxGDAWBgNVBAMTD1plcm9DIFRlc3QgQ0EgMjEdMBsG
CSqGSIb3DQEJARYOaW5mb0B6ZXJvYy5jb22CCQDFFcXchNuKyTAXBgNVHREEEDAO
ggZjbGllbnSHBH8AAAEwDQYJKoZIhvcNAQEFBQADgYEAikGxF8oRJbwHyrKlaJ37
l7Skc1R1TpcvytBF0tUXIaQ9/WumEkfAlSreK8dwlHmIvvmDXk8rHjYkt3NMVM8V
WfnMrzfABcOtkuZalpJrfcljDfvCXLat0OoZxx63ApofRfIVZdIAtx+1czhOSRH2
gfWri3D6soimNYRIHfthtxE=
-----END CERTIFICATE-----
