Certificate:
    Data:
        Version: 3 (0x2)
        Serial Number: 1 (0x1)
    Signature Algorithm: sha256WithRSAEncryption
        Issuer: C=US, ST=Florida, L=Palm Beach Gardens, O=ZeroC, Inc., OU=Ice, CN=ZeroC Test CA 2/emailAddress=info@zeroc.com
        Validity
            Not Before: Aug 19 14:40:38 2014 GMT
            Not After : Aug 16 14:40:38 2024 GMT
        Subject: C=US, ST=Florida, O=ZeroC, Inc., OU=Ice/emailAddress=info@zeroc.com, CN=Client
        Subject Public Key Info:
            Public Key Algorithm: rsaEncryption
                Public-Key: (1024 bit)
                Modulus:
                    00:c5:8d:57:37:06:6d:62:f3:74:4c:45:a4:d0:eb:
                    70:f8:7c:ef:79:56:d2:6d:66:fb:80:b6:12:0e:8b:
                    73:00:e1:40:ed:d4:9d:01:96:f1:b2:41:44:9a:91:
                    a5:0c:25:b4:55:b3:13:3d:6a:a1:55:27:d9:b7:85:
                    16:ff:5e:4e:92:97:36:b9:0e:ab:f1:b5:8f:98:fc:
                    6a:83:50:eb:ea:5e:a5:93:e1:ad:e8:3e:51:a7:a3:
                    9f:22:50:4a:28:9b:3d:80:0c:bf:5b:ba:90:d6:07:
                    39:78:cf:f0:99:4a:5c:69:bc:9c:74:63:09:b0:41:
                    38:fe:7c:40:c0:dd:26:d3:ff
                Exponent: 65537 (0x10001)
        X509v3 extensions:
            X509v3 Basic Constraints: 
                CA:FALSE
            X509v3 Subject Key Identifier: 
                B9:8F:A5:17:78:5A:66:9B:E1:27:01:4D:48:B9:01:CD:0B:FA:9A:22
            X509v3 Authority Key Identifier: 
                keyid:71:61:73:01:D1:B6:AA:21:F5:90:E7:DA:55:93:FA:1B:1F:DD:AD:66
                DirName:/C=US/ST=Florida/L=Palm Beach Gardens/O=ZeroC, Inc./OU=Ice/CN=ZeroC Test CA 2/emailAddress=info@zeroc.com
                serial:C9:6F:11:B4:99:58:DA:C3

            X509v3 Subject Alternative Name: 
                DNS:client, IP Address:127.0.0.1
    Signature Algorithm: sha256WithRSAEncryption
         14:ff:32:41:21:67:3e:3a:71:78:ad:6e:b4:08:f8:25:c5:b2:
         26:28:c1:3a:0c:2b:e8:67:59:a1:0b:33:e8:38:29:bb:65:8e:
         53:79:f5:b5:6e:ec:65:65:3c:7a:2f:00:52:f4:d0:64:98:7c:
         cf:a1:f4:ac:32:fa:88:6d:3f:eb:22:d3:9c:56:2d:cf:0d:a9:
         26:3c:42:cd:fb:aa:e8:23:0c:1e:7e:72:cf:7c:b3:c7:f3:37:
         7d:1f:b0:d8:3e:e4:82:29:a3:2e:5f:51:88:46:bb:99:15:0b:
         c8:75:1b:a7:bb:2f:45:b4:97:da:91:3d:a5:80:ae:d7:6e:80:
         a4:1c
-----BEGIN CERTIFICATE-----
MIIDnTCCAwagAwIBAgIBATANBgkqhkiG9w0BAQsFADCBmTELMAkGA1UEBhMCVVMx
EDAOBgNVBAgTB0Zsb3JpZGExGzAZBgNVBAcTElBhbG0gQmVhY2ggR2FyZGVuczEU
MBIGA1UEChMLWmVyb0MsIEluYy4xDDAKBgNVBAsTA0ljZTEYMBYGA1UEAxMPWmVy
b0MgVGVzdCBDQSAyMR0wGwYJKoZIhvcNAQkBFg5pbmZvQHplcm9jLmNvbTAeFw0x
NDA4MTkxNDQwMzhaFw0yNDA4MTYxNDQwMzhaMHMxCzAJBgNVBAYTAlVTMRAwDgYD
VQQIEwdGbG9yaWRhMRQwEgYDVQQKEwtaZXJvQywgSW5jLjEMMAoGA1UECxMDSWNl
MR0wGwYJKoZIhvcNAQkBFg5pbmZvQHplcm9jLmNvbTEPMA0GA1UEAxMGQ2xpZW50
MIGfMA0GCSqGSIb3DQEBAQUAA4GNADCBiQKBgQDFjVc3Bm1i83RMRaTQ63D4fO95
VtJtZvuAthIOi3MA4UDt1J0BlvGyQUSakaUMJbRVsxM9aqFVJ9m3hRb/Xk6Slza5
DqvxtY+Y/GqDUOvqXqWT4a3oPlGno58iUEoomz2ADL9bupDWBzl4z/CZSlxpvJx0
YwmwQTj+fEDA3SbT/wIDAQABo4IBGDCCARQwCQYDVR0TBAIwADAdBgNVHQ4EFgQU
uY+lF3haZpvhJwFNSLkBzQv6miIwgc4GA1UdIwSBxjCBw4AUcWFzAdG2qiH1kOfa
VZP6Gx/drWahgZ+kgZwwgZkxCzAJBgNVBAYTAlVTMRAwDgYDVQQIEwdGbG9yaWRh
MRswGQYDVQQHExJQYWxtIEJlYWNoIEdhcmRlbnMxFDASBgNVBAoTC1plcm9DLCBJ
bmMuMQwwCgYDVQQLEwNJY2UxGDAWBgNVBAMTD1plcm9DIFRlc3QgQ0EgMjEdMBsG
CSqGSIb3DQEJARYOaW5mb0B6ZXJvYy5jb22CCQDJbxG0mVjawzAXBgNVHREEEDAO
ggZjbGllbnSHBH8AAAEwDQYJKoZIhvcNAQELBQADgYEAFP8yQSFnPjpxeK1utAj4
JcWyJijBOgwr6GdZoQsz6Dgpu2WOU3n1tW7sZWU8ei8AUvTQZJh8z6H0rDL6iG0/
6yLTnFYtzw2pJjxCzfuq6CMMHn5yz3yzx/M3fR+w2D7kgimjLl9RiEa7mRULyHUb
p7svRbSX2pE9pYCu126ApBw=
-----END CERTIFICATE-----
