Certificate:
    Data:
        Version: 3 (0x2)
        Serial Number: 1 (0x1)
        Signature Algorithm: md5WithRSAEncryption
        Issuer: C=US, ST=Some State, L=Somewhere, O=Your Company, OU=Development, CN=Your Certificate Authority/emailAddress=you@some.net
        Validity
            Not Before: Dec 31 03:36:55 2005 GMT
            Not After : Dec 30 03:36:55 2010 GMT
        Subject: C=US, ST=Some State, O=Your Company, OU=Development/emailAddress=iceserver@some.net, CN=Ice Server
        Subject Public Key Info:
            Public Key Algorithm: rsaEncryption
            RSA Public Key: (1024 bit)
                Modulus (1024 bit):
                    00:aa:0c:8d:40:93:f9:32:db:f8:da:f7:c6:e3:72:
                    6d:7a:ed:6c:dc:d0:e8:01:87:a7:f0:d5:3a:07:25:
                    8b:4e:15:bc:7d:25:a9:b7:be:5a:0c:1e:d8:91:3b:
                    b9:00:03:2f:19:2a:d2:b5:4a:f0:69:7b:32:c3:e9:
                    80:22:62:de:98:c9:2e:23:4f:06:95:a2:b0:80:7b:
                    cb:84:9c:a9:6a:e8:fb:f6:0a:fb:a8:01:b1:2a:b0:
                    b1:43:b3:d7:61:b9:06:4e:88:e0:63:ce:7c:08:22:
                    60:39:bc:45:c4:d5:c8:58:16:66:02:8d:22:56:42:
                    8e:f0:83:9b:35:88:b7:1e:4f
                Exponent: 65537 (0x10001)
        X509v3 extensions:
            X509v3 Basic Constraints: 
            CA:FALSE
            X509v3 Subject Key Identifier: 
            EE:70:A0:D9:72:1A:4D:1E:9E:28:49:46:5D:30:35:0B:D2:5A:AD:9D
            X509v3 Authority Key Identifier: 
            keyid:5D:AB:9C:15:8E:87:F7:67:EE:CE:93:66:AF:AA:79:4D:8E:D8:E7:CC
            DirName:/C=US/ST=Some State/L=Somewhere/O=Your Company/OU=Development/CN=Your Certificate Authority/emailAddress=you@some.net
            serial:00

    Signature Algorithm: md5WithRSAEncryption
        1d:71:41:d9:9e:9e:87:23:1c:e2:df:46:2c:03:2f:1b:c9:06:
        68:4b:02:bd:9e:c0:88:34:ee:96:3d:08:dc:27:08:73:1a:bf:
        7f:19:42:14:1a:1d:4b:d2:f7:44:99:ff:4a:9e:7c:74:83:65:
        ce:3e:e9:f5:3e:e0:60:cb:96:79:d1:67:6b:95:70:91:4a:3d:
        de:3d:52:51:e1:7b:ec:d9:11:4b:3d:dd:b7:58:bc:06:b3:61:
        64:fb:af:c4:50:76:5f:e1:e9:11:80:70:d6:ec:14:95:02:ed:
        3d:a1:7c:65:c0:cf:c1:be:c0:2d:a9:e6:3e:33:fe:01:08:83:
        25:e6:ce:b5:bc:bf:93:a6:e0:97:ff:81:8a:95:07:39:e8:9c:
        d0:ad:93:f3:46:61:83:c2:6c:65:83:26:14:55:3a:d9:6a:42:
        e2:5a:93:c6:0f:97:1c:37:f2:a5:b4:9a:3c:a0:57:d0:8c:c3:
        bb:9c:67:8e:32:c5:d5:d6:52:a4:2e:73:11:54:01:49:34:aa:
        82:0e:4a:54:fc:f5:38:c2:9d:f1:77:14:e8:1a:32:ff:a4:c1:
        d1:90:fd:43:71:b6:e8:ac:b4:58:de:31:38:c7:9d:de:2f:61:
        e3:99:48:d1:d0:38:89:c8:d7:9a:09:df:8a:f4:f3:5f:49:c8:
        82:fd:ea:94
-----BEGIN CERTIFICATE-----
MIIEKTCCAxGgAwIBAgIBATANBgkqhkiG9w0BAQQFADCBpTELMAkGA1UEBhMCVVMx
EzARBgNVBAgTClNvbWUgU3RhdGUxEjAQBgNVBAcTCVNvbWV3aGVyZTEVMBMGA1UE
ChMMWW91ciBDb21wYW55MRQwEgYDVQQLEwtEZXZlbG9wbWVudDEjMCEGA1UEAxMa
WW91ciBDZXJ0aWZpY2F0ZSBBdXRob3JpdHkxGzAZBgkqhkiG9w0BCQEWDHlvdUBz
b21lLm5ldDAeFw0wNTEyMzEwMzM2NTVaFw0xMDEyMzAwMzM2NTVaMIGHMQswCQYD
VQQGEwJVUzETMBEGA1UECBMKU29tZSBTdGF0ZTEVMBMGA1UEChMMWW91ciBDb21w
YW55MRQwEgYDVQQLEwtEZXZlbG9wbWVudDEhMB8GCSqGSIb3DQEJARYSaWNlc2Vy
dmVyQHNvbWUubmV0MRMwEQYDVQQDEwpJY2UgU2VydmVyMIGfMA0GCSqGSIb3DQEB
AQUAA4GNADCBiQKBgQCqDI1Ak/ky2/ja98bjcm167Wzc0OgBh6fw1ToHJYtOFbx9
Jam3vloMHtiRO7kAAy8ZKtK1SvBpezLD6YAiYt6YyS4jTwaVorCAe8uEnKlq6Pv2
CvuoAbEqsLFDs9dhuQZOiOBjznwIImA5vEXE1chYFmYCjSJWQo7wg5s1iLceTwID
AQABo4IBAjCB/zAJBgNVHRMEAjAAMB0GA1UdDgQWBBTucKDZchpNHp4oSUZdMDUL
0lqtnTCB0gYDVR0jBIHKMIHHgBRdq5wVjof3Z+7Ok2avqnlNjtjnzKGBq6SBqDCB
pTELMAkGA1UEBhMCVVMxEzARBgNVBAgTClNvbWUgU3RhdGUxEjAQBgNVBAcTCVNv
bWV3aGVyZTEVMBMGA1UEChMMWW91ciBDb21wYW55MRQwEgYDVQQLEwtEZXZlbG9w
bWVudDEjMCEGA1UEAxMaWW91ciBDZXJ0aWZpY2F0ZSBBdXRob3JpdHkxGzAZBgkq
hkiG9w0BCQEWDHlvdUBzb21lLm5ldIIBADANBgkqhkiG9w0BAQQFAAOCAQEAHXFB
2Z6ehyMc4t9GLAMvG8kGaEsCvZ7AiDTulj0I3CcIcxq/fxlCFBodS9L3RJn/Sp58
dINlzj7p9T7gYMuWedFna5VwkUo93j1SUeF77NkRSz3dt1i8BrNhZPuvxFB2X+Hp
EYBw1uwUlQLtPaF8ZcDPwb7ALanmPjP+AQiDJebOtby/k6bgl/+BipUHOeic0K2T
80Zhg8JsZYMmFFU62WpC4lqTxg+XHDfypbSaPKBX0IzDu5xnjjLF1dZSpC5zEVQB
STSqgg5KVPz1OMKd8XcU6Boy/6TB0ZD9Q3G26Ky0WN4xOMed3i9h45lI0dA4icjX
mgnfivTzX0nIgv3qlA==
-----END CERTIFICATE-----
