Certificate:
    Data:
        Version: 3 (0x2)
        Serial Number: 2 (0x2)
        Signature Algorithm: md5WithRSAEncryption
        Issuer: C=US, ST=Some State, L=Somewhere, O=Your Company, OU=Development, CN=Your Certificate Authority/Email=you@some.net
        Validity
            Not Before: Feb 23 20:45:01 2003 GMT
            Not After : Feb 23 20:45:01 2004 GMT
        Subject: C=US, ST=Some State, O=Your Company, OU=Development/Email=iceclient@@some.net, CN=Ice Client
        Subject Public Key Info:
            Public Key Algorithm: rsaEncryption
            RSA Public Key: (1024 bit)
                Modulus (1024 bit):
                    00:d6:f5:02:7c:1a:8e:ab:2c:e0:36:9b:23:36:e2:
                    93:89:19:6a:1f:01:e5:df:73:96:5f:7a:52:17:cc:
                    60:d4:a2:84:c1:cb:e8:8d:3f:c9:61:a0:81:ca:70:
                    28:b0:fc:b0:24:09:93:92:24:3d:a3:82:16:57:10:
                    07:e3:65:70:b5:07:d6:49:6a:b9:b6:a7:04:30:0e:
                    2d:ce:38:b7:6a:ce:84:b6:0b:08:cf:6b:77:a9:83:
                    cc:c0:b2:d5:e1:16:f5:78:ed:9f:69:a9:d6:e5:a6:
                    b3:2b:88:8f:33:9b:74:9e:33:9d:1f:5b:cb:68:31:
                    e1:8f:6b:78:e0:7b:2b:2f:39
                Exponent: 65537 (0x10001)
        X509v3 extensions:
            X509v3 Basic Constraints: 
                CA:FALSE
            X509v3 Subject Key Identifier: 
                2D:C3:08:2C:45:F7:34:20:A1:3E:30:ED:FE:CF:21:1E:46:92:F0:D5
            X509v3 Authority Key Identifier: 
                keyid:29:E9:30:30:E9:07:C9:6D:A8:51:6C:7D:30:51:40:D3:0A:C4:24:80
                DirName:/C=US/ST=Some State/L=Somewhere/O=Your Company/OU=Development/CN=Your Certificate Authority/Email=you@some.net
                serial:00

    Signature Algorithm: md5WithRSAEncryption
        76:9f:25:31:69:d9:c9:ee:42:10:4b:d2:0a:4b:f7:d7:5a:a3:
        3d:96:eb:aa:f6:29:1f:da:23:d6:e5:5b:6c:da:64:79:60:4b:
        34:34:be:f9:d2:03:1b:84:a4:78:59:86:c5:c1:c0:69:05:d7:
        9f:5f:ea:80:cf:5f:a2:2d:29:88:fb:19:b6:00:9e:ab:d2:7b:
        c7:8a:61:86:70:07:b8:ab:e8:ce:a6:f4:95:71:94:4c:d4:b4:
        11:e1:7c:f9:f2:54:da:ee:f3:27:bd:91:5b:31:ff:c9:d2:48:
        59:32:6e:ec:a0:e8:8f:52:b2:15:6d:b8:36:57:08:67:9b:53:
        26:f2:fb:0c:77:dd:83:5f:87:3b:41:6b:be:6b:05:e4:d8:58:
        4a:bd:82:c9:57:f6:24:bc:f7:79:b8:77:31:e1:e1:5c:b2:6a:
        02:0e:0f:57:fd:7f:40:19:87:55:09:a4:af:0e:d9:84:6d:6d:
        4d:e2:7d:6e:7f:ac:e1:15:7f:b6:20:28:33:49:6c:de:4e:e7:
        05:dc:08:46:a0:46:98:b5:30:88:23:5a:10:1d:cd:b5:1d:c1:
        14:06:5d:98:ee:80:0d:ab:a1:c3:03:54:1a:42:0a:35:f2:95:
        36:03:c9:a8:c5:c5:e4:fc:f9:c1:9a:cb:e1:b5:7a:93:dc:af:
        47:47:d5:66
-----BEGIN CERTIFICATE-----
MIIEKjCCAxKgAwIBAgIBAjANBgkqhkiG9w0BAQQFADCBpTELMAkGA1UEBhMCVVMx
EzARBgNVBAgTClNvbWUgU3RhdGUxEjAQBgNVBAcTCVNvbWV3aGVyZTEVMBMGA1UE
ChMMWW91ciBDb21wYW55MRQwEgYDVQQLEwtEZXZlbG9wbWVudDEjMCEGA1UEAxMa
WW91ciBDZXJ0aWZpY2F0ZSBBdXRob3JpdHkxGzAZBgkqhkiG9w0BCQEWDHlvdUBz
b21lLm5ldDAeFw0wMzAyMjMyMDQ1MDFaFw0wNDAyMjMyMDQ1MDFaMIGIMQswCQYD
VQQGEwJVUzETMBEGA1UECBMKU29tZSBTdGF0ZTEVMBMGA1UEChMMWW91ciBDb21w
YW55MRQwEgYDVQQLEwtEZXZlbG9wbWVudDEiMCAGCSqGSIb3DQEJARYTaWNlY2xp
ZW50QEBzb21lLm5ldDETMBEGA1UEAxMKSWNlIENsaWVudDCBnzANBgkqhkiG9w0B
AQEFAAOBjQAwgYkCgYEA1vUCfBqOqyzgNpsjNuKTiRlqHwHl33OWX3pSF8xg1KKE
wcvojT/JYaCBynAosPywJAmTkiQ9o4IWVxAH42VwtQfWSWq5tqcEMA4tzji3as6E
tgsIz2t3qYPMwLLV4Rb1eO2faanW5aazK4iPM5t0njOdH1vLaDHhj2t44HsrLzkC
AwEAAaOCAQIwgf8wCQYDVR0TBAIwADAdBgNVHQ4EFgQULcMILEX3NCChPjDt/s8h
HkaS8NUwgdIGA1UdIwSByjCBx4AUKekwMOkHyW2oUWx9MFFA0wrEJIChgaukgagw
gaUxCzAJBgNVBAYTAlVTMRMwEQYDVQQIEwpTb21lIFN0YXRlMRIwEAYDVQQHEwlT
b21ld2hlcmUxFTATBgNVBAoTDFlvdXIgQ29tcGFueTEUMBIGA1UECxMLRGV2ZWxv
cG1lbnQxIzAhBgNVBAMTGllvdXIgQ2VydGlmaWNhdGUgQXV0aG9yaXR5MRswGQYJ
KoZIhvcNAQkBFgx5b3VAc29tZS5uZXSCAQAwDQYJKoZIhvcNAQEEBQADggEBAHaf
JTFp2cnuQhBL0gpL99daoz2W66r2KR/aI9blW2zaZHlgSzQ0vvnSAxuEpHhZhsXB
wGkF159f6oDPX6ItKYj7GbYAnqvSe8eKYYZwB7ir6M6m9JVxlEzUtBHhfPnyVNru
8ye9kVsx/8nSSFkybuyg6I9SshVtuDZXCGebUyby+wx33YNfhztBa75rBeTYWEq9
gslX9iS893m4dzHh4VyyagIOD1f9f0AZh1UJpK8O2YRtbU3ifW5/rOEVf7YgKDNJ
bN5O5wXcCEagRpi1MIgjWhAdzbUdwRQGXZjugA2rocMDVBpCCjXylTYDyajFxeT8
+cGay+G1epPcr0dH1WY=
-----END CERTIFICATE-----
