Certificate:
    Data:
        Version: 3 (0x2)
        Serial Number: 1 (0x1)
        Signature Algorithm: md5WithRSAEncryption
        Issuer: C=US, ST=Florida, L=Palm Beach Gardens, O=ZeroC, Inc., OU=Ice, CN=ZeroC Test CA 1/emailAddress=info@zeroc.com
        Validity
            Not Before: Mar 31 16:55:19 2006 GMT
            Not After : Mar 28 16:55:19 2016 GMT
        Subject: C=US, ST=Florida, O=ZeroC, Inc., OU=Ice/emailAddress=info@zeroc.com, CN=Server
        Subject Public Key Info:
            Public Key Algorithm: dsaEncryption
            DSA Public Key:
                pub: 
                    00:9d:7c:71:8f:36:da:1c:03:f5:fe:79:61:4e:72:
                    d7:1a:40:2b:0b:4c:96:c6:35:f8:67:36:c4:7c:19:
                    cd:4d:40:e6:da:8a:8c:88:78:3c:c8:e6:a4:62:13:
                    11:9c:f7:2b:50:a5:20:84:0b:c2:9a:fe:b3:98:ba:
                    2a:87:ce:c0:90:0e:2e:ad:17:47:dd:68:c2:f6:84:
                    5c:55:5a:2e:c9:ec:4d:38:c1:26:98:ac:1b:2d:e7:
                    b2:ef:62:21:71:ec:97:1b:e9:ba:2c:4a:33:ed:35:
                    b4:7c:8f:f8:15:62:1b:73:7c:ff:56:1e:b1:a8:63:
                    3b:55:b5:0b:c7:76:5d:b9:c6
                P:   
                    00:b0:55:d6:b6:03:40:a2:4d:e6:88:f8:26:c0:16:
                    69:f5:38:0b:68:95:51:2f:eb:15:3a:23:29:a6:8d:
                    5f:b9:98:b2:ca:3a:4d:07:87:d3:25:9d:8e:88:2e:
                    31:24:73:97:b1:b0:fb:d8:66:3b:36:70:66:65:2e:
                    25:70:af:79:ba:b9:16:5f:7f:af:d9:c2:4f:a5:d5:
                    6c:92:fc:5a:97:b8:ed:f5:49:42:a1:50:81:90:95:
                    e7:0b:96:47:07:9a:91:25:2f:6b:c2:cd:fd:4e:6d:
                    09:23:f3:0e:51:45:59:9a:a6:67:c4:dc:4d:22:55:
                    30:6c:60:f4:84:15:c4:48:df
                Q:   
                    00:9c:53:bf:84:ec:49:f9:42:42:d1:51:36:88:41:
                    f4:25:37:e5:17:d1
                G:   
                    23:1a:77:d3:ea:b3:4c:c4:8a:30:3c:7e:ba:bc:46:
                    a1:5d:75:62:7f:d3:83:65:ec:40:23:42:b5:ae:95:
                    11:5b:42:65:17:98:24:70:86:af:d0:c4:50:52:bc:
                    a6:1c:f6:35:68:0f:fc:26:24:1f:c2:70:79:4c:a0:
                    3c:af:98:5d:3a:95:00:3e:dc:84:74:65:72:39:ca:
                    be:a5:9a:96:69:9b:d6:ec:98:78:7f:4b:81:f2:dd:
                    88:e8:9e:b0:2d:64:b4:54:7b:45:ff:57:07:34:89:
                    79:72:22:75:02:39:3e:2c:6a:ba:3d:65:cd:fe:d3:
                    16:d5:55:f8:b8:1f:97:4e
        X509v3 extensions:
            X509v3 Basic Constraints: 
            CA:FALSE
            X509v3 Subject Key Identifier: 
            65:C7:AA:27:C1:86:D9:A2:70:76:CA:91:C0:A1:D3:15:37:5A:78:5F
            X509v3 Authority Key Identifier: 
            keyid:CB:05:05:F0:3E:A1:4A:A1:CB:07:6F:86:8B:AF:EE:A5:E4:CA:62:BD
            DirName:/C=US/ST=Florida/L=Palm Beach Gardens/O=ZeroC, Inc./OU=Ice/CN=ZeroC Test CA 1/emailAddress=info@zeroc.com
            serial:00

            X509v3 Subject Alternative Name: 
            DNS:server, IP Address:127.0.0.1
    Signature Algorithm: md5WithRSAEncryption
        08:3a:1c:0b:f6:e9:47:64:4a:05:5b:a5:52:df:e1:09:0d:18:
        33:d9:15:0d:28:08:e1:90:47:66:be:15:42:bd:2c:76:d4:87:
        49:68:02:77:58:1b:13:87:63:8c:24:fd:85:aa:ae:3c:2c:15:
        89:71:c5:52:d0:7f:b6:8e:48:b4:67:66:44:36:bc:26:0c:a3:
        76:32:0c:71:3f:09:07:ea:76:32:60:98:7d:43:7a:4a:a0:37:
        d8:5b:fc:a6:3a:6d:45:6b:12:9e:20:52:d9:33:90:7e:0c:05:
        7a:b3:e0:0d:4c:4c:91:01:bd:ec:a9:79:14:f7:0e:16:5e:a2:
        7d:a3:1a:db:2a:34:b9:f3:e5:d3:aa:71:2c:10:2c:1f:e3:7c:
        f4:d9:83:71:f5:1c:86:69:96:d5:1f:04:1e:2c:ac:d4:21:e0:
        0f:21:f4:70:9d:b8:46:97:15:16:83:ac:22:07:19:71:60:2e:
        2e:57:c5:e1:98:fc:f7:5c:26:f1:89:7b:18:6d:13:9f:8c:c4:
        1d:a8:34:30:97:6a:55:c3:bf:d2:7d:01:ab:46:f5:43:54:12:
        b2:84:6a:4a:09:86:f0:f7:92:fd:4d:bd:a8:84:43:22:43:75:
        69:d3:cd:e5:14:fb:79:80:c8:9e:41:3a:fc:18:ee:01:99:d0:
        24:54:cf:e8
-----BEGIN CERTIFICATE-----
MIIFLzCCBBegAwIBAgIBATANBgkqhkiG9w0BAQQFADCBmTELMAkGA1UEBhMCVVMx
EDAOBgNVBAgTB0Zsb3JpZGExGzAZBgNVBAcTElBhbG0gQmVhY2ggR2FyZGVuczEU
MBIGA1UEChMLWmVyb0MsIEluYy4xDDAKBgNVBAsTA0ljZTEYMBYGA1UEAxMPWmVy
b0MgVGVzdCBDQSAxMR0wGwYJKoZIhvcNAQkBFg5pbmZvQHplcm9jLmNvbTAeFw0w
NjAzMzExNjU1MTlaFw0xNjAzMjgxNjU1MTlaMHMxCzAJBgNVBAYTAlVTMRAwDgYD
VQQIEwdGbG9yaWRhMRQwEgYDVQQKEwtaZXJvQywgSW5jLjEMMAoGA1UECxMDSWNl
MR0wGwYJKoZIhvcNAQkBFg5pbmZvQHplcm9jLmNvbTEPMA0GA1UEAxMGU2VydmVy
MIIBtzCCASsGByqGSM44BAEwggEeAoGBALBV1rYDQKJN5oj4JsAWafU4C2iVUS/r
FTojKaaNX7mYsso6TQeH0yWdjoguMSRzl7Gw+9hmOzZwZmUuJXCvebq5Fl9/r9nC
T6XVbJL8Wpe47fVJQqFQgZCV5wuWRweakSUva8LN/U5tCSPzDlFFWZqmZ8TcTSJV
MGxg9IQVxEjfAhUAnFO/hOxJ+UJC0VE2iEH0JTflF9ECgYAjGnfT6rNMxIowPH66
vEahXXVif9ODZexAI0K1rpURW0JlF5gkcIav0MRQUrymHPY1aA/8JiQfwnB5TKA8
r5hdOpUAPtyEdGVyOcq+pZqWaZvW7Jh4f0uB8t2I6J6wLWS0VHtF/1cHNIl5ciJ1
Ajk+LGq6PWXN/tMW1VX4uB+XTgOBhQACgYEAnXxxjzbaHAP1/nlhTnLXGkArC0yW
xjX4ZzbEfBnNTUDm2oqMiHg8yOakYhMRnPcrUKUghAvCmv6zmLoqh87AkA4urRdH
3WjC9oRcVVouyexNOMEmmKwbLeey72IhceyXG+m6LEoz7TW0fI/4FWIbc3z/Vh6x
qGM7VbULx3ZducajggEQMIIBDDAJBgNVHRMEAjAAMB0GA1UdDgQWBBRlx6onwYbZ
onB2ypHAodMVN1p4XzCBxgYDVR0jBIG+MIG7gBTLBQXwPqFKocsHb4aLr+6l5Mpi
vaGBn6SBnDCBmTELMAkGA1UEBhMCVVMxEDAOBgNVBAgTB0Zsb3JpZGExGzAZBgNV
BAcTElBhbG0gQmVhY2ggR2FyZGVuczEUMBIGA1UEChMLWmVyb0MsIEluYy4xDDAK
BgNVBAsTA0ljZTEYMBYGA1UEAxMPWmVyb0MgVGVzdCBDQSAxMR0wGwYJKoZIhvcN
AQkBFg5pbmZvQHplcm9jLmNvbYIBADAXBgNVHREEEDAOggZzZXJ2ZXKHBH8AAAEw
DQYJKoZIhvcNAQEEBQADggEBAAg6HAv26UdkSgVbpVLf4QkNGDPZFQ0oCOGQR2a+
FUK9LHbUh0loAndYGxOHY4wk/YWqrjwsFYlxxVLQf7aOSLRnZkQ2vCYMo3YyDHE/
CQfqdjJgmH1DekqgN9hb/KY6bUVrEp4gUtkzkH4MBXqz4A1MTJEBveypeRT3DhZe
on2jGtsqNLnz5dOqcSwQLB/jfPTZg3H1HIZpltUfBB4srNQh4A8h9HCduEaXFRaD
rCIHGXFgLi5XxeGY/PdcJvGJexhtE5+MxB2oNDCXalXDv9J9AatG9UNUErKEakoJ
hvD3kv1NvaiEQyJDdWnTzeUU+3mAyJ5BOvwY7gGZ0CRUz+g=
-----END CERTIFICATE-----
