Certificate:
    Data:
        Version: 3 (0x2)
        Serial Number: 1 (0x1)
        Signature Algorithm: md5WithRSAEncryption
        Issuer: C=US, ST=Florida, L=Palm Beach Gardens, O=ZeroC, Inc., OU=Ice, CN=ZeroC Test CA/emailAddress=info@zeroc.com
        Validity
            Not Before: Mar 28 18:10:00 2006 GMT
            Not After : Mar 25 18:10:00 2016 GMT
        Subject: C=US, ST=Florida, O=ZeroC, Inc., OU=Ice/emailAddress=info@zeroc.com, CN=Server
        Subject Public Key Info:
            Public Key Algorithm: dsaEncryption
            DSA Public Key:
                pub: 
                    5b:ff:ba:8b:f4:07:fc:5a:4b:32:b0:92:d6:bf:63:
                    9c:6d:a0:50:d7:9e:e2:22:c3:80:8e:ac:46:e6:55:
                    5e:b0:8f:fd:9b:25:ea:35:7d:74:6c:c6:6a:b4:8a:
                    06:3a:bf:cd:f2:aa:8d:6f:aa:43:89:c3:35:24:3f:
                    a5:74:6b:f7:5d:a3:3b:77:3d:96:ab:2e:d7:1b:e9:
                    75:0f:53:32:f1:06:fb:f5:7b:0c:05:fd:f5:89:28:
                    8c:53:08:7a:e2:ba:22:1c:c8:6c:2e:17:fc:6d:ad:
                    7b:e0:a9:76:c6:0c:57:29:4f:72:be:c8:c9:68:0e:
                    e6:45:a3:88:94:14:61:e3
                P:   
                    00:d1:a8:89:3e:85:18:a9:ff:19:0c:0c:58:5b:dd:
                    23:d2:0b:d9:54:1c:58:36:70:6a:f2:ed:4a:51:fc:
                    b4:01:a1:b6:da:07:1f:7e:25:30:cb:ea:2b:30:ce:
                    28:53:d8:e8:3f:4e:2f:13:03:10:aa:86:98:d1:19:
                    04:54:ad:54:e1:bf:ec:9b:ec:3a:65:7e:b2:86:88:
                    06:f2:eb:10:83:e4:1b:09:cb:a4:5a:d0:77:21:a9:
                    57:88:4a:a5:e4:68:9c:80:18:5f:8f:5b:cd:4e:87:
                    60:51:7a:34:20:16:e6:1e:f4:da:75:6f:cb:b2:9c:
                    76:0d:d4:91:76:c5:e1:ef:e7
                Q:   
                    00:a3:37:c3:df:9f:23:bb:3b:8e:d9:da:e3:22:e1:
                    80:4e:ba:cf:c4:a9
                G:   
                    00:92:b5:42:f4:30:cf:79:c2:21:ac:31:ab:66:f9:
                    d9:a9:fb:bd:46:e6:ef:ca:06:8b:d2:b4:7c:18:33:
                    ba:07:3b:41:11:2a:36:d1:4a:f0:8d:73:ef:3a:33:
                    e3:65:d1:f6:b4:bd:b6:a7:84:fc:d7:1d:8f:1f:bd:
                    77:f5:f5:47:49:a2:06:22:5a:bb:2d:a6:ba:87:71:
                    1e:43:e1:e3:49:75:95:29:14:99:43:43:18:4f:0f:
                    9b:bd:55:4c:6e:be:51:28:73:b3:46:52:67:ec:d9:
                    e0:9c:e6:23:f5:b1:0a:09:46:26:f7:e7:3f:a0:c3:
                    dc:76:26:e2:d8:41:75:77:56
        X509v3 extensions:
            X509v3 Basic Constraints: 
            CA:FALSE
            X509v3 Subject Key Identifier: 
            5F:EA:28:E5:A1:47:D1:65:90:15:19:BA:B8:AF:CC:C8:34:3D:84:83
            X509v3 Authority Key Identifier: 
            keyid:A3:8D:7D:FF:A8:69:1E:7C:54:58:46:61:FE:B7:68:BC:2C:FC:CB:DE
            DirName:/C=US/ST=Florida/L=Palm Beach Gardens/O=ZeroC, Inc./OU=Ice/CN=ZeroC Test CA/emailAddress=info@zeroc.com
            serial:00

            X509v3 Subject Alternative Name: 
            DNS:server, IP Address:127.0.0.1
    Signature Algorithm: md5WithRSAEncryption
        c8:10:fb:07:49:82:f4:87:de:13:73:80:73:fb:90:e1:3b:c9:
        d2:33:79:fc:48:95:6f:7a:a8:15:96:55:a9:2d:a3:43:c5:d9:
        b0:5f:94:38:88:dc:a8:5e:9f:61:2d:a4:46:56:5b:92:ed:b4:
        72:45:a5:0a:38:48:7b:28:20:29:ec:d4:24:ab:ca:68:00:a8:
        26:0f:de:c0:b1:5a:11:c7:3f:09:09:12:8c:df:40:cd:d1:08:
        63:4a:c2:e0:35:f3:1d:ad:e5:1c:2d:e2:a0:41:04:e9:d0:47:
        fc:13:fd:79:55:c3:a7:db:1b:d5:11:b0:8b:ba:6a:2b:66:27:
        7a:02:66:61:09:71:da:17:0e:ec:c6:2e:46:ae:1d:15:65:23:
        41:00:5f:69:d0:88:38:98:08:fb:d9:69:e8:a3:ff:a2:d1:60:
        31:1a:dc:32:e2:2c:7d:9c:6a:4b:94:db:86:c1:21:63:12:59:
        b7:48:fe:a4:f4:57:dd:97:68:05:8c:04:04:8a:b0:88:ef:16:
        51:24:80:46:a0:d4:ed:dc:1b:70:26:b2:cd:c0:38:61:e1:1e:
        3a:6f:52:20:96:3e:8f:ac:65:6d:93:87:4a:1d:f8:37:bc:09:
        e4:d4:2c:6b:17:68:fe:2d:f9:73:50:4c:a7:e7:20:dc:61:f2:
        86:65:66:80
-----BEGIN CERTIFICATE-----
MIIFKzCCBBOgAwIBAgIBATANBgkqhkiG9w0BAQQFADCBlzELMAkGA1UEBhMCVVMx
EDAOBgNVBAgTB0Zsb3JpZGExGzAZBgNVBAcTElBhbG0gQmVhY2ggR2FyZGVuczEU
MBIGA1UEChMLWmVyb0MsIEluYy4xDDAKBgNVBAsTA0ljZTEWMBQGA1UEAxMNWmVy
b0MgVGVzdCBDQTEdMBsGCSqGSIb3DQEJARYOaW5mb0B6ZXJvYy5jb20wHhcNMDYw
MzI4MTgxMDAwWhcNMTYwMzI1MTgxMDAwWjBzMQswCQYDVQQGEwJVUzEQMA4GA1UE
CBMHRmxvcmlkYTEUMBIGA1UEChMLWmVyb0MsIEluYy4xDDAKBgNVBAsTA0ljZTEd
MBsGCSqGSIb3DQEJARYOaW5mb0B6ZXJvYy5jb20xDzANBgNVBAMTBlNlcnZlcjCC
AbcwggEsBgcqhkjOOAQBMIIBHwKBgQDRqIk+hRip/xkMDFhb3SPSC9lUHFg2cGry
7UpR/LQBobbaBx9+JTDL6iswzihT2Og/Ti8TAxCqhpjRGQRUrVThv+yb7DplfrKG
iAby6xCD5BsJy6Ra0HchqVeISqXkaJyAGF+PW81Oh2BRejQgFuYe9Np1b8uynHYN
1JF2xeHv5wIVAKM3w9+fI7s7jtna4yLhgE66z8SpAoGBAJK1QvQwz3nCIawxq2b5
2an7vUbm78oGi9K0fBgzugc7QREqNtFK8I1z7zoz42XR9rS9tqeE/Ncdjx+9d/X1
R0miBiJauy2muodxHkPh40l1lSkUmUNDGE8Pm71VTG6+UShzs0ZSZ+zZ4JzmI/Wx
CglGJvfnP6DD3HYm4thBdXdWA4GEAAKBgFv/uov0B/xaSzKwkta/Y5xtoFDXnuIi
w4COrEbmVV6wj/2bJeo1fXRsxmq0igY6v83yqo1vqkOJwzUkP6V0a/ddozt3PZar
Ltcb6XUPUzLxBvv1ewwF/fWJKIxTCHriuiIcyGwuF/xtrXvgqXbGDFcpT3K+yMlo
DuZFo4iUFGHjo4IBDjCCAQowCQYDVR0TBAIwADAdBgNVHQ4EFgQUX+oo5aFH0WWQ
FRm6uK/MyDQ9hIMwgcQGA1UdIwSBvDCBuYAUo419/6hpHnxUWEZh/rdovCz8y96h
gZ2kgZowgZcxCzAJBgNVBAYTAlVTMRAwDgYDVQQIEwdGbG9yaWRhMRswGQYDVQQH
ExJQYWxtIEJlYWNoIEdhcmRlbnMxFDASBgNVBAoTC1plcm9DLCBJbmMuMQwwCgYD
VQQLEwNJY2UxFjAUBgNVBAMTDVplcm9DIFRlc3QgQ0ExHTAbBgkqhkiG9w0BCQEW
DmluZm9AemVyb2MuY29tggEAMBcGA1UdEQQQMA6CBnNlcnZlcocEfwAAATANBgkq
hkiG9w0BAQQFAAOCAQEAyBD7B0mC9IfeE3OAc/uQ4TvJ0jN5/EiVb3qoFZZVqS2j
Q8XZsF+UOIjcqF6fYS2kRlZbku20ckWlCjhIeyggKezUJKvKaACoJg/ewLFaEcc/
CQkSjN9AzdEIY0rC4DXzHa3lHC3ioEEE6dBH/BP9eVXDp9sb1RGwi7pqK2YnegJm
YQlx2hcO7MYuRq4dFWUjQQBfadCIOJgI+9lp6KP/otFgMRrcMuIsfZxqS5TbhsEh
YxJZt0j+pPRX3ZdoBYwEBIqwiO8WUSSARqDU7dwbcCayzcA4YeEeOm9SIJY+j6xl
bZOHSh34N7wJ5NQsaxdo/i35c1BMp+cg3GHyhmVmgA==
-----END CERTIFICATE-----
