Certificate:
    Data:
        Version: 3 (0x2)
        Serial Number: 1 (0x1)
        Signature Algorithm: md5WithRSAEncryption
        Issuer: C=US, ST=Florida, L=Palm Beach Gardens, O=ZeroC, Inc., OU=Ice, CN=ZeroC Test CA 1/emailAddress=info@zeroc.com
        Validity
            Not Before: Jul 14 18:25:32 2009 GMT
            Not After : Jul 12 18:25:32 2019 GMT
        Subject: C=US, ST=Florida, O=ZeroC, Inc., OU=Ice/emailAddress=info@zeroc.com, CN=Server
        Subject Public Key Info:
            Public Key Algorithm: dsaEncryption
            DSA Public Key:
                pub: 
                    4a:71:6d:e8:88:2b:f0:d4:7f:fd:f4:42:53:dc:32:
                    58:4c:f8:a1:5c:f4:9a:f6:b5:da:b6:dd:0e:83:e6:
                    6e:6c:20:82:09:3a:51:a2:1f:4e:a6:6a:c0:52:b3:
                    2f:75:ce:66:7a:b4:c2:63:bb:30:4e:df:e3:ad:4c:
                    10:9a:9e:f1:a4:71:0c:be:b8:33:8a:e3:f5:27:ef:
                    c2:36:6a:36:b4:24:df:68:78:23:9b:7c:40:a9:46:
                    67:86:8e:3e:f3:f9:07:e3:5d:1a:cd:d0:b5:94:d5:
                    e8:43:0c:34:f2:54:b4:11:92:c9:e4:3c:b0:50:dc:
                    ec:a0:b0:22:4a:4f:1c:85
                P:   
                    00:98:2f:c0:ad:fb:b4:5a:58:b3:3e:92:75:91:07:
                    28:de:64:5c:2c:a9:e1:57:ef:a2:af:99:ba:9e:0c:
                    63:22:69:47:e7:e6:35:ae:06:bb:4e:b6:a2:fa:de:
                    9d:08:6f:d5:3a:e4:83:af:0b:a1:1e:9a:f3:f7:75:
                    b8:c3:b1:f5:59:57:6a:b4:3c:a7:12:21:61:13:ae:
                    f7:ad:9c:d3:5f:b0:ea:3d:6b:fa:cc:17:a5:5b:18:
                    55:14:55:d5:db:8d:8c:d6:d9:d0:fa:dc:0e:7a:43:
                    04:24:7c:23:3b:ae:04:f0:52:78:56:f4:c7:df:2e:
                    df:b2:f6:1d:8f:19:c8:d3:0d
                Q:   
                    00:c6:88:a8:a8:28:70:5e:71:02:c3:e7:d2:56:0e:
                    44:43:e0:58:f9:29
                G:   
                    37:05:fd:50:a9:66:26:ed:8f:a6:41:b7:5c:b2:99:
                    ac:9b:2f:a0:4b:83:d9:fd:94:54:d0:dd:75:f8:23:
                    32:80:40:9a:81:16:58:e7:e8:21:7e:52:b6:b4:92:
                    95:a9:cf:65:6c:7f:e3:d0:e1:74:46:5a:59:6a:8a:
                    dd:98:00:d9:dc:bc:73:13:f9:5d:7d:13:f2:17:d7:
                    11:88:49:d7:6f:6f:4a:d0:57:1e:54:f0:ad:4c:68:
                    92:2d:45:89:13:20:ae:c0:76:b0:8b:8a:83:2a:b0:
                    2b:fb:e2:58:a9:c9:03:6f:bf:88:30:85:94:f5:d0:
                    2c:c1:d6:1b:47:f4:63:4b
        X509v3 extensions:
            X509v3 Basic Constraints: 
                CA:FALSE
            X509v3 Subject Key Identifier: 
                88:74:29:DE:BD:14:26:66:D2:B2:9C:DD:02:85:B5:54:6F:37:F9:02
            X509v3 Authority Key Identifier: 
                keyid:B1:F2:E4:5D:CF:98:23:64:C7:71:1A:F6:CA:8B:35:71:61:CF:F9:A4
                DirName:/C=US/ST=Florida/L=Palm Beach Gardens/O=ZeroC, Inc./OU=Ice/CN=ZeroC Test CA 1/emailAddress=info@zeroc.com
                serial:EE:56:13:BD:34:21:F7:82

            X509v3 Subject Alternative Name: 
                DNS:server, IP Address:127.0.0.1
    Signature Algorithm: md5WithRSAEncryption
        09:42:4c:94:70:a5:fe:e3:4c:01:8e:71:c5:95:a0:13:93:de:
        b8:2e:45:4b:b7:c9:b8:34:c9:45:b8:ab:30:c6:25:58:6c:cc:
        ea:2f:70:db:31:37:82:eb:4f:e5:f8:4e:3c:a8:f7:9a:d3:cc:
        83:ac:69:c7:8e:66:6e:8d:19:80:2b:98:04:b5:b5:b2:91:56:
        b4:11:6f:99:7a:f3:24:e9:b8:5a:e2:5d:5a:5d:c8:fa:48:71:
        ef:72:be:70:5c:b1:eb:22:14:d0:c5:9e:dc:b4:b2:75:d2:fd:
        a6:33:8e:e0:51:03:9f:7d:d3:b9:47:ee:78:47:71:74:a5:4f:
        be:d5
-----BEGIN CERTIFICATE-----
MIIEtTCCBB6gAwIBAgIBATANBgkqhkiG9w0BAQQFADCBmTELMAkGA1UEBhMCVVMx
EDAOBgNVBAgTB0Zsb3JpZGExGzAZBgNVBAcTElBhbG0gQmVhY2ggR2FyZGVuczEU
MBIGA1UEChMLWmVyb0MsIEluYy4xDDAKBgNVBAsTA0ljZTEYMBYGA1UEAxMPWmVy
b0MgVGVzdCBDQSAxMR0wGwYJKoZIhvcNAQkBFg5pbmZvQHplcm9jLmNvbTAeFw0w
OTA3MTQxODI1MzJaFw0xOTA3MTIxODI1MzJaMHMxCzAJBgNVBAYTAlVTMRAwDgYD
VQQIEwdGbG9yaWRhMRQwEgYDVQQKEwtaZXJvQywgSW5jLjEMMAoGA1UECxMDSWNl
MR0wGwYJKoZIhvcNAQkBFg5pbmZvQHplcm9jLmNvbTEPMA0GA1UEAxMGU2VydmVy
MIIBtjCCASsGByqGSM44BAEwggEeAoGBAJgvwK37tFpYsz6SdZEHKN5kXCyp4Vfv
oq+Zup4MYyJpR+fmNa4Gu062ovrenQhv1Trkg68LoR6a8/d1uMOx9VlXarQ8pxIh
YROu962c01+w6j1r+swXpVsYVRRV1duNjNbZ0PrcDnpDBCR8IzuuBPBSeFb0x98u
37L2HY8ZyNMNAhUAxoioqChwXnECw+fSVg5EQ+BY+SkCgYA3Bf1QqWYm7Y+mQbdc
spmsmy+gS4PZ/ZRU0N11+CMygECagRZY5+ghflK2tJKVqc9lbH/j0OF0RlpZaord
mADZ3LxzE/ldfRPyF9cRiEnXb29K0FceVPCtTGiSLUWJEyCuwHawi4qDKrAr++JY
qckDb7+IMIWU9dAswdYbR/RjSwOBhAACgYBKcW3oiCvw1H/99EJT3DJYTPihXPSa
9rXatt0Og+ZubCCCCTpRoh9OpmrAUrMvdc5merTCY7swTt/jrUwQmp7xpHEMvrgz
iuP1J+/CNmo2tCTfaHgjm3xAqUZnho4+8/kH410azdC1lNXoQww08lS0EZLJ5Dyw
UNzsoLAiSk8chaOCARgwggEUMAkGA1UdEwQCMAAwHQYDVR0OBBYEFIh0Kd69FCZm
0rKc3QKFtVRvN/kCMIHOBgNVHSMEgcYwgcOAFLHy5F3PmCNkx3Ea9sqLNXFhz/mk
oYGfpIGcMIGZMQswCQYDVQQGEwJVUzEQMA4GA1UECBMHRmxvcmlkYTEbMBkGA1UE
BxMSUGFsbSBCZWFjaCBHYXJkZW5zMRQwEgYDVQQKEwtaZXJvQywgSW5jLjEMMAoG
A1UECxMDSWNlMRgwFgYDVQQDEw9aZXJvQyBUZXN0IENBIDExHTAbBgkqhkiG9w0B
CQEWDmluZm9AemVyb2MuY29tggkA7lYTvTQh94IwFwYDVR0RBBAwDoIGc2VydmVy
hwR/AAABMA0GCSqGSIb3DQEBBAUAA4GBAAlCTJRwpf7jTAGOccWVoBOT3rguRUu3
ybg0yUW4qzDGJVhszOovcNsxN4LrT+X4Tjyo95rTzIOsaceOZm6NGYArmAS1tbKR
VrQRb5l68yTpuFriXVpdyPpIce9yvnBcsesiFNDFnty0snXS/aYzjuBRA59907lH
7nhHcXSlT77V
-----END CERTIFICATE-----
