Certificate:
    Data:
        Version: 3 (0x2)
        Serial Number: 1 (0x1)
        Signature Algorithm: md5WithRSAEncryption
        Issuer: C=US, ST=Florida, L=Palm Beach Gardens, O=ZeroC, Inc., OU=Ice, CN=ZeroC Test CA/emailAddress=info@zeroc.com
        Validity
            Not Before: Mar 31 16:20:00 2006 GMT
            Not After : Mar 28 16:20:00 2016 GMT
        Subject: C=US, ST=Florida, O=ZeroC, Inc., OU=Ice/emailAddress=info@zeroc.com, CN=Server
        Subject Public Key Info:
            Public Key Algorithm: dsaEncryption
            DSA Public Key:
                pub: 
                    20:29:db:55:d4:b2:da:ed:c7:14:67:4c:0a:d8:00:
                    88:b1:7d:0c:9d:6d:e0:07:53:bc:c0:85:75:0f:cb:
                    8e:0b:fb:a2:3a:f2:74:9b:17:1d:bf:1a:9f:ac:e4:
                    43:dc:83:a2:33:54:1d:69:ad:ca:7c:01:62:ba:7e:
                    61:c7:f7:64:0c:c8:93:8c:79:49:6d:4c:a6:bf:c0:
                    26:05:76:e5:9c:c1:f8:6a:68:7c:9c:7f:49:07:00:
                    17:dd:25:bb:ff:50:08:2a:8d:23:f2:a8:d4:76:d3:
                    02:6b:47:30:5d:c5:0c:05:73:dd:76:a4:58:a0:cf:
                    b8:b2:f6:ae:4e:62:92:91
                P:   
                    00:83:15:5f:a6:00:34:1d:75:5d:dc:2f:b6:e6:ac:
                    14:0e:dd:13:0b:bb:32:d4:39:d8:ad:c1:1c:7c:09:
                    fb:d0:73:43:a2:d2:74:53:7f:e4:2d:de:b4:64:9b:
                    1e:b1:c5:e3:17:11:81:78:0c:a5:37:65:37:a2:26:
                    fb:99:3f:2e:7f:e0:48:8d:91:dc:94:57:5b:f6:1b:
                    3b:e3:5a:b1:c7:28:dd:d2:64:54:bd:d0:5a:3f:d1:
                    04:a8:88:9e:3c:55:bc:84:ab:71:ce:9c:2d:f9:f5:
                    6c:45:87:cc:74:e9:12:58:30:9a:fb:09:c9:fc:b9:
                    db:e8:0d:a3:a3:8b:49:1f:2b
                Q:   
                    00:e5:90:59:41:c6:d9:c4:74:41:1b:b1:7b:24:a6:
                    fc:56:bc:1f:00:39
                G:   
                    48:20:c6:92:e7:9f:63:9b:38:fb:3a:d3:c8:0d:a5:
                    62:bb:ca:ed:97:45:1a:3e:80:0b:1c:75:06:72:10:
                    5a:25:e8:1d:2d:fb:65:69:a1:64:bb:d8:04:13:10:
                    d4:84:a1:d8:ae:46:f8:c4:c6:ae:6d:f2:dc:a0:18:
                    f1:73:aa:ab:ba:dd:3b:c0:35:ad:6b:b6:2d:c6:4a:
                    16:f6:c8:df:6d:43:64:12:3e:08:ae:d9:ad:f4:c8:
                    a4:eb:d6:6c:6a:b2:18:6a:7e:cc:9e:6a:57:bf:c2:
                    12:54:d4:dd:42:39:41:65:26:dd:df:7e:db:91:5b:
                    b5:96:cb:b5:65:c9:c6:28
        X509v3 extensions:
            X509v3 Basic Constraints: 
            CA:FALSE
            X509v3 Subject Key Identifier: 
            44:8F:74:4C:99:82:D3:8F:56:A1:DD:0D:DB:59:93:66:90:21:61:1D
            X509v3 Authority Key Identifier: 
            keyid:5A:A7:44:4D:31:6D:4F:2F:BE:07:F4:C6:59:06:53:08:D7:0E:46:CE
            DirName:/C=US/ST=Florida/L=Palm Beach Gardens/O=ZeroC, Inc./OU=Ice/CN=ZeroC Test CA/emailAddress=info@zeroc.com
            serial:00

            X509v3 Subject Alternative Name: 
            DNS:server, IP Address:127.0.0.1
    Signature Algorithm: md5WithRSAEncryption
        b1:7a:6b:57:70:5a:ec:1a:f9:b6:5f:14:cc:17:f5:fc:c8:02:
        ea:85:13:93:bb:68:2b:7c:d5:c1:48:3c:8f:48:6e:17:97:0c:
        dd:37:f7:35:c8:81:3e:9d:e1:7b:df:2d:2a:94:87:14:3a:1b:
        d4:04:e6:5c:50:a4:c0:c4:c7:6c:c1:3e:0b:0b:6d:d0:49:fe:
        9f:7e:3a:1b:00:9d:30:86:a6:ba:89:7e:26:a7:24:be:61:d1:
        10:4c:f2:5a:14:22:e8:3d:53:b9:8b:26:96:6d:24:3f:9c:ef:
        4b:b6:69:84:b7:18:c6:2e:f9:7f:50:fa:5b:5d:c9:d8:d2:7f:
        3a:d3:60:3e:6d:bb:64:86:1e:9d:7b:9f:d7:bb:bd:16:d7:1c:
        19:ba:5b:cc:5c:a9:da:1e:34:9d:e9:fe:8f:0d:af:00:6c:84:
        2e:45:9e:2b:d7:81:45:3e:47:4a:c8:af:94:48:d2:b7:21:69:
        7b:da:a4:88:11:f9:fb:52:ca:8f:0c:1c:f6:6f:5f:9b:3b:6b:
        10:89:00:5c:16:95:82:06:2c:6b:2b:ce:bb:00:17:9b:e6:6f:
        63:43:fd:54:d8:25:c9:0a:66:b6:cd:2a:a9:4c:de:2f:a3:c0:
        47:30:20:26:de:88:cb:be:93:87:bb:38:c9:8c:9e:30:f8:5a:
        86:24:81:da
-----BEGIN CERTIFICATE-----
MIIFKjCCBBKgAwIBAgIBATANBgkqhkiG9w0BAQQFADCBlzELMAkGA1UEBhMCVVMx
EDAOBgNVBAgTB0Zsb3JpZGExGzAZBgNVBAcTElBhbG0gQmVhY2ggR2FyZGVuczEU
MBIGA1UEChMLWmVyb0MsIEluYy4xDDAKBgNVBAsTA0ljZTEWMBQGA1UEAxMNWmVy
b0MgVGVzdCBDQTEdMBsGCSqGSIb3DQEJARYOaW5mb0B6ZXJvYy5jb20wHhcNMDYw
MzMxMTYyMDAwWhcNMTYwMzI4MTYyMDAwWjBzMQswCQYDVQQGEwJVUzEQMA4GA1UE
CBMHRmxvcmlkYTEUMBIGA1UEChMLWmVyb0MsIEluYy4xDDAKBgNVBAsTA0ljZTEd
MBsGCSqGSIb3DQEJARYOaW5mb0B6ZXJvYy5jb20xDzANBgNVBAMTBlNlcnZlcjCC
AbYwggErBgcqhkjOOAQBMIIBHgKBgQCDFV+mADQddV3cL7bmrBQO3RMLuzLUOdit
wRx8CfvQc0Oi0nRTf+Qt3rRkmx6xxeMXEYF4DKU3ZTeiJvuZPy5/4EiNkdyUV1v2
GzvjWrHHKN3SZFS90Fo/0QSoiJ48VbyEq3HOnC359WxFh8x06RJYMJr7Ccn8udvo
DaOji0kfKwIVAOWQWUHG2cR0QRuxeySm/Fa8HwA5AoGASCDGkuefY5s4+zrTyA2l
YrvK7ZdFGj6ACxx1BnIQWiXoHS37ZWmhZLvYBBMQ1ISh2K5G+MTGrm3y3KAY8XOq
q7rdO8A1rWu2LcZKFvbI321DZBI+CK7ZrfTIpOvWbGqyGGp+zJ5qV7/CElTU3UI5
QWUm3d9+25FbtZbLtWXJxigDgYQAAoGAICnbVdSy2u3HFGdMCtgAiLF9DJ1t4AdT
vMCFdQ/Ljgv7ojrydJsXHb8an6zkQ9yDojNUHWmtynwBYrp+Ycf3ZAzIk4x5SW1M
pr/AJgV25ZzB+GpofJx/SQcAF90lu/9QCCqNI/Ko1HbTAmtHMF3FDAVz3XakWKDP
uLL2rk5ikpGjggEOMIIBCjAJBgNVHRMEAjAAMB0GA1UdDgQWBBREj3RMmYLTj1ah
3Q3bWZNmkCFhHTCBxAYDVR0jBIG8MIG5gBRap0RNMW1PL74H9MZZBlMI1w5GzqGB
naSBmjCBlzELMAkGA1UEBhMCVVMxEDAOBgNVBAgTB0Zsb3JpZGExGzAZBgNVBAcT
ElBhbG0gQmVhY2ggR2FyZGVuczEUMBIGA1UEChMLWmVyb0MsIEluYy4xDDAKBgNV
BAsTA0ljZTEWMBQGA1UEAxMNWmVyb0MgVGVzdCBDQTEdMBsGCSqGSIb3DQEJARYO
aW5mb0B6ZXJvYy5jb22CAQAwFwYDVR0RBBAwDoIGc2VydmVyhwR/AAABMA0GCSqG
SIb3DQEBBAUAA4IBAQCxemtXcFrsGvm2XxTMF/X8yALqhROTu2grfNXBSDyPSG4X
lwzdN/c1yIE+neF73y0qlIcUOhvUBOZcUKTAxMdswT4LC23QSf6ffjobAJ0whqa6
iX4mpyS+YdEQTPJaFCLoPVO5iyaWbSQ/nO9LtmmEtxjGLvl/UPpbXcnY0n8602A+
bbtkhh6de5/Xu70W1xwZulvMXKnaHjSd6f6PDa8AbIQuRZ4r14FFPkdKyK+USNK3
IWl72qSIEfn7UsqPDBz2b1+bO2sQiQBcFpWCBixrK867ABeb5m9jQ/1U2CXJCma2
zSqpTN4vo8BHMCAm3ojLvpOHuzjJjJ4w+FqGJIHa
-----END CERTIFICATE-----
