Certificate:
    Data:
        Version: 3 (0x2)
        Serial Number: 1 (0x1)
    Signature Algorithm: sha256WithRSAEncryption
        Issuer: C=US, ST=Florida, L=Palm Beach Gardens, O=ZeroC, Inc., OU=Ice, CN=ZeroC Test CA 1/emailAddress=info@zeroc.com
        Validity
            Not Before: Jul 11 17:17:36 2014 GMT
            Not After : Jul  8 17:17:36 2024 GMT
        Subject: C=US, ST=Florida, O=ZeroC, Inc., OU=Ice/emailAddress=info@zeroc.com, CN=Server
        Subject Public Key Info:
            Public Key Algorithm: dsaEncryption
                pub: 
                    00:84:7d:97:1d:0f:2a:5c:0d:bb:3d:ef:0d:31:1d:
                    ca:bf:95:0a:dd:1f:47:4c:fc:32:72:4a:8f:78:a5:
                    e8:31:d2:93:e0:6e:97:61:bf:b8:00:92:a4:e8:73:
                    41:3d:cc:9e:1c:b2:cf:c5:ae:9c:a9:ea:3d:4f:90:
                    d2:7c:bd:0a:11:e9:da:cc:e2:d3:2b:8a:af:5b:1f:
                    3f:33:60:5c:70:cd:50:e2:35:ea:71:f7:95:45:48:
                    8f:a3:89:2a:ae:12:84:09:a2:ec:b7:52:bb:b2:af:
                    f3:64:4d:58:f0:58:0e:a5:25:04:c8:c4:48:89:b3:
                    f9:1a:a8:aa:2a:b2:3b:8f:06
                P:   
                    00:a0:1e:58:a8:4c:01:8a:79:b1:61:f9:ae:c9:a8:
                    90:26:9c:92:29:41:f6:50:92:a8:66:7c:52:80:57:
                    e5:88:45:66:8b:ef:fd:05:aa:af:53:21:72:70:5b:
                    2e:00:05:be:0d:6d:4b:a4:57:b8:97:25:db:19:dd:
                    75:48:50:ec:37:20:57:1a:68:dc:f9:f6:32:1f:47:
                    d2:8e:06:2c:b2:51:0d:fa:86:39:e8:32:0f:69:16:
                    94:5c:7c:c0:dc:44:9f:ff:6b:2e:0d:79:cc:6b:ff:
                    c1:8d:b5:f1:2d:ec:a5:a4:aa:15:e3:55:93:8e:9d:
                    69:61:40:a3:f4:b0:35:a9:71
                Q:   
                    00:b0:16:10:18:a5:47:c7:f8:6a:13:b0:e1:3b:08:
                    11:92:21:b0:30:e9
                G:   
                    0d:e8:2e:4f:bb:15:ce:43:9c:a3:d1:47:4d:78:e1:
                    43:b8:75:4b:8a:9d:87:d6:79:ee:31:02:26:48:21:
                    02:32:9f:9e:8a:27:52:b1:67:20:e0:ad:28:b4:fc:
                    2f:36:dd:f5:8b:65:81:58:41:af:d1:62:f0:d7:e1:
                    02:35:b1:e2:f2:dd:6e:a3:ea:2c:78:cb:dd:2a:4f:
                    e5:e2:eb:d6:02:36:bb:76:28:85:1f:83:d4:98:e9:
                    5f:57:fa:5f:71:82:37:be:44:31:b6:fe:43:9e:93:
                    91:2a:f9:12:c0:ed:c1:0d:c1:14:7b:db:53:52:fa:
                    7a:00:e3:07:07:2a:b3:fd
        X509v3 extensions:
            X509v3 Basic Constraints: 
                CA:FALSE
            X509v3 Subject Key Identifier: 
                ED:94:32:2B:1F:41:F9:66:B7:78:D2:D8:53:78:EC:8F:46:C7:37:99
            X509v3 Authority Key Identifier: 
                keyid:D3:64:A2:78:6C:8C:1F:AD:F2:26:79:F8:1B:05:25:C5:8B:62:A9:F3
                DirName:/C=US/ST=Florida/L=Palm Beach Gardens/O=ZeroC, Inc./OU=Ice/CN=ZeroC Test CA 1/emailAddress=info@zeroc.com
                serial:F9:E6:F8:11:B0:B7:85:00

            X509v3 Subject Alternative Name: 
                DNS:server, IP Address:127.0.0.1
            X509v3 Issuer Alternative Name: 
                email:issuer@zeroc.com, IP Address:127.0.0.1
    Signature Algorithm: sha256WithRSAEncryption
         4f:e6:32:93:f7:6f:27:27:d2:1f:9c:24:f6:8e:a3:35:87:6c:
         16:7c:a6:5a:35:82:d0:6b:22:76:b2:8f:fe:7b:8a:6b:1e:00:
         8a:af:c3:fe:1a:78:47:9d:fb:49:72:b9:7e:8e:cf:ad:a6:85:
         47:ea:a6:c2:84:cc:92:c6:5a:43:47:15:83:78:fd:e9:8b:f9:
         83:4f:59:2e:40:81:47:92:6e:c3:93:aa:09:f9:51:8f:bd:5d:
         4a:53:cf:8d:3b:e4:2d:2e:51:de:b9:82:cf:f1:17:e3:f9:ac:
         a1:ea:b3:68:f4:e9:c9:e5:54:10:ae:01:1b:3f:d1:97:1b:12:
         ab:b5
-----BEGIN CERTIFICATE-----
MIIE2TCCBEKgAwIBAgIBATANBgkqhkiG9w0BAQsFADCBmTELMAkGA1UEBhMCVVMx
EDAOBgNVBAgTB0Zsb3JpZGExGzAZBgNVBAcTElBhbG0gQmVhY2ggR2FyZGVuczEU
MBIGA1UEChMLWmVyb0MsIEluYy4xDDAKBgNVBAsTA0ljZTEYMBYGA1UEAxMPWmVy
b0MgVGVzdCBDQSAxMR0wGwYJKoZIhvcNAQkBFg5pbmZvQHplcm9jLmNvbTAeFw0x
NDA3MTExNzE3MzZaFw0yNDA3MDgxNzE3MzZaMHMxCzAJBgNVBAYTAlVTMRAwDgYD
VQQIEwdGbG9yaWRhMRQwEgYDVQQKEwtaZXJvQywgSW5jLjEMMAoGA1UECxMDSWNl
MR0wGwYJKoZIhvcNAQkBFg5pbmZvQHplcm9jLmNvbTEPMA0GA1UEAxMGU2VydmVy
MIIBtzCCASsGByqGSM44BAEwggEeAoGBAKAeWKhMAYp5sWH5rsmokCackilB9lCS
qGZ8UoBX5YhFZovv/QWqr1MhcnBbLgAFvg1tS6RXuJcl2xnddUhQ7DcgVxpo3Pn2
Mh9H0o4GLLJRDfqGOegyD2kWlFx8wNxEn/9rLg15zGv/wY218S3spaSqFeNVk46d
aWFAo/SwNalxAhUAsBYQGKVHx/hqE7DhOwgRkiGwMOkCgYAN6C5PuxXOQ5yj0UdN
eOFDuHVLip2H1nnuMQImSCECMp+eiidSsWcg4K0otPwvNt31i2WBWEGv0WLw1+EC
NbHi8t1uo+oseMvdKk/l4uvWAja7diiFH4PUmOlfV/pfcYI3vkQxtv5DnpORKvkS
wO3BDcEUe9tTUvp6AOMHByqz/QOBhQACgYEAhH2XHQ8qXA27Pe8NMR3Kv5UK3R9H
TPwyckqPeKXoMdKT4G6XYb+4AJKk6HNBPcyeHLLPxa6cqeo9T5DSfL0KEenazOLT
K4qvWx8/M2BccM1Q4jXqcfeVRUiPo4kqrhKECaLst1K7sq/zZE1Y8FgOpSUEyMRI
ibP5GqiqKrI7jwajggE7MIIBNzAJBgNVHRMEAjAAMB0GA1UdDgQWBBTtlDIrH0H5
Zrd40thTeOyPRsc3mTCBzgYDVR0jBIHGMIHDgBTTZKJ4bIwfrfImefgbBSXFi2Kp
86GBn6SBnDCBmTELMAkGA1UEBhMCVVMxEDAOBgNVBAgTB0Zsb3JpZGExGzAZBgNV
BAcTElBhbG0gQmVhY2ggR2FyZGVuczEUMBIGA1UEChMLWmVyb0MsIEluYy4xDDAK
BgNVBAsTA0ljZTEYMBYGA1UEAxMPWmVyb0MgVGVzdCBDQSAxMR0wGwYJKoZIhvcN
AQkBFg5pbmZvQHplcm9jLmNvbYIJAPnm+BGwt4UAMBcGA1UdEQQQMA6CBnNlcnZl
cocEfwAAATAhBgNVHRIEGjAYgRBpc3N1ZXJAemVyb2MuY29thwR/AAABMA0GCSqG
SIb3DQEBCwUAA4GBAE/mMpP3bycn0h+cJPaOozWHbBZ8plo1gtBrInayj/57imse
AIqvw/4aeEed+0lyuX6Oz62mhUfqpsKEzJLGWkNHFYN4/emL+YNPWS5AgUeSbsOT
qgn5UY+9XUpTz4075C0uUd65gs/xF+P5rKHqs2j06cnlVBCuARs/0ZcbEqu1
-----END CERTIFICATE-----
