Certificate:
    Data:
        Version: 3 (0x2)
        Serial Number: 1 (0x1)
        Signature Algorithm: md5WithRSAEncryption
        Issuer: C=US, ST=Florida, L=Palm Beach Gardens, O=ZeroC, Inc., OU=Ice, CN=ZeroC Test CA 1/emailAddress=info@zeroc.com
        Validity
            Not Before: Sep 23 15:11:17 2009 GMT
            Not After : Sep 21 15:11:17 2019 GMT
        Subject: C=US, ST=Florida, O=ZeroC, Inc., OU=Ice/emailAddress=info@zeroc.com, CN=Server
        Subject Public Key Info:
            Public Key Algorithm: dsaEncryption
            DSA Public Key:
                pub: 
                    46:2a:3f:7f:a4:fc:e7:62:8d:84:4e:d2:e3:e3:f7:
                    9a:3a:79:4c:a0:8a:5f:d0:b1:15:f2:7b:6b:fd:78:
                    e0:2b:5b:64:0a:62:f4:c4:6c:7e:33:88:39:c5:23:
                    3e:63:c6:48:31:77:7f:eb:f6:38:87:01:13:c7:ba:
                    07:1d:2d:09:47:17:79:f6:63:53:96:9d:f5:74:78:
                    c2:33:cb:0e:02:be:af:7e:9e:39:be:b8:49:f2:aa:
                    b9:21:13:22:c3:87:56:31:21:af:0a:a6:26:64:8d:
                    07:63:02:61:5b:41:e3:24:19:3d:0d:d3:2c:a9:ef:
                    22:7b:72:90:95:99:51:e1
                P:   
                    00:c0:13:c1:80:46:82:1a:25:59:3b:92:5a:fc:e3:
                    ac:fc:00:77:ab:81:14:56:da:6d:8a:ff:09:4d:04:
                    1d:a1:0d:dc:e1:0d:bb:33:97:40:01:85:dc:b1:c3:
                    2d:c7:d4:3e:15:3a:d5:e0:ba:af:42:fd:4c:2c:20:
                    9d:9b:00:68:e8:e9:e8:82:3e:e7:b0:29:b5:06:32:
                    10:cb:3b:98:cd:08:3e:a5:39:6a:b6:ca:39:d6:be:
                    9a:15:fb:57:33:4b:aa:4b:71:94:76:43:d5:30:5f:
                    75:3f:3e:a7:b5:c8:22:52:1b:99:cf:7c:7e:b5:1a:
                    14:0e:32:59:bf:0f:04:da:eb
                Q:   
                    00:ad:0d:44:74:80:1b:fc:2b:fc:77:e2:0c:78:c9:
                    fa:e3:44:2c:ba:8f
                G:   
                    00:83:aa:8e:cb:1e:ef:be:04:7c:1a:15:d8:40:33:
                    f6:5a:5c:7b:38:4f:ac:69:7c:6c:06:c1:13:28:b3:
                    eb:6c:33:4b:f1:11:bc:86:47:9a:8b:f3:0e:11:1f:
                    66:52:ce:c1:bf:bb:54:78:48:b9:f5:20:5e:6c:e4:
                    ba:69:d2:8f:78:f1:91:94:65:61:a7:22:26:37:18:
                    fc:c5:31:32:ac:e2:70:68:e8:1d:9e:79:42:09:f0:
                    36:f1:62:7f:4c:2c:ab:95:68:8a:e3:9f:f3:ca:14:
                    8c:8b:52:a1:d9:97:90:8d:3e:01:26:d2:43:61:7e:
                    dd:a8:c1:c9:25:63:a2:c7:1d
        X509v3 extensions:
            X509v3 Basic Constraints: 
                CA:FALSE
            X509v3 Subject Key Identifier: 
                97:4E:92:ED:3A:F7:3E:D9:D9:DF:F6:93:1F:A7:2D:A7:C2:5F:F6:15
            X509v3 Authority Key Identifier: 
                keyid:28:11:80:FD:88:57:63:47:6B:C0:BA:A6:CE:3A:C7:C4:7F:73:31:25
                DirName:/C=US/ST=Florida/L=Palm Beach Gardens/O=ZeroC, Inc./OU=Ice/CN=ZeroC Test CA 1/emailAddress=info@zeroc.com
                serial:DD:26:15:4D:4C:3F:B6:11

            X509v3 Subject Alternative Name: 
                DNS:server, IP Address:127.0.0.1
            X509v3 Issuer Alternative Name: 
                email:issuer@zeroc.com, IP Address:127.0.0.1
    Signature Algorithm: md5WithRSAEncryption
        38:e2:9c:a6:55:c5:c8:3d:7e:c0:fd:08:7d:e9:a4:e7:d0:c3:
        8f:9f:5c:9d:38:04:22:3d:48:ea:b8:42:96:a3:27:8c:9b:b6:
        ed:b9:cc:e0:38:35:0b:47:03:9f:42:c8:46:b8:17:36:0c:be:
        08:8b:29:f2:cb:bd:d7:78:77:18:fb:2e:aa:e1:99:23:6d:77:
        f4:2a:ac:96:c6:b5:3a:7a:b9:a9:2b:45:e0:3e:d5:dc:98:fe:
        55:8d:56:7a:70:f8:52:b3:9f:05:9a:2e:52:a3:3b:f8:c2:5d:
        2a:df:fb:d5:6e:e2:72:51:f7:19:4c:60:cb:bb:08:5b:97:9f:
        ac:b5
-----BEGIN CERTIFICATE-----
MIIE2TCCBEKgAwIBAgIBATANBgkqhkiG9w0BAQQFADCBmTELMAkGA1UEBhMCVVMx
EDAOBgNVBAgTB0Zsb3JpZGExGzAZBgNVBAcTElBhbG0gQmVhY2ggR2FyZGVuczEU
MBIGA1UEChMLWmVyb0MsIEluYy4xDDAKBgNVBAsTA0ljZTEYMBYGA1UEAxMPWmVy
b0MgVGVzdCBDQSAxMR0wGwYJKoZIhvcNAQkBFg5pbmZvQHplcm9jLmNvbTAeFw0w
OTA5MjMxNTExMTdaFw0xOTA5MjExNTExMTdaMHMxCzAJBgNVBAYTAlVTMRAwDgYD
VQQIEwdGbG9yaWRhMRQwEgYDVQQKEwtaZXJvQywgSW5jLjEMMAoGA1UECxMDSWNl
MR0wGwYJKoZIhvcNAQkBFg5pbmZvQHplcm9jLmNvbTEPMA0GA1UEAxMGU2VydmVy
MIIBtzCCASwGByqGSM44BAEwggEfAoGBAMATwYBGgholWTuSWvzjrPwAd6uBFFba
bYr/CU0EHaEN3OENuzOXQAGF3LHDLcfUPhU61eC6r0L9TCwgnZsAaOjp6II+57Ap
tQYyEMs7mM0IPqU5arbKOda+mhX7VzNLqktxlHZD1TBfdT8+p7XIIlIbmc98frUa
FA4yWb8PBNrrAhUArQ1EdIAb/Cv8d+IMeMn640Qsuo8CgYEAg6qOyx7vvgR8GhXY
QDP2Wlx7OE+saXxsBsETKLPrbDNL8RG8hkeai/MOER9mUs7Bv7tUeEi59SBebOS6
adKPePGRlGVhpyImNxj8xTEyrOJwaOgdnnlCCfA28WJ/TCyrlWiK45/zyhSMi1Kh
2ZeQjT4BJtJDYX7dqMHJJWOixx0DgYQAAoGARio/f6T852KNhE7S4+P3mjp5TKCK
X9CxFfJ7a/144CtbZApi9MRsfjOIOcUjPmPGSDF3f+v2OIcBE8e6Bx0tCUcXefZj
U5ad9XR4wjPLDgK+r36eOb64SfKquSETIsOHVjEhrwqmJmSNB2MCYVtB4yQZPQ3T
LKnvIntykJWZUeGjggE7MIIBNzAJBgNVHRMEAjAAMB0GA1UdDgQWBBSXTpLtOvc+
2dnf9pMfpy2nwl/2FTCBzgYDVR0jBIHGMIHDgBQoEYD9iFdjR2vAuqbOOsfEf3Mx
JaGBn6SBnDCBmTELMAkGA1UEBhMCVVMxEDAOBgNVBAgTB0Zsb3JpZGExGzAZBgNV
BAcTElBhbG0gQmVhY2ggR2FyZGVuczEUMBIGA1UEChMLWmVyb0MsIEluYy4xDDAK
BgNVBAsTA0ljZTEYMBYGA1UEAxMPWmVyb0MgVGVzdCBDQSAxMR0wGwYJKoZIhvcN
AQkBFg5pbmZvQHplcm9jLmNvbYIJAN0mFU1MP7YRMBcGA1UdEQQQMA6CBnNlcnZl
cocEfwAAATAhBgNVHRIEGjAYgRBpc3N1ZXJAemVyb2MuY29thwR/AAABMA0GCSqG
SIb3DQEBBAUAA4GBADjinKZVxcg9fsD9CH3ppOfQw4+fXJ04BCI9SOq4QpajJ4yb
tu25zOA4NQtHA59CyEa4FzYMvgiLKfLLvdd4dxj7LqrhmSNtd/QqrJbGtTp6uakr
ReA+1dyY/lWNVnpw+FKznwWaLlKjO/jCXSrf+9Vu4nJR9xlMYMu7CFuXn6y1
-----END CERTIFICATE-----
