Certificate:
    Data:
        Version: 3 (0x2)
        Serial Number: 1 (0x1)
        Signature Algorithm: sha1WithRSAEncryption
        Issuer: C=US, ST=Florida, L=Palm Beach Gardens, O=ZeroC, Inc., OU=Ice, CN=ZeroC Test CA 1/emailAddress=info@zeroc.com
        Validity
            Not Before: Mar 17 14:50:34 2010 GMT
            Not After : Mar 14 14:50:34 2020 GMT
        Subject: C=US, ST=Florida, O=ZeroC, Inc., OU=Ice/emailAddress=info@zeroc.com, CN=Server
        Subject Public Key Info:
            Public Key Algorithm: dsaEncryption
                pub: 
                    21:c0:ea:72:c2:8e:c1:f0:ba:93:98:c1:bc:51:84:
                    ea:9d:54:c4:ba:d2:d0:80:90:4e:7c:59:dd:e4:b0:
                    4f:4d:c4:09:2b:ed:15:46:29:dd:43:77:e5:25:66:
                    49:5a:4b:be:f4:99:aa:b2:31:b4:95:7e:ad:57:c1:
                    22:c0:41:96:13:f8:af:13:27:55:5d:be:7a:1d:a3:
                    4e:2d:fa:89:3d:1c:85:55:1f:1c:34:91:57:61:6d:
                    95:b0:d2:9d:fb:65:5b:1d:f2:85:a8:a9:9e:4f:5b:
                    c4:33:85:93:a1:9b:c1:f8:f9:e2:bc:94:06:c0:ca:
                    79:47:95:00:f8:86:aa:94
                P:   
                    00:c2:a4:99:8f:ae:95:18:3e:ac:be:1f:dd:a5:3b:
                    ef:b6:53:23:e8:36:71:3c:fc:5c:3f:ac:34:3c:31:
                    55:20:59:3a:12:fe:3d:e9:a5:b5:8a:4c:40:17:78:
                    8d:30:c4:67:36:21:b9:ef:b2:6c:59:b7:e1:23:46:
                    81:57:3b:f5:af:33:a4:9e:25:e7:c3:1b:88:ee:01:
                    b6:b2:8c:0b:aa:41:0f:56:8a:8f:da:88:c3:fe:0f:
                    36:60:14:11:37:41:31:d0:18:b6:ff:26:73:79:ae:
                    f5:c2:a0:bb:83:23:f1:01:bb:a2:51:1c:6f:e0:6f:
                    7d:43:08:c7:19:bf:29:e4:4b
                Q:   
                    00:f3:0d:09:6f:d3:89:f0:0e:7d:f9:9a:62:c1:3c:
                    17:01:7e:16:74:e5
                G:   
                    5e:22:27:fc:01:f2:58:00:d7:68:f3:d3:48:9d:f7:
                    e7:9d:3d:05:4a:09:21:17:df:93:ac:65:93:dd:b3:
                    6d:4f:6b:69:e9:f2:a5:87:a7:f6:37:c4:85:c5:ed:
                    78:6d:c2:fa:2c:30:2f:e5:37:8b:b6:98:b6:19:73:
                    6a:8c:a8:3f:81:c2:8d:a3:5f:d6:42:90:75:6d:b2:
                    02:0c:f2:96:ab:8f:18:c1:58:bf:98:88:b6:92:06:
                    6b:d4:07:45:8f:df:da:f0:77:a6:9e:55:dc:05:14:
                    8a:1a:f0:5e:80:38:06:d3:e3:3e:6d:0b:9b:ef:00:
                    b2:44:ec:50:62:30:d5:af
        X509v3 extensions:
            X509v3 Basic Constraints: 
                CA:FALSE
            X509v3 Subject Key Identifier: 
                A1:C2:EE:A9:AA:1A:59:CF:A3:32:8D:0A:A2:4C:DA:82:F3:5B:AD:6B
            X509v3 Authority Key Identifier: 
                keyid:A2:D9:80:2A:E4:91:8E:0B:85:B7:E4:D5:28:62:4F:C7:C9:8B:E8:D1
                DirName:/C=US/ST=Florida/L=Palm Beach Gardens/O=ZeroC, Inc./OU=Ice/CN=ZeroC Test CA 1/emailAddress=info@zeroc.com
                serial:94:31:70:AC:50:6A:15:99

            X509v3 Subject Alternative Name: 
                DNS:server, IP Address:127.0.0.1
            X509v3 Issuer Alternative Name: 
                email:issuer@zeroc.com, IP Address:127.0.0.1
    Signature Algorithm: sha1WithRSAEncryption
        26:ec:6e:ec:82:e2:6c:2d:20:df:79:c6:9f:db:a1:25:32:53:
        7c:e7:40:d2:cb:7e:e4:27:c2:be:4c:43:6f:b7:fc:b0:8c:bc:
        e0:08:99:d2:7f:62:0c:a9:54:13:87:e6:f3:10:78:0d:a8:f6:
        d7:4a:70:80:49:be:11:73:38:12:ca:e9:2f:b3:af:2d:2f:7b:
        32:3e:45:3d:d6:29:9e:b5:d0:a7:d4:b6:4f:a3:91:d3:40:9e:
        13:8c:fc:83:e4:0a:7d:92:db:b1:fe:2c:de:b2:d8:1e:2f:fc:
        48:fc:e2:e6:50:f1:eb:26:3d:69:f6:d2:f3:a4:ed:6d:17:19:
        12:e7
-----BEGIN CERTIFICATE-----
MIIE2DCCBEGgAwIBAgIBATANBgkqhkiG9w0BAQUFADCBmTELMAkGA1UEBhMCVVMx
EDAOBgNVBAgTB0Zsb3JpZGExGzAZBgNVBAcTElBhbG0gQmVhY2ggR2FyZGVuczEU
MBIGA1UEChMLWmVyb0MsIEluYy4xDDAKBgNVBAsTA0ljZTEYMBYGA1UEAxMPWmVy
b0MgVGVzdCBDQSAxMR0wGwYJKoZIhvcNAQkBFg5pbmZvQHplcm9jLmNvbTAeFw0x
MDAzMTcxNDUwMzRaFw0yMDAzMTQxNDUwMzRaMHMxCzAJBgNVBAYTAlVTMRAwDgYD
VQQIEwdGbG9yaWRhMRQwEgYDVQQKEwtaZXJvQywgSW5jLjEMMAoGA1UECxMDSWNl
MR0wGwYJKoZIhvcNAQkBFg5pbmZvQHplcm9jLmNvbTEPMA0GA1UEAxMGU2VydmVy
MIIBtjCCASsGByqGSM44BAEwggEeAoGBAMKkmY+ulRg+rL4f3aU777ZTI+g2cTz8
XD+sNDwxVSBZOhL+PemltYpMQBd4jTDEZzYhue+ybFm34SNGgVc79a8zpJ4l58Mb
iO4BtrKMC6pBD1aKj9qIw/4PNmAUETdBMdAYtv8mc3mu9cKgu4Mj8QG7olEcb+Bv
fUMIxxm/KeRLAhUA8w0Jb9OJ8A59+ZpiwTwXAX4WdOUCgYBeIif8AfJYANdo89NI
nffnnT0FSgkhF9+TrGWT3bNtT2tp6fKlh6f2N8SFxe14bcL6LDAv5TeLtpi2GXNq
jKg/gcKNo1/WQpB1bbICDPKWq48YwVi/mIi2kgZr1AdFj9/a8HemnlXcBRSKGvBe
gDgG0+M+bQub7wCyROxQYjDVrwOBhAACgYAhwOpywo7B8LqTmMG8UYTqnVTEutLQ
gJBOfFnd5LBPTcQJK+0VRindQ3flJWZJWku+9JmqsjG0lX6tV8EiwEGWE/ivEydV
Xb56HaNOLfqJPRyFVR8cNJFXYW2VsNKd+2VbHfKFqKmeT1vEM4WToZvB+PnivJQG
wMp5R5UA+IaqlKOCATswggE3MAkGA1UdEwQCMAAwHQYDVR0OBBYEFKHC7qmqGlnP
ozKNCqJM2oLzW61rMIHOBgNVHSMEgcYwgcOAFKLZgCrkkY4Lhbfk1ShiT8fJi+jR
oYGfpIGcMIGZMQswCQYDVQQGEwJVUzEQMA4GA1UECBMHRmxvcmlkYTEbMBkGA1UE
BxMSUGFsbSBCZWFjaCBHYXJkZW5zMRQwEgYDVQQKEwtaZXJvQywgSW5jLjEMMAoG
A1UECxMDSWNlMRgwFgYDVQQDEw9aZXJvQyBUZXN0IENBIDExHTAbBgkqhkiG9w0B
CQEWDmluZm9AemVyb2MuY29tggkAlDFwrFBqFZkwFwYDVR0RBBAwDoIGc2VydmVy
hwR/AAABMCEGA1UdEgQaMBiBEGlzc3VlckB6ZXJvYy5jb22HBH8AAAEwDQYJKoZI
hvcNAQEFBQADgYEAJuxu7ILibC0g33nGn9uhJTJTfOdA0st+5CfCvkxDb7f8sIy8
4AiZ0n9iDKlUE4fm8xB4Daj210pwgEm+EXM4EsrpL7OvLS97Mj5FPdYpnrXQp9S2
T6OR00CeE4z8g+QKfZLbsf4s3rLYHi/8SPzi5lDx6yY9afbS86TtbRcZEuc=
-----END CERTIFICATE-----
