Certificate:
    Data:
        Version: 3 (0x2)
        Serial Number: 1 (0x1)
    Signature Algorithm: sha256WithRSAEncryption
        Issuer: C=US, ST=Florida, L=Palm Beach Gardens, O=ZeroC, Inc., OU=Ice, CN=ZeroC Test CA 1/emailAddress=info@zeroc.com
        Validity
            Not Before: Aug 19 14:40:38 2014 GMT
            Not After : Aug 16 14:40:38 2024 GMT
        Subject: C=US, ST=Florida, O=ZeroC, Inc., OU=Ice/emailAddress=info@zeroc.com, CN=Server
        Subject Public Key Info:
            Public Key Algorithm: dsaEncryption
                pub: 
                    00:88:8e:5d:2b:1e:c6:46:18:37:54:c0:7e:85:4c:
                    86:a6:82:2f:58:3d:0c:7e:6a:f7:3a:26:be:33:ca:
                    30:76:ac:04:82:57:b3:7f:73:df:cf:12:5e:1f:0e:
                    14:ae:c1:78:d6:ac:20:d5:52:a7:70:7b:48:18:22:
                    3b:d5:47:eb:a7:22:5c:b0:1a:fb:bf:f0:da:eb:65:
                    53:07:d2:b1:1f:88:5f:6f:03:c5:41:93:9a:64:78:
                    6e:ca:ca:72:5b:2d:e8:41:79:6d:57:3a:58:df:e3:
                    9a:2b:6c:c4:c2:65:88:5c:dc:81:70:80:71:44:5a:
                    5f:de:c1:c7:ff:d2:7e:16:d2
                P:   
                    00:a6:a4:76:fa:34:e5:0e:e4:85:58:89:05:ae:6d:
                    34:b6:92:ee:cd:6e:94:f1:8e:2c:fc:04:f4:4d:ce:
                    40:09:3b:7f:d2:5e:09:96:e7:09:05:c6:41:4a:94:
                    13:92:df:4c:66:ec:bd:19:0e:b3:04:26:e5:cf:79:
                    d2:9d:b4:f4:da:14:32:cc:cd:e5:6e:cb:f8:c7:6f:
                    c0:e9:90:91:9a:0b:ec:82:ea:9b:90:b7:70:50:e7:
                    17:39:81:c0:0e:87:c3:46:f1:44:0a:8c:42:54:52:
                    89:37:36:a1:0e:21:61:e5:31:5c:5b:a3:24:77:70:
                    b2:13:18:ab:3c:5a:71:00:5f
                Q:   
                    00:9d:22:10:85:4e:88:3f:a9:64:d0:10:71:ad:7d:
                    7e:25:3a:38:23:55
                G:   
                    1c:ed:1c:03:2d:ab:02:5f:49:0a:35:b2:71:35:b8:
                    d0:b8:73:de:cb:3a:f5:99:20:61:6d:ae:a8:87:2b:
                    eb:85:f8:a5:6e:e5:c9:b6:31:83:0c:ad:03:0b:15:
                    23:93:90:be:84:8d:8f:ce:1d:30:00:64:36:80:e8:
                    3e:57:ad:ea:fc:d9:10:26:fc:51:c8:d8:7e:96:17:
                    7f:e8:04:24:ff:20:82:5c:b6:f3:90:47:a6:d6:49:
                    a0:96:51:64:62:8b:84:03:f8:2e:7d:0e:d0:60:ee:
                    fa:b6:22:10:07:e0:e0:15:45:82:2f:b3:5d:56:b6:
                    5f:f7:64:52:d4:01:c4:e6
        X509v3 extensions:
            X509v3 Basic Constraints: 
                CA:FALSE
            X509v3 Subject Key Identifier: 
                C0:07:B0:7D:84:82:84:3D:68:A0:50:2E:AD:71:8C:DE:DE:A9:D4:A6
            X509v3 Authority Key Identifier: 
                keyid:13:FA:72:67:FE:34:05:9A:C9:3E:61:D2:91:D6:BA:03:65:1B:8A:9A
                DirName:/C=US/ST=Florida/L=Palm Beach Gardens/O=ZeroC, Inc./OU=Ice/CN=ZeroC Test CA 1/emailAddress=info@zeroc.com
                serial:CE:8A:67:ED:96:6F:7E:B6

            X509v3 Subject Alternative Name: 
                DNS:server, IP Address:127.0.0.1
            X509v3 Issuer Alternative Name: 
                email:issuer@zeroc.com, IP Address:127.0.0.1
    Signature Algorithm: sha256WithRSAEncryption
         ab:20:34:a6:d1:83:b3:d5:f2:62:f1:7e:d7:f5:15:18:00:41:
         2e:94:07:09:cd:65:b5:46:a3:a3:c9:60:cf:d5:f7:d2:dd:47:
         32:51:39:1e:c5:a7:80:a0:38:88:f9:77:21:ac:ae:52:c0:05:
         5b:6f:37:d5:d5:c3:57:0d:b3:c8:44:c3:5f:02:84:0d:7a:cb:
         c8:9a:1c:c6:d6:6f:bc:17:93:e2:65:4a:f9:24:6d:df:a8:04:
         a1:d5:00:4b:5a:b1:31:65:96:18:52:99:8d:40:b2:c6:c6:9a:
         56:13:df:aa:08:c1:df:3a:35:db:8f:79:35:5d:a2:1a:ac:28:
         4a:4f
-----BEGIN CERTIFICATE-----
MIIE2TCCBEKgAwIBAgIBATANBgkqhkiG9w0BAQsFADCBmTELMAkGA1UEBhMCVVMx
EDAOBgNVBAgTB0Zsb3JpZGExGzAZBgNVBAcTElBhbG0gQmVhY2ggR2FyZGVuczEU
MBIGA1UEChMLWmVyb0MsIEluYy4xDDAKBgNVBAsTA0ljZTEYMBYGA1UEAxMPWmVy
b0MgVGVzdCBDQSAxMR0wGwYJKoZIhvcNAQkBFg5pbmZvQHplcm9jLmNvbTAeFw0x
NDA4MTkxNDQwMzhaFw0yNDA4MTYxNDQwMzhaMHMxCzAJBgNVBAYTAlVTMRAwDgYD
VQQIEwdGbG9yaWRhMRQwEgYDVQQKEwtaZXJvQywgSW5jLjEMMAoGA1UECxMDSWNl
MR0wGwYJKoZIhvcNAQkBFg5pbmZvQHplcm9jLmNvbTEPMA0GA1UEAxMGU2VydmVy
MIIBtzCCASsGByqGSM44BAEwggEeAoGBAKakdvo05Q7khViJBa5tNLaS7s1ulPGO
LPwE9E3OQAk7f9JeCZbnCQXGQUqUE5LfTGbsvRkOswQm5c950p209NoUMszN5W7L
+MdvwOmQkZoL7ILqm5C3cFDnFzmBwA6Hw0bxRAqMQlRSiTc2oQ4hYeUxXFujJHdw
shMYqzxacQBfAhUAnSIQhU6IP6lk0BBxrX1+JTo4I1UCgYAc7RwDLasCX0kKNbJx
NbjQuHPeyzr1mSBhba6ohyvrhfilbuXJtjGDDK0DCxUjk5C+hI2Pzh0wAGQ2gOg+
V63q/NkQJvxRyNh+lhd/6AQk/yCCXLbzkEem1kmgllFkYouEA/gufQ7QYO76tiIQ
B+DgFUWCL7NdVrZf92RS1AHE5gOBhQACgYEAiI5dKx7GRhg3VMB+hUyGpoIvWD0M
fmr3Oia+M8owdqwEglezf3PfzxJeHw4UrsF41qwg1VKncHtIGCI71UfrpyJcsBr7
v/Da62VTB9KxH4hfbwPFQZOaZHhuyspyWy3oQXltVzpY3+OaK2zEwmWIXNyBcIBx
RFpf3sHH/9J+FtKjggE7MIIBNzAJBgNVHRMEAjAAMB0GA1UdDgQWBBTAB7B9hIKE
PWigUC6tcYze3qnUpjCBzgYDVR0jBIHGMIHDgBQT+nJn/jQFmsk+YdKR1roDZRuK
mqGBn6SBnDCBmTELMAkGA1UEBhMCVVMxEDAOBgNVBAgTB0Zsb3JpZGExGzAZBgNV
BAcTElBhbG0gQmVhY2ggR2FyZGVuczEUMBIGA1UEChMLWmVyb0MsIEluYy4xDDAK
BgNVBAsTA0ljZTEYMBYGA1UEAxMPWmVyb0MgVGVzdCBDQSAxMR0wGwYJKoZIhvcN
AQkBFg5pbmZvQHplcm9jLmNvbYIJAM6KZ+2Wb362MBcGA1UdEQQQMA6CBnNlcnZl
cocEfwAAATAhBgNVHRIEGjAYgRBpc3N1ZXJAemVyb2MuY29thwR/AAABMA0GCSqG
SIb3DQEBCwUAA4GBAKsgNKbRg7PV8mLxftf1FRgAQS6UBwnNZbVGo6PJYM/V99Ld
RzJROR7Fp4CgOIj5dyGsrlLABVtvN9XVw1cNs8hEw18ChA16y8iaHMbWb7wXk+Jl
Svkkbd+oBKHVAEtasTFllhhSmY1AssbGmlYT36oIwd86NduPeTVdohqsKEpP
-----END CERTIFICATE-----
