Certificate:
    Data:
        Version: 3 (0x2)
        Serial Number: 1 (0x1)
    Signature Algorithm: sha256WithRSAEncryption
        Issuer: C=US, ST=Florida, L=Palm Beach Gardens, O=ZeroC, Inc., OU=Ice, CN=ZeroC Test CA 1/emailAddress=info@zeroc.com
        Validity
            Not Before: Jul 11 17:17:36 2014 GMT
            Not After : Dec 31 00:00:00 2005 GMT
        Subject: C=US, ST=Florida, O=ZeroC, Inc., OU=Ice/emailAddress=info@zeroc.com, CN=Server
        Subject Public Key Info:
            Public Key Algorithm: rsaEncryption
                Public-Key: (1024 bit)
                Modulus:
                    00:a6:48:ff:2d:80:5c:5f:c7:eb:23:e4:86:8c:b3:
                    63:9a:cc:c2:26:71:1f:98:f8:eb:1d:5c:8b:6d:31:
                    96:79:be:0f:46:62:84:64:75:e9:6c:8f:d1:f9:5f:
                    06:e8:e8:54:18:f4:39:a7:01:fe:fd:51:d0:bc:fc:
                    d9:07:09:13:91:73:b5:bb:d8:4c:9b:f3:4f:4b:28:
                    55:fa:1f:32:b7:01:e5:2b:89:fb:2f:e1:f6:8c:3b:
                    cf:93:e7:b2:21:6b:30:75:0e:62:03:c7:24:eb:65:
                    09:11:35:e7:51:7b:01:b0:a1:14:80:f1:1b:32:e3:
                    83:0a:6e:14:79:a0:28:93:91
                Exponent: 65537 (0x10001)
        X509v3 extensions:
            X509v3 Basic Constraints: 
                CA:FALSE
            X509v3 Subject Key Identifier: 
                22:5D:51:5A:6D:84:EA:3C:BD:6C:E2:41:B5:5E:BA:55:38:90:20:22
            X509v3 Authority Key Identifier: 
                keyid:D3:64:A2:78:6C:8C:1F:AD:F2:26:79:F8:1B:05:25:C5:8B:62:A9:F3
                DirName:/C=US/ST=Florida/L=Palm Beach Gardens/O=ZeroC, Inc./OU=Ice/CN=ZeroC Test CA 1/emailAddress=info@zeroc.com
                serial:F9:E6:F8:11:B0:B7:85:00

            X509v3 Subject Alternative Name: 
                DNS:server, IP Address:127.0.0.1
            X509v3 Issuer Alternative Name: 
                email:issuer@zeroc.com, IP Address:127.0.0.1
    Signature Algorithm: sha256WithRSAEncryption
         3c:82:81:4c:bb:bc:a6:07:a6:44:88:4c:d3:9c:d5:e8:cb:58:
         1e:ee:89:c8:86:d3:2a:0a:ee:34:36:fb:76:ad:62:d3:77:e0:
         90:31:0e:03:cf:69:da:15:7f:b6:4f:b2:b6:9e:90:fe:8d:fd:
         a0:68:35:eb:8d:9c:7b:3c:41:38:91:a6:e5:49:4a:02:2a:e8:
         ec:b5:47:3a:e0:aa:e2:a0:b3:8e:00:df:69:20:93:b0:cc:07:
         5f:02:83:ed:c2:62:57:20:63:e9:3c:d7:78:00:bf:05:c1:3f:
         aa:01:7a:c4:7f:ed:2f:57:0f:fd:90:1f:25:04:2c:e3:58:21:
         4f:5d
-----BEGIN CERTIFICATE-----
MIIDwDCCAymgAwIBAgIBATANBgkqhkiG9w0BAQsFADCBmTELMAkGA1UEBhMCVVMx
EDAOBgNVBAgTB0Zsb3JpZGExGzAZBgNVBAcTElBhbG0gQmVhY2ggR2FyZGVuczEU
MBIGA1UEChMLWmVyb0MsIEluYy4xDDAKBgNVBAsTA0ljZTEYMBYGA1UEAxMPWmVy
b0MgVGVzdCBDQSAxMR0wGwYJKoZIhvcNAQkBFg5pbmZvQHplcm9jLmNvbTAeFw0x
NDA3MTExNzE3MzZaFw0wNTEyMzEwMDAwMDBaMHMxCzAJBgNVBAYTAlVTMRAwDgYD
VQQIEwdGbG9yaWRhMRQwEgYDVQQKEwtaZXJvQywgSW5jLjEMMAoGA1UECxMDSWNl
MR0wGwYJKoZIhvcNAQkBFg5pbmZvQHplcm9jLmNvbTEPMA0GA1UEAxMGU2VydmVy
MIGfMA0GCSqGSIb3DQEBAQUAA4GNADCBiQKBgQCmSP8tgFxfx+sj5IaMs2OazMIm
cR+Y+OsdXIttMZZ5vg9GYoRkdelsj9H5Xwbo6FQY9DmnAf79UdC8/NkHCRORc7W7
2Eyb809LKFX6HzK3AeUrifsv4faMO8+T57IhazB1DmIDxyTrZQkRNedRewGwoRSA
8Rsy44MKbhR5oCiTkQIDAQABo4IBOzCCATcwCQYDVR0TBAIwADAdBgNVHQ4EFgQU
Il1RWm2E6jy9bOJBtV66VTiQICIwgc4GA1UdIwSBxjCBw4AU02SieGyMH63yJnn4
GwUlxYtiqfOhgZ+kgZwwgZkxCzAJBgNVBAYTAlVTMRAwDgYDVQQIEwdGbG9yaWRh
MRswGQYDVQQHExJQYWxtIEJlYWNoIEdhcmRlbnMxFDASBgNVBAoTC1plcm9DLCBJ
bmMuMQwwCgYDVQQLEwNJY2UxGDAWBgNVBAMTD1plcm9DIFRlc3QgQ0EgMTEdMBsG
CSqGSIb3DQEJARYOaW5mb0B6ZXJvYy5jb22CCQD55vgRsLeFADAXBgNVHREEEDAO
ggZzZXJ2ZXKHBH8AAAEwIQYDVR0SBBowGIEQaXNzdWVyQHplcm9jLmNvbYcEfwAA
ATANBgkqhkiG9w0BAQsFAAOBgQA8goFMu7ymB6ZEiEzTnNXoy1ge7onIhtMqCu40
Nvt2rWLTd+CQMQ4Dz2naFX+2T7K2npD+jf2gaDXrjZx7PEE4kablSUoCKujstUc6
4KrioLOOAN9pIJOwzAdfAoPtwmJXIGPpPNd4AL8FwT+qAXrEf+0vVw/9kB8lBCzj
WCFPXQ==
-----END CERTIFICATE-----
