Certificate:
    Data:
        Version: 3 (0x2)
        Serial Number: 1 (0x1)
        Signature Algorithm: md5WithRSAEncryption
        Issuer: C=US, ST=Florida, L=Palm Beach Gardens, O=ZeroC, Inc., OU=Ice, CN=ZeroC Test CA/emailAddress=info@zeroc.com
        Validity
            Not Before: Mar 28 18:09:56 2006 GMT
            Not After : Mar 25 18:09:56 2016 GMT
        Subject: C=US, ST=Florida, O=ZeroC, Inc., OU=Ice/emailAddress=info@zeroc.com, CN=Server
        Subject Public Key Info:
            Public Key Algorithm: rsaEncryption
            RSA Public Key: (1024 bit)
                Modulus (1024 bit):
                    00:c6:fe:39:df:e9:b1:c0:9c:d8:41:4c:ae:69:c3:
                    0c:88:26:6d:71:95:34:f2:19:22:23:f2:d4:c9:47:
                    c9:fd:b7:fb:1c:91:7e:b5:01:94:ba:b7:f9:fb:69:
                    6a:aa:dc:e7:5e:a1:ec:7e:5d:92:15:cf:90:35:bd:
                    39:20:1e:6b:ba:71:a7:fb:9f:c0:d4:1f:90:4b:7c:
                    d1:6a:7a:cb:4b:2d:cc:6a:cc:2e:6c:9f:34:a9:ad:
                    2d:aa:40:86:18:19:9a:57:ed:8b:d9:6e:d8:e8:0a:
                    19:9d:12:de:19:67:c8:26:fc:a9:21:01:fe:3d:41:
                    b7:bb:bb:b3:8a:3f:41:61:01
                Exponent: 65537 (0x10001)
        X509v3 extensions:
            X509v3 Basic Constraints: 
            CA:FALSE
            X509v3 Subject Key Identifier: 
            36:E7:80:CD:7C:6C:38:62:1F:28:11:A4:BA:FF:43:4A:9C:FE:D7:38
            X509v3 Authority Key Identifier: 
            keyid:A3:8D:7D:FF:A8:69:1E:7C:54:58:46:61:FE:B7:68:BC:2C:FC:CB:DE
            DirName:/C=US/ST=Florida/L=Palm Beach Gardens/O=ZeroC, Inc./OU=Ice/CN=ZeroC Test CA/emailAddress=info@zeroc.com
            serial:00

            X509v3 Subject Alternative Name: 
            DNS:server, IP Address:127.0.0.1
    Signature Algorithm: md5WithRSAEncryption
        3f:b8:5b:fd:c5:7d:0c:33:b6:c3:36:56:f2:51:22:45:43:c4:
        89:cd:b3:d3:a5:e6:96:7a:cf:66:6d:12:e7:83:b8:61:3b:48:
        24:8c:51:e2:ef:38:45:49:64:70:c6:c4:ef:06:84:76:b8:21:
        8a:04:b7:d9:3b:22:d8:68:e2:06:e6:c1:4a:d9:1e:1c:cb:39:
        58:fa:3f:07:cb:e5:82:c8:5d:97:56:f1:ea:ab:0f:da:64:09:
        7c:75:ea:6e:ed:b3:4b:45:73:4e:b1:75:74:a3:ef:44:77:32:
        e3:e9:cf:1e:ab:69:89:66:ed:14:c5:ae:30:e7:0f:4c:03:58:
        7e:65:ee:67:6e:73:80:81:36:84:74:41:4b:8d:26:65:e2:db:
        9c:29:80:8a:f9:cd:71:76:0d:06:3b:4f:cb:c6:ed:08:19:56:
        26:39:5b:5c:bb:66:a1:75:58:02:1b:3b:cb:bd:6f:5c:56:ec:
        f5:e9:71:bb:cd:fb:f6:bd:8c:8e:db:e3:7e:59:39:37:99:4d:
        b7:1a:64:30:ba:43:08:69:7a:f8:05:15:04:7b:02:00:cc:15:
        d1:c3:78:4e:9a:bd:fb:e2:35:4b:0d:08:8c:4f:ad:52:9e:8f:
        05:ed:12:57:7c:07:5e:26:20:bb:78:0e:d1:c7:3b:c4:fd:4b:
        a1:27:85:82
-----BEGIN CERTIFICATE-----
MIIEEjCCAvqgAwIBAgIBATANBgkqhkiG9w0BAQQFADCBlzELMAkGA1UEBhMCVVMx
EDAOBgNVBAgTB0Zsb3JpZGExGzAZBgNVBAcTElBhbG0gQmVhY2ggR2FyZGVuczEU
MBIGA1UEChMLWmVyb0MsIEluYy4xDDAKBgNVBAsTA0ljZTEWMBQGA1UEAxMNWmVy
b0MgVGVzdCBDQTEdMBsGCSqGSIb3DQEJARYOaW5mb0B6ZXJvYy5jb20wHhcNMDYw
MzI4MTgwOTU2WhcNMTYwMzI1MTgwOTU2WjBzMQswCQYDVQQGEwJVUzEQMA4GA1UE
CBMHRmxvcmlkYTEUMBIGA1UEChMLWmVyb0MsIEluYy4xDDAKBgNVBAsTA0ljZTEd
MBsGCSqGSIb3DQEJARYOaW5mb0B6ZXJvYy5jb20xDzANBgNVBAMTBlNlcnZlcjCB
nzANBgkqhkiG9w0BAQEFAAOBjQAwgYkCgYEAxv453+mxwJzYQUyuacMMiCZtcZU0
8hkiI/LUyUfJ/bf7HJF+tQGUurf5+2lqqtznXqHsfl2SFc+QNb05IB5runGn+5/A
1B+QS3zRanrLSy3MaswubJ80qa0tqkCGGBmaV+2L2W7Y6AoZnRLeGWfIJvypIQH+
PUG3u7uzij9BYQECAwEAAaOCAQ4wggEKMAkGA1UdEwQCMAAwHQYDVR0OBBYEFDbn
gM18bDhiHygRpLr/Q0qc/tc4MIHEBgNVHSMEgbwwgbmAFKONff+oaR58VFhGYf63
aLws/MveoYGdpIGaMIGXMQswCQYDVQQGEwJVUzEQMA4GA1UECBMHRmxvcmlkYTEb
MBkGA1UEBxMSUGFsbSBCZWFjaCBHYXJkZW5zMRQwEgYDVQQKEwtaZXJvQywgSW5j
LjEMMAoGA1UECxMDSWNlMRYwFAYDVQQDEw1aZXJvQyBUZXN0IENBMR0wGwYJKoZI
hvcNAQkBFg5pbmZvQHplcm9jLmNvbYIBADAXBgNVHREEEDAOggZzZXJ2ZXKHBH8A
AAEwDQYJKoZIhvcNAQEEBQADggEBAD+4W/3FfQwztsM2VvJRIkVDxInNs9Ol5pZ6
z2ZtEueDuGE7SCSMUeLvOEVJZHDGxO8GhHa4IYoEt9k7Itho4gbmwUrZHhzLOVj6
PwfL5YLIXZdW8eqrD9pkCXx16m7ts0tFc06xdXSj70R3MuPpzx6raYlm7RTFrjDn
D0wDWH5l7mduc4CBNoR0QUuNJmXi25wpgIr5zXF2DQY7T8vG7QgZViY5W1y7ZqF1
WAIbO8u9b1xW7PXpcbvN+/a9jI7b435ZOTeZTbcaZDC6QwhpevgFFQR7AgDMFdHD
eE6avfviNUsNCIxPrVKejwXtEld8B14mILt4DtHHO8T9S6EnhYI=
-----END CERTIFICATE-----
