Certificate:
    Data:
        Version: 3 (0x2)
        Serial Number: 1 (0x1)
        Signature Algorithm: md5WithRSAEncryption
        Issuer: C=US, ST=Florida, L=Palm Beach Gardens, O=ZeroC, Inc., OU=Ice, CN=ZeroC Test CA 1/emailAddress=info@zeroc.com
        Validity
            Not Before: Sep 23 15:11:15 2009 GMT
            Not After : Dec 31 00:00:00 2005 GMT
        Subject: C=US, ST=Florida, O=ZeroC, Inc., OU=Ice/emailAddress=info@zeroc.com, CN=Server
        Subject Public Key Info:
            Public Key Algorithm: rsaEncryption
            RSA Public Key: (1024 bit)
                Modulus (1024 bit):
                    00:d8:f6:46:db:e5:bd:2f:88:93:31:c1:5a:a1:80:
                    0d:e4:86:ae:df:af:c2:46:3b:08:ec:85:63:e0:8d:
                    ea:5e:9e:0f:99:4f:1a:52:db:f2:45:a3:27:48:3f:
                    d4:19:cc:ba:fa:c5:f0:34:56:b2:b6:8a:e7:eb:84:
                    04:b8:94:a5:28:31:de:72:15:ae:a7:cb:f9:f0:60:
                    70:ba:90:54:56:f7:54:03:27:f7:ab:99:93:5a:13:
                    c9:e0:79:df:e4:d7:d1:5c:b7:43:a2:8e:d5:d5:97:
                    d1:36:61:b6:15:4c:97:c3:d7:da:84:68:ea:2f:ff:
                    41:8b:dc:b1:88:f8:f2:b3:c1
                Exponent: 65537 (0x10001)
        X509v3 extensions:
            X509v3 Basic Constraints: 
                CA:FALSE
            X509v3 Subject Key Identifier: 
                91:26:9B:7D:70:73:F7:E9:E5:44:2B:E6:42:46:11:BF:AD:38:AC:3D
            X509v3 Authority Key Identifier: 
                keyid:28:11:80:FD:88:57:63:47:6B:C0:BA:A6:CE:3A:C7:C4:7F:73:31:25
                DirName:/C=US/ST=Florida/L=Palm Beach Gardens/O=ZeroC, Inc./OU=Ice/CN=ZeroC Test CA 1/emailAddress=info@zeroc.com
                serial:DD:26:15:4D:4C:3F:B6:11

            X509v3 Subject Alternative Name: 
                DNS:server, IP Address:127.0.0.1
            X509v3 Issuer Alternative Name: 
                email:issuer@zeroc.com, IP Address:127.0.0.1
    Signature Algorithm: md5WithRSAEncryption
        56:0a:19:b1:38:1c:44:3d:29:52:3b:d6:2d:f7:d6:ff:59:88:
        7e:13:8b:ad:2b:d9:de:09:16:ef:a5:34:f8:15:d7:a9:17:f0:
        66:52:e6:89:5b:00:1e:38:39:4d:22:44:8b:b0:be:79:d7:56:
        c8:3e:e7:8c:6d:63:7d:90:50:e3:08:da:7d:25:d9:d9:5a:46:
        48:0a:8d:42:d1:3b:b5:12:f3:4c:7d:b7:a3:25:2a:2c:89:a4:
        06:31:f0:ca:21:56:87:c7:a2:c5:f3:9e:65:65:7d:3f:8e:b9:
        4a:b6:e2:27:27:aa:38:82:d1:85:2c:63:6d:1b:64:9d:1b:f4:
        3f:9a
-----BEGIN CERTIFICATE-----
MIIDwDCCAymgAwIBAgIBATANBgkqhkiG9w0BAQQFADCBmTELMAkGA1UEBhMCVVMx
EDAOBgNVBAgTB0Zsb3JpZGExGzAZBgNVBAcTElBhbG0gQmVhY2ggR2FyZGVuczEU
MBIGA1UEChMLWmVyb0MsIEluYy4xDDAKBgNVBAsTA0ljZTEYMBYGA1UEAxMPWmVy
b0MgVGVzdCBDQSAxMR0wGwYJKoZIhvcNAQkBFg5pbmZvQHplcm9jLmNvbTAeFw0w
OTA5MjMxNTExMTVaFw0wNTEyMzEwMDAwMDBaMHMxCzAJBgNVBAYTAlVTMRAwDgYD
VQQIEwdGbG9yaWRhMRQwEgYDVQQKEwtaZXJvQywgSW5jLjEMMAoGA1UECxMDSWNl
MR0wGwYJKoZIhvcNAQkBFg5pbmZvQHplcm9jLmNvbTEPMA0GA1UEAxMGU2VydmVy
MIGfMA0GCSqGSIb3DQEBAQUAA4GNADCBiQKBgQDY9kbb5b0viJMxwVqhgA3khq7f
r8JGOwjshWPgjepeng+ZTxpS2/JFoydIP9QZzLr6xfA0VrK2iufrhAS4lKUoMd5y
Fa6ny/nwYHC6kFRW91QDJ/ermZNaE8nged/k19Fct0OijtXVl9E2YbYVTJfD19qE
aOov/0GL3LGI+PKzwQIDAQABo4IBOzCCATcwCQYDVR0TBAIwADAdBgNVHQ4EFgQU
kSabfXBz9+nlRCvmQkYRv604rD0wgc4GA1UdIwSBxjCBw4AUKBGA/YhXY0drwLqm
zjrHxH9zMSWhgZ+kgZwwgZkxCzAJBgNVBAYTAlVTMRAwDgYDVQQIEwdGbG9yaWRh
MRswGQYDVQQHExJQYWxtIEJlYWNoIEdhcmRlbnMxFDASBgNVBAoTC1plcm9DLCBJ
bmMuMQwwCgYDVQQLEwNJY2UxGDAWBgNVBAMTD1plcm9DIFRlc3QgQ0EgMTEdMBsG
CSqGSIb3DQEJARYOaW5mb0B6ZXJvYy5jb22CCQDdJhVNTD+2ETAXBgNVHREEEDAO
ggZzZXJ2ZXKHBH8AAAEwIQYDVR0SBBowGIEQaXNzdWVyQHplcm9jLmNvbYcEfwAA
ATANBgkqhkiG9w0BAQQFAAOBgQBWChmxOBxEPSlSO9Yt99b/WYh+E4utK9neCRbv
pTT4FdepF/BmUuaJWwAeODlNIkSLsL5511bIPueMbWN9kFDjCNp9JdnZWkZICo1C
0Tu1EvNMfbejJSosiaQGMfDKIVaHx6LF855lZX0/jrlKtuInJ6o4gtGFLGNtG2Sd
G/Q/mg==
-----END CERTIFICATE-----
