Certificate:
    Data:
        Version: 3 (0x2)
        Serial Number: 1 (0x1)
    Signature Algorithm: sha256WithRSAEncryption
        Issuer: C=US, ST=Florida, L=Palm Beach Gardens, O=ZeroC, Inc., OU=Ice, CN=ZeroC Test CA 1/emailAddress=info@zeroc.com
        Validity
            Not Before: Jul 11 17:17:36 2014 GMT
            Not After : Jul  8 17:17:36 2024 GMT
        Subject: C=US, ST=Florida, O=ZeroC, Inc., OU=Ice/emailAddress=info@zeroc.com, CN=127.0.0.1
        Subject Public Key Info:
            Public Key Algorithm: rsaEncryption
                Public-Key: (1024 bit)
                Modulus:
                    00:bb:a5:04:7d:6b:9a:4f:c0:37:a2:87:11:d6:44:
                    99:c1:1b:fa:72:00:bb:91:66:d1:c7:0e:18:e6:3b:
                    6b:05:55:f9:e6:82:2a:4f:62:02:5c:66:0c:12:57:
                    8d:ce:20:b7:3e:f2:c6:da:ee:de:dd:19:42:8d:64:
                    4d:69:4f:49:30:93:84:b8:54:8e:f0:9c:f1:8a:ae:
                    2c:df:fe:4c:e3:d7:5a:f4:7a:f1:af:93:cf:30:38:
                    bb:b1:64:70:39:9c:58:cb:a2:34:1d:6c:c2:3e:15:
                    9f:ad:a9:f2:e9:7e:54:28:ca:42:1b:91:02:b0:17:
                    f8:03:61:c3:17:fc:09:6b:b5
                Exponent: 65537 (0x10001)
        X509v3 extensions:
            X509v3 Basic Constraints: 
                CA:FALSE
            X509v3 Subject Key Identifier: 
                5A:08:77:65:5C:5E:98:9C:FE:5A:79:9A:F2:C5:81:F5:5E:EB:0F:AE
            X509v3 Authority Key Identifier: 
                keyid:D3:64:A2:78:6C:8C:1F:AD:F2:26:79:F8:1B:05:25:C5:8B:62:A9:F3
                DirName:/C=US/ST=Florida/L=Palm Beach Gardens/O=ZeroC, Inc./OU=Ice/CN=ZeroC Test CA 1/emailAddress=info@zeroc.com
                serial:F9:E6:F8:11:B0:B7:85:00

            X509v3 Issuer Alternative Name: 
                email:issuer@zeroc.com, IP Address:127.0.0.1
    Signature Algorithm: sha256WithRSAEncryption
         c8:3b:dc:9f:2d:9f:b7:a1:79:69:cc:f1:7e:af:bf:37:da:37:
         8f:99:39:70:e8:67:8e:a0:da:0d:8a:75:68:7a:01:bb:7c:c7:
         35:67:8d:da:22:53:72:08:cd:cc:be:40:12:a3:d6:61:fa:52:
         fb:a7:48:9f:2f:6e:d2:90:57:7d:c2:8c:cf:f2:45:57:3d:9c:
         ac:6c:57:be:89:91:bb:a6:3b:9f:63:b8:b5:a0:7d:43:e5:5f:
         05:3f:f2:dc:ce:b5:59:79:1a:61:78:48:78:b3:a2:24:a8:b5:
         51:0e:da:39:4d:b3:df:d3:53:3f:62:05:c4:85:3a:22:a4:2f:
         ec:7a
-----BEGIN CERTIFICATE-----
MIIDqjCCAxOgAwIBAgIBATANBgkqhkiG9w0BAQsFADCBmTELMAkGA1UEBhMCVVMx
EDAOBgNVBAgTB0Zsb3JpZGExGzAZBgNVBAcTElBhbG0gQmVhY2ggR2FyZGVuczEU
MBIGA1UEChMLWmVyb0MsIEluYy4xDDAKBgNVBAsTA0ljZTEYMBYGA1UEAxMPWmVy
b0MgVGVzdCBDQSAxMR0wGwYJKoZIhvcNAQkBFg5pbmZvQHplcm9jLmNvbTAeFw0x
NDA3MTExNzE3MzZaFw0yNDA3MDgxNzE3MzZaMHYxCzAJBgNVBAYTAlVTMRAwDgYD
VQQIEwdGbG9yaWRhMRQwEgYDVQQKEwtaZXJvQywgSW5jLjEMMAoGA1UECxMDSWNl
MR0wGwYJKoZIhvcNAQkBFg5pbmZvQHplcm9jLmNvbTESMBAGA1UEAxMJMTI3LjAu
MC4xMIGfMA0GCSqGSIb3DQEBAQUAA4GNADCBiQKBgQC7pQR9a5pPwDeihxHWRJnB
G/pyALuRZtHHDhjmO2sFVfnmgipPYgJcZgwSV43OILc+8sba7t7dGUKNZE1pT0kw
k4S4VI7wnPGKrizf/kzj11r0evGvk88wOLuxZHA5nFjLojQdbMI+FZ+tqfLpflQo
ykIbkQKwF/gDYcMX/AlrtQIDAQABo4IBIjCCAR4wCQYDVR0TBAIwADAdBgNVHQ4E
FgQUWgh3ZVxemJz+Wnma8sWB9V7rD64wgc4GA1UdIwSBxjCBw4AU02SieGyMH63y
Jnn4GwUlxYtiqfOhgZ+kgZwwgZkxCzAJBgNVBAYTAlVTMRAwDgYDVQQIEwdGbG9y
aWRhMRswGQYDVQQHExJQYWxtIEJlYWNoIEdhcmRlbnMxFDASBgNVBAoTC1plcm9D
LCBJbmMuMQwwCgYDVQQLEwNJY2UxGDAWBgNVBAMTD1plcm9DIFRlc3QgQ0EgMTEd
MBsGCSqGSIb3DQEJARYOaW5mb0B6ZXJvYy5jb22CCQD55vgRsLeFADAhBgNVHRIE
GjAYgRBpc3N1ZXJAemVyb2MuY29thwR/AAABMA0GCSqGSIb3DQEBCwUAA4GBAMg7
3J8tn7eheWnM8X6vvzfaN4+ZOXDoZ46g2g2KdWh6Abt8xzVnjdoiU3IIzcy+QBKj
1mH6UvunSJ8vbtKQV33CjM/yRVc9nKxsV76JkbumO59juLWgfUPlXwU/8tzOtVl5
GmF4SHizoiSotVEO2jlNs9/TUz9iBcSFOiKkL+x6
-----END CERTIFICATE-----
