Certificate:
    Data:
        Version: 3 (0x2)
        Serial Number: 1 (0x1)
        Signature Algorithm: sha1WithRSAEncryption
        Issuer: C=US, ST=Florida, L=Palm Beach Gardens, O=ZeroC, Inc., OU=Ice, CN=ZeroC Test CA 1/emailAddress=info@zeroc.com
        Validity
            Not Before: Mar 17 14:50:33 2010 GMT
            Not After : Dec 31 00:00:00 2005 GMT
        Subject: C=US, ST=Florida, O=ZeroC, Inc., OU=Ice/emailAddress=info@zeroc.com, CN=Server
        Subject Public Key Info:
            Public Key Algorithm: rsaEncryption
                Public-Key: (1024 bit)
                Modulus:
                    00:e9:7d:a5:c7:16:20:b3:a1:e4:0d:09:4b:05:75:
                    df:93:27:d9:80:69:2b:0c:92:0b:d3:78:3f:c0:73:
                    8b:be:1e:0f:26:f3:2f:37:b7:2e:59:35:b8:e0:56:
                    0a:aa:bb:7e:2a:76:88:ee:d9:5c:4a:82:6c:03:4a:
                    2f:db:d3:08:82:3b:b7:b4:4c:45:a8:29:c7:df:a4:
                    de:c3:68:1c:73:d7:7c:68:42:c8:b1:04:6d:37:bb:
                    f8:05:6b:e1:15:e7:ab:41:e5:4d:f0:73:d3:65:50:
                    16:89:d8:4b:01:a8:cb:0d:34:90:7d:69:0d:94:88:
                    b2:60:84:44:b3:0f:a0:17:91
                Exponent: 65537 (0x10001)
        X509v3 extensions:
            X509v3 Basic Constraints: 
                CA:FALSE
            X509v3 Subject Key Identifier: 
                62:27:02:DD:C0:04:A6:A9:17:DB:2C:3C:0C:B4:08:E4:1E:73:B6:2C
            X509v3 Authority Key Identifier: 
                keyid:A2:D9:80:2A:E4:91:8E:0B:85:B7:E4:D5:28:62:4F:C7:C9:8B:E8:D1
                DirName:/C=US/ST=Florida/L=Palm Beach Gardens/O=ZeroC, Inc./OU=Ice/CN=ZeroC Test CA 1/emailAddress=info@zeroc.com
                serial:94:31:70:AC:50:6A:15:99

            X509v3 Subject Alternative Name: 
                DNS:server, IP Address:127.0.0.1
            X509v3 Issuer Alternative Name: 
                email:issuer@zeroc.com, IP Address:127.0.0.1
    Signature Algorithm: sha1WithRSAEncryption
        5c:1c:01:bc:06:ee:e9:b8:12:dd:66:11:f3:15:17:4b:68:49:
        ff:5a:ec:f0:9b:e3:e8:64:1f:08:5a:10:72:b4:74:49:52:81:
        78:81:66:ee:2c:e7:a0:5c:77:e9:39:4f:a1:c7:3a:37:98:c4:
        dd:a2:87:c6:e5:a7:19:f6:a7:32:94:03:60:24:2f:f0:32:c2:
        9a:3c:e8:20:f0:1e:40:06:e2:df:74:b3:89:f2:a5:70:06:52:
        16:3d:9f:cd:83:5b:a2:c2:d7:ec:b6:64:79:38:45:34:a6:8b:
        97:90:00:cb:3b:d5:82:fc:54:ed:bc:4b:dd:7c:d9:05:fa:3c:
        77:19
-----BEGIN CERTIFICATE-----
MIIDwDCCAymgAwIBAgIBATANBgkqhkiG9w0BAQUFADCBmTELMAkGA1UEBhMCVVMx
EDAOBgNVBAgTB0Zsb3JpZGExGzAZBgNVBAcTElBhbG0gQmVhY2ggR2FyZGVuczEU
MBIGA1UEChMLWmVyb0MsIEluYy4xDDAKBgNVBAsTA0ljZTEYMBYGA1UEAxMPWmVy
b0MgVGVzdCBDQSAxMR0wGwYJKoZIhvcNAQkBFg5pbmZvQHplcm9jLmNvbTAeFw0x
MDAzMTcxNDUwMzNaFw0wNTEyMzEwMDAwMDBaMHMxCzAJBgNVBAYTAlVTMRAwDgYD
VQQIEwdGbG9yaWRhMRQwEgYDVQQKEwtaZXJvQywgSW5jLjEMMAoGA1UECxMDSWNl
MR0wGwYJKoZIhvcNAQkBFg5pbmZvQHplcm9jLmNvbTEPMA0GA1UEAxMGU2VydmVy
MIGfMA0GCSqGSIb3DQEBAQUAA4GNADCBiQKBgQDpfaXHFiCzoeQNCUsFdd+TJ9mA
aSsMkgvTeD/Ac4u+Hg8m8y83ty5ZNbjgVgqqu34qdoju2VxKgmwDSi/b0wiCO7e0
TEWoKcffpN7DaBxz13xoQsixBG03u/gFa+EV56tB5U3wc9NlUBaJ2EsBqMsNNJB9
aQ2UiLJghESzD6AXkQIDAQABo4IBOzCCATcwCQYDVR0TBAIwADAdBgNVHQ4EFgQU
YicC3cAEpqkX2yw8DLQI5B5ztiwwgc4GA1UdIwSBxjCBw4AUotmAKuSRjguFt+TV
KGJPx8mL6NGhgZ+kgZwwgZkxCzAJBgNVBAYTAlVTMRAwDgYDVQQIEwdGbG9yaWRh
MRswGQYDVQQHExJQYWxtIEJlYWNoIEdhcmRlbnMxFDASBgNVBAoTC1plcm9DLCBJ
bmMuMQwwCgYDVQQLEwNJY2UxGDAWBgNVBAMTD1plcm9DIFRlc3QgQ0EgMTEdMBsG
CSqGSIb3DQEJARYOaW5mb0B6ZXJvYy5jb22CCQCUMXCsUGoVmTAXBgNVHREEEDAO
ggZzZXJ2ZXKHBH8AAAEwIQYDVR0SBBowGIEQaXNzdWVyQHplcm9jLmNvbYcEfwAA
ATANBgkqhkiG9w0BAQUFAAOBgQBcHAG8Bu7puBLdZhHzFRdLaEn/Wuzwm+PoZB8I
WhBytHRJUoF4gWbuLOegXHfpOU+hxzo3mMTdoofG5acZ9qcylANgJC/wMsKaPOgg
8B5ABuLfdLOJ8qVwBlIWPZ/Ng1uiwtfstmR5OEU0pouXkADLO9WC/FTtvEvdfNkF
+jx3GQ==
-----END CERTIFICATE-----
