Certificate:
    Data:
        Version: 3 (0x2)
        Serial Number: 1 (0x1)
    Signature Algorithm: sha256WithRSAEncryption
        Issuer: C=US, ST=Florida, L=Palm Beach Gardens, O=ZeroC, Inc., OU=Ice, CN=ZeroC Test CA 1/emailAddress=info@zeroc.com
        Validity
            Not Before: Aug 19 14:40:37 2014 GMT
            Not After : Aug 16 14:40:37 2024 GMT
        Subject: C=US, ST=Florida, O=ZeroC, Inc., OU=Ice/emailAddress=info@zeroc.com, CN=Server
        Subject Public Key Info:
            Public Key Algorithm: rsaEncryption
                Public-Key: (1024 bit)
                Modulus:
                    00:bd:a1:7e:6d:f9:66:8d:53:3d:30:ed:fa:41:ab:
                    9d:c7:1e:cf:7e:43:f9:55:65:ef:00:18:11:a0:24:
                    56:bb:94:fa:dd:14:a0:15:fc:1a:3b:eb:d0:15:61:
                    4a:06:22:4a:94:8f:9a:c8:fc:00:ba:1f:0b:02:53:
                    47:e8:f6:ee:af:9e:ca:e1:01:91:a8:3a:4c:bd:98:
                    7a:5d:ed:28:97:5a:2e:6a:35:76:8d:e5:25:18:d8:
                    ae:6c:7d:db:0b:7d:a0:a2:00:77:a2:db:5a:aa:4a:
                    c2:0e:d6:f9:53:31:35:52:29:04:87:57:5d:a1:61:
                    9e:97:82:44:44:54:16:c2:8d
                Exponent: 65537 (0x10001)
        X509v3 extensions:
            X509v3 Basic Constraints: 
                CA:FALSE
            X509v3 Subject Key Identifier: 
                4C:C3:97:A4:CC:F1:05:7B:39:EF:3A:C6:9B:A6:F8:69:0D:53:F7:6E
            X509v3 Authority Key Identifier: 
                keyid:13:FA:72:67:FE:34:05:9A:C9:3E:61:D2:91:D6:BA:03:65:1B:8A:9A
                DirName:/C=US/ST=Florida/L=Palm Beach Gardens/O=ZeroC, Inc./OU=Ice/CN=ZeroC Test CA 1/emailAddress=info@zeroc.com
                serial:CE:8A:67:ED:96:6F:7E:B6

            X509v3 Subject Alternative Name: 
                DNS:server, IP Address:127.0.0.1
            X509v3 Issuer Alternative Name: 
                email:issuer@zeroc.com, IP Address:127.0.0.1
    Signature Algorithm: sha256WithRSAEncryption
         0e:b0:a2:d2:00:ac:ab:2d:60:cd:c6:15:29:00:48:ba:13:04:
         34:c6:07:0d:d9:2c:36:4d:ab:c1:6a:ca:ba:fc:c6:d4:4f:4d:
         91:28:dc:d7:48:d3:a4:13:62:04:8a:ac:2b:44:86:64:22:9f:
         38:e1:f7:d6:9c:16:94:4b:80:26:54:f5:1f:46:32:41:97:ed:
         55:2a:35:ca:f2:f1:be:0c:a7:85:57:ca:7d:c9:27:a7:84:ef:
         e8:67:62:5d:98:cf:35:bf:ed:f8:34:4b:15:83:b7:9a:c2:bd:
         97:96:96:88:b5:cb:20:a5:6c:3f:2a:b4:66:f7:11:bb:d0:08:
         8a:8b
-----BEGIN CERTIFICATE-----
MIIDwDCCAymgAwIBAgIBATANBgkqhkiG9w0BAQsFADCBmTELMAkGA1UEBhMCVVMx
EDAOBgNVBAgTB0Zsb3JpZGExGzAZBgNVBAcTElBhbG0gQmVhY2ggR2FyZGVuczEU
MBIGA1UEChMLWmVyb0MsIEluYy4xDDAKBgNVBAsTA0ljZTEYMBYGA1UEAxMPWmVy
b0MgVGVzdCBDQSAxMR0wGwYJKoZIhvcNAQkBFg5pbmZvQHplcm9jLmNvbTAeFw0x
NDA4MTkxNDQwMzdaFw0yNDA4MTYxNDQwMzdaMHMxCzAJBgNVBAYTAlVTMRAwDgYD
VQQIEwdGbG9yaWRhMRQwEgYDVQQKEwtaZXJvQywgSW5jLjEMMAoGA1UECxMDSWNl
MR0wGwYJKoZIhvcNAQkBFg5pbmZvQHplcm9jLmNvbTEPMA0GA1UEAxMGU2VydmVy
MIGfMA0GCSqGSIb3DQEBAQUAA4GNADCBiQKBgQC9oX5t+WaNUz0w7fpBq53HHs9+
Q/lVZe8AGBGgJFa7lPrdFKAV/Bo769AVYUoGIkqUj5rI/AC6HwsCU0fo9u6vnsrh
AZGoOky9mHpd7SiXWi5qNXaN5SUY2K5sfdsLfaCiAHei21qqSsIO1vlTMTVSKQSH
V12hYZ6XgkREVBbCjQIDAQABo4IBOzCCATcwCQYDVR0TBAIwADAdBgNVHQ4EFgQU
TMOXpMzxBXs57zrGm6b4aQ1T924wgc4GA1UdIwSBxjCBw4AUE/pyZ/40BZrJPmHS
kda6A2UbipqhgZ+kgZwwgZkxCzAJBgNVBAYTAlVTMRAwDgYDVQQIEwdGbG9yaWRh
MRswGQYDVQQHExJQYWxtIEJlYWNoIEdhcmRlbnMxFDASBgNVBAoTC1plcm9DLCBJ
bmMuMQwwCgYDVQQLEwNJY2UxGDAWBgNVBAMTD1plcm9DIFRlc3QgQ0EgMTEdMBsG
CSqGSIb3DQEJARYOaW5mb0B6ZXJvYy5jb22CCQDOimftlm9+tjAXBgNVHREEEDAO
ggZzZXJ2ZXKHBH8AAAEwIQYDVR0SBBowGIEQaXNzdWVyQHplcm9jLmNvbYcEfwAA
ATANBgkqhkiG9w0BAQsFAAOBgQAOsKLSAKyrLWDNxhUpAEi6EwQ0xgcN2Sw2TavB
asq6/MbUT02RKNzXSNOkE2IEiqwrRIZkIp844ffWnBaUS4AmVPUfRjJBl+1VKjXK
8vG+DKeFV8p9ySenhO/oZ2JdmM81v+34NEsVg7eawr2XlpaItcsgpWw/KrRm9xG7
0AiKiw==
-----END CERTIFICATE-----
