Certificate:
    Data:
        Version: 3 (0x2)
        Serial Number: 1 (0x1)
        Signature Algorithm: md5WithRSAEncryption
        Issuer: C=US, ST=Florida, L=Palm Beach Gardens, O=ZeroC, Inc., OU=Ice, CN=ZeroC Test CA/emailAddress=info@zeroc.com
        Validity
            Not Before: Mar 28 18:09:57 2006 GMT
            Not After : Mar 25 18:09:57 2016 GMT
        Subject: C=US, ST=Florida, O=ZeroC, Inc., OU=Ice/emailAddress=info@zeroc.com, CN=Server
        Subject Public Key Info:
            Public Key Algorithm: rsaEncryption
            RSA Public Key: (1024 bit)
                Modulus (1024 bit):
                    00:d5:17:06:db:44:21:b9:f3:9d:c9:e1:cd:f0:9a:
                    08:37:e8:60:bc:b7:6e:aa:fa:fe:3b:a7:5c:8c:89:
                    ce:f3:d3:aa:fd:cf:06:e9:e5:33:c2:70:be:e3:8c:
                    d1:71:08:15:06:8b:70:93:25:b3:70:2d:ec:60:1f:
                    d7:ea:67:9d:af:0a:60:aa:c2:eb:c3:db:40:ea:a2:
                    85:e6:d5:9d:74:b2:80:f0:c4:0d:10:94:ae:41:cb:
                    ee:0e:a9:29:15:d9:8c:95:27:41:3a:13:48:23:c8:
                    6d:28:ec:84:75:7c:01:f8:80:e2:a4:18:42:48:b5:
                    68:86:d6:af:9b:d2:a8:8c:75
                Exponent: 65537 (0x10001)
        X509v3 extensions:
            X509v3 Basic Constraints: 
            CA:FALSE
            X509v3 Subject Key Identifier: 
            EC:AA:CA:77:2D:3E:F0:4B:21:BD:A3:BC:41:E4:57:B0:38:BE:58:0E
            X509v3 Authority Key Identifier: 
            keyid:BD:5A:BA:8A:D2:B9:96:DC:91:5C:64:9F:99:94:E2:48:44:2C:A9:DA
            DirName:/C=US/ST=Florida/L=Palm Beach Gardens/O=ZeroC, Inc./OU=Ice/CN=ZeroC Test CA/emailAddress=info@zeroc.com
            serial:00

            X509v3 Subject Alternative Name: 
            DNS:server, IP Address:127.0.0.1
    Signature Algorithm: md5WithRSAEncryption
        77:d1:04:70:ab:2d:6e:47:c6:a0:12:8d:46:5b:a0:1c:ed:c7:
        81:35:bf:6a:22:21:52:bc:02:18:b9:6e:d2:e4:e9:30:5e:65:
        ec:2a:8e:cd:d1:29:87:c0:a1:48:be:94:f1:3d:b3:34:0b:e1:
        d7:bc:ef:96:2a:c0:8b:77:30:77:63:ab:d8:28:15:07:53:ef:
        c8:11:af:cd:0b:33:49:6c:b2:1f:18:1b:ab:e5:32:5f:ca:8f:
        6f:9d:f6:af:0c:aa:2d:0e:e2:bf:12:4b:37:84:0c:f7:21:a8:
        6d:4f:44:d4:5a:c5:60:1b:e4:87:d3:7d:bf:b9:85:fb:37:68:
        48:dd:cb:84:e5:2b:c0:99:83:c9:ae:9c:f5:32:50:0c:b3:28:
        50:fe:6a:72:f6:f6:80:6c:76:96:a4:db:c7:63:78:7e:fe:d6:
        1e:33:10:1a:bd:19:dc:8a:f0:27:e5:64:81:ea:8c:f4:db:73:
        f7:4b:e9:f1:99:ee:c4:b1:0c:1c:b9:37:52:f8:66:ef:a1:91:
        fc:96:65:c7:75:65:15:83:96:c3:12:1d:46:bd:c1:02:f1:8f:
        de:37:12:fc:73:7a:3a:a3:70:4d:6f:40:3c:30:82:f0:f0:07:
        3a:1b:a9:67:24:43:a9:74:f9:36:ec:5d:da:8c:f3:fe:29:51:
        39:3a:e5:f7
-----BEGIN CERTIFICATE-----
MIIEEjCCAvqgAwIBAgIBATANBgkqhkiG9w0BAQQFADCBlzELMAkGA1UEBhMCVVMx
EDAOBgNVBAgTB0Zsb3JpZGExGzAZBgNVBAcTElBhbG0gQmVhY2ggR2FyZGVuczEU
MBIGA1UEChMLWmVyb0MsIEluYy4xDDAKBgNVBAsTA0ljZTEWMBQGA1UEAxMNWmVy
b0MgVGVzdCBDQTEdMBsGCSqGSIb3DQEJARYOaW5mb0B6ZXJvYy5jb20wHhcNMDYw
MzI4MTgwOTU3WhcNMTYwMzI1MTgwOTU3WjBzMQswCQYDVQQGEwJVUzEQMA4GA1UE
CBMHRmxvcmlkYTEUMBIGA1UEChMLWmVyb0MsIEluYy4xDDAKBgNVBAsTA0ljZTEd
MBsGCSqGSIb3DQEJARYOaW5mb0B6ZXJvYy5jb20xDzANBgNVBAMTBlNlcnZlcjCB
nzANBgkqhkiG9w0BAQEFAAOBjQAwgYkCgYEA1RcG20QhufOdyeHN8JoIN+hgvLdu
qvr+O6dcjInO89Oq/c8G6eUzwnC+44zRcQgVBotwkyWzcC3sYB/X6medrwpgqsLr
w9tA6qKF5tWddLKA8MQNEJSuQcvuDqkpFdmMlSdBOhNII8htKOyEdXwB+IDipBhC
SLVohtavm9KojHUCAwEAAaOCAQ4wggEKMAkGA1UdEwQCMAAwHQYDVR0OBBYEFOyq
ynctPvBLIb2jvEHkV7A4vlgOMIHEBgNVHSMEgbwwgbmAFL1auorSuZbckVxkn5mU
4khELKnaoYGdpIGaMIGXMQswCQYDVQQGEwJVUzEQMA4GA1UECBMHRmxvcmlkYTEb
MBkGA1UEBxMSUGFsbSBCZWFjaCBHYXJkZW5zMRQwEgYDVQQKEwtaZXJvQywgSW5j
LjEMMAoGA1UECxMDSWNlMRYwFAYDVQQDEw1aZXJvQyBUZXN0IENBMR0wGwYJKoZI
hvcNAQkBFg5pbmZvQHplcm9jLmNvbYIBADAXBgNVHREEEDAOggZzZXJ2ZXKHBH8A
AAEwDQYJKoZIhvcNAQEEBQADggEBAHfRBHCrLW5HxqASjUZboBztx4E1v2oiIVK8
Ahi5btLk6TBeZewqjs3RKYfAoUi+lPE9szQL4de875YqwIt3MHdjq9goFQdT78gR
r80LM0lssh8YG6vlMl/Kj2+d9q8Mqi0O4r8SSzeEDPchqG1PRNRaxWAb5IfTfb+5
hfs3aEjdy4TlK8CZg8munPUyUAyzKFD+anL29oBsdpak28djeH7+1h4zEBq9GdyK
8CflZIHqjPTbc/dL6fGZ7sSxDBy5N1L4Zu+hkfyWZcd1ZRWDlsMSHUa9wQLxj943
EvxzejqjcE1vQDwwgvDwBzobqWckQ6l0+TbsXdqM8/4pUTk65fc=
-----END CERTIFICATE-----
