Certificate:
    Data:
        Version: 3 (0x2)
        Serial Number: 1 (0x1)
    Signature Algorithm: sha256WithRSAEncryption
        Issuer: C=US, ST=Florida, L=Palm Beach Gardens, O=ZeroC, Inc., OU=Ice, CN=ZeroC Test CA 1/emailAddress=info@zeroc.com
        Validity
            Not Before: Jul 11 17:17:35 2014 GMT
            Not After : Jul  8 17:17:35 2024 GMT
        Subject: C=US, ST=Florida, O=ZeroC, Inc., OU=Ice/emailAddress=info@zeroc.com, CN=Server
        Subject Public Key Info:
            Public Key Algorithm: rsaEncryption
                Public-Key: (1024 bit)
                Modulus:
                    00:bd:85:92:f3:47:e4:a6:ce:b2:95:68:94:6b:69:
                    23:c2:63:5e:89:a4:96:f3:3a:15:f1:2d:18:32:ca:
                    f2:d0:8a:91:c5:58:fa:12:a3:c1:a5:72:fa:07:70:
                    da:a2:f5:6b:d8:fc:e1:e9:52:5a:1e:29:14:81:4d:
                    71:a4:b4:ef:d6:e0:dc:99:a5:5a:d1:c6:a4:39:41:
                    5f:c6:a8:e0:ed:16:83:fa:24:1c:55:36:6a:98:46:
                    0e:50:7a:14:7a:78:07:e5:03:3e:29:92:38:8a:33:
                    dc:da:92:28:83:47:62:a0:4a:a1:1e:e7:fa:bc:3b:
                    97:83:cb:9e:0d:e0:fb:d9:89
                Exponent: 65537 (0x10001)
        X509v3 extensions:
            X509v3 Basic Constraints: 
                CA:FALSE
            X509v3 Subject Key Identifier: 
                19:93:2B:8B:02:99:F7:CC:34:C4:2F:17:E5:23:EC:F1:74:ED:DB:1C
            X509v3 Authority Key Identifier: 
                keyid:D3:64:A2:78:6C:8C:1F:AD:F2:26:79:F8:1B:05:25:C5:8B:62:A9:F3
                DirName:/C=US/ST=Florida/L=Palm Beach Gardens/O=ZeroC, Inc./OU=Ice/CN=ZeroC Test CA 1/emailAddress=info@zeroc.com
                serial:F9:E6:F8:11:B0:B7:85:00

            X509v3 Subject Alternative Name: 
                DNS:server, IP Address:127.0.0.1
            X509v3 Issuer Alternative Name: 
                email:issuer@zeroc.com, IP Address:127.0.0.1
    Signature Algorithm: sha256WithRSAEncryption
         16:2c:ea:17:ad:ed:89:74:86:d4:90:cf:9b:66:37:25:7a:52:
         be:c0:40:e9:bc:33:84:ec:a4:b4:da:21:b3:68:93:8c:be:ed:
         c8:8b:c7:6c:fd:0b:89:6f:04:e2:53:c9:fa:4e:9b:11:28:f1:
         ea:e8:df:b5:f6:33:f2:d5:7f:3c:84:f6:49:db:cd:3e:b5:ea:
         44:f5:4c:ed:16:6d:21:93:f8:88:22:3e:19:04:25:11:ac:44:
         34:3a:08:18:93:f4:e9:73:a1:fd:90:00:96:7b:db:4a:e8:06:
         16:d1:68:fc:27:da:86:2a:a5:e3:6e:06:7e:f5:29:e7:64:4a:
         9c:87
-----BEGIN CERTIFICATE-----
MIIDwDCCAymgAwIBAgIBATANBgkqhkiG9w0BAQsFADCBmTELMAkGA1UEBhMCVVMx
EDAOBgNVBAgTB0Zsb3JpZGExGzAZBgNVBAcTElBhbG0gQmVhY2ggR2FyZGVuczEU
MBIGA1UEChMLWmVyb0MsIEluYy4xDDAKBgNVBAsTA0ljZTEYMBYGA1UEAxMPWmVy
b0MgVGVzdCBDQSAxMR0wGwYJKoZIhvcNAQkBFg5pbmZvQHplcm9jLmNvbTAeFw0x
NDA3MTExNzE3MzVaFw0yNDA3MDgxNzE3MzVaMHMxCzAJBgNVBAYTAlVTMRAwDgYD
VQQIEwdGbG9yaWRhMRQwEgYDVQQKEwtaZXJvQywgSW5jLjEMMAoGA1UECxMDSWNl
MR0wGwYJKoZIhvcNAQkBFg5pbmZvQHplcm9jLmNvbTEPMA0GA1UEAxMGU2VydmVy
MIGfMA0GCSqGSIb3DQEBAQUAA4GNADCBiQKBgQC9hZLzR+SmzrKVaJRraSPCY16J
pJbzOhXxLRgyyvLQipHFWPoSo8GlcvoHcNqi9WvY/OHpUloeKRSBTXGktO/W4NyZ
pVrRxqQ5QV/GqODtFoP6JBxVNmqYRg5QehR6eAflAz4pkjiKM9zakiiDR2KgSqEe
5/q8O5eDy54N4PvZiQIDAQABo4IBOzCCATcwCQYDVR0TBAIwADAdBgNVHQ4EFgQU
GZMriwKZ98w0xC8X5SPs8XTt2xwwgc4GA1UdIwSBxjCBw4AU02SieGyMH63yJnn4
GwUlxYtiqfOhgZ+kgZwwgZkxCzAJBgNVBAYTAlVTMRAwDgYDVQQIEwdGbG9yaWRh
MRswGQYDVQQHExJQYWxtIEJlYWNoIEdhcmRlbnMxFDASBgNVBAoTC1plcm9DLCBJ
bmMuMQwwCgYDVQQLEwNJY2UxGDAWBgNVBAMTD1plcm9DIFRlc3QgQ0EgMTEdMBsG
CSqGSIb3DQEJARYOaW5mb0B6ZXJvYy5jb22CCQD55vgRsLeFADAXBgNVHREEEDAO
ggZzZXJ2ZXKHBH8AAAEwIQYDVR0SBBowGIEQaXNzdWVyQHplcm9jLmNvbYcEfwAA
ATANBgkqhkiG9w0BAQsFAAOBgQAWLOoXre2JdIbUkM+bZjclelK+wEDpvDOE7KS0
2iGzaJOMvu3Ii8ds/QuJbwTiU8n6TpsRKPHq6N+19jPy1X88hPZJ280+tepE9Uzt
Fm0hk/iIIj4ZBCURrEQ0OggYk/Tpc6H9kACWe9tK6AYW0Wj8J9qGKqXjbgZ+9Snn
ZEqchw==
-----END CERTIFICATE-----
