Certificate:
    Data:
        Version: 3 (0x2)
        Serial Number: 1 (0x1)
        Signature Algorithm: md5WithRSAEncryption
        Issuer: C=US, ST=Florida, L=Palm Beach Gardens, O=ZeroC, Inc., OU=Ice, CN=ZeroC Test CA 2/emailAddress=info@zeroc.com
        Validity
            Not Before: Mar 31 16:55:17 2006 GMT
            Not After : Mar 28 16:55:17 2016 GMT
        Subject: C=US, ST=Florida, O=ZeroC, Inc., OU=Ice/emailAddress=info@zeroc.com, CN=Server
        Subject Public Key Info:
            Public Key Algorithm: rsaEncryption
            RSA Public Key: (1024 bit)
                Modulus (1024 bit):
                    00:b6:aa:53:e3:35:75:b5:ea:98:b0:ad:12:0b:b7:
                    0f:59:32:10:3e:ed:8e:03:d7:16:57:a3:31:64:c3:
                    d1:c4:7b:6e:29:a4:ec:98:7b:12:e6:13:23:83:f6:
                    49:f5:da:47:a7:c5:38:94:9c:c6:8c:9e:ac:a8:9e:
                    b6:3c:9c:5e:86:a7:7e:b0:d5:b8:fc:50:78:dc:3f:
                    36:c7:58:33:bf:44:ab:9d:4e:52:cd:45:b9:ad:cf:
                    ca:93:d5:7b:35:c2:19:7a:07:86:b1:99:43:30:5c:
                    c9:de:d1:16:d8:09:57:9d:d9:e6:30:94:66:62:75:
                    0f:ab:9a:4d:56:1f:bd:12:ed
                Exponent: 65537 (0x10001)
        X509v3 extensions:
            X509v3 Basic Constraints: 
            CA:FALSE
            X509v3 Subject Key Identifier: 
            DB:6C:21:98:D2:B3:62:96:05:48:E7:19:F2:AF:B4:1F:2C:D8:C2:C1
            X509v3 Authority Key Identifier: 
            keyid:2E:3F:04:71:7E:A2:FA:BF:C9:24:06:9C:92:43:83:64:70:8D:6C:13
            DirName:/C=US/ST=Florida/L=Palm Beach Gardens/O=ZeroC, Inc./OU=Ice/CN=ZeroC Test CA 2/emailAddress=info@zeroc.com
            serial:00

            X509v3 Subject Alternative Name: 
            DNS:server, IP Address:127.0.0.1
    Signature Algorithm: md5WithRSAEncryption
        25:e5:d5:e4:ca:08:b6:5e:b8:f0:5c:aa:f9:a7:bc:6d:30:54:
        4f:05:a3:3e:ee:64:66:6a:38:d1:16:45:c0:32:3b:c8:17:c2:
        d3:fd:fd:fb:cb:9a:11:41:62:48:c1:09:8a:94:d9:d7:e6:b4:
        36:6f:11:32:5a:c6:e1:be:3f:9f:a9:9b:5e:e3:34:c3:bb:24:
        15:4b:d8:9a:96:36:e0:bd:15:5e:42:73:a7:02:06:7b:27:03:
        60:d5:6d:7c:32:bb:c9:71:65:46:b1:a8:28:41:83:96:1d:0b:
        57:7b:43:b7:8b:34:5c:aa:bd:7a:c0:88:9e:3f:7b:9e:fb:b2:
        5d:ee:94:07:88:d0:c7:a7:69:75:a1:2e:d2:ca:cc:d1:7d:7c:
        a2:82:f8:97:83:f2:20:b3:c5:24:44:02:90:20:75:1f:8d:29:
        d8:f6:05:b6:9f:54:95:62:2e:96:d5:f3:95:f4:7c:f9:b3:d8:
        b8:e9:33:9a:35:2b:ac:b1:0a:f2:08:a1:6d:79:2a:27:5d:22:
        ae:22:66:72:ae:d5:c1:5c:81:6f:b5:04:3a:77:56:0d:cf:f8:
        4d:59:15:1c:9e:bb:bd:53:74:3c:a8:e0:37:dc:28:55:de:b5:
        e2:dd:bc:be:a3:44:20:20:dd:50:9a:08:45:c4:28:36:8d:3e:
        0d:62:a7:03
-----BEGIN CERTIFICATE-----
MIIEFjCCAv6gAwIBAgIBATANBgkqhkiG9w0BAQQFADCBmTELMAkGA1UEBhMCVVMx
EDAOBgNVBAgTB0Zsb3JpZGExGzAZBgNVBAcTElBhbG0gQmVhY2ggR2FyZGVuczEU
MBIGA1UEChMLWmVyb0MsIEluYy4xDDAKBgNVBAsTA0ljZTEYMBYGA1UEAxMPWmVy
b0MgVGVzdCBDQSAyMR0wGwYJKoZIhvcNAQkBFg5pbmZvQHplcm9jLmNvbTAeFw0w
NjAzMzExNjU1MTdaFw0xNjAzMjgxNjU1MTdaMHMxCzAJBgNVBAYTAlVTMRAwDgYD
VQQIEwdGbG9yaWRhMRQwEgYDVQQKEwtaZXJvQywgSW5jLjEMMAoGA1UECxMDSWNl
MR0wGwYJKoZIhvcNAQkBFg5pbmZvQHplcm9jLmNvbTEPMA0GA1UEAxMGU2VydmVy
MIGfMA0GCSqGSIb3DQEBAQUAA4GNADCBiQKBgQC2qlPjNXW16piwrRILtw9ZMhA+
7Y4D1xZXozFkw9HEe24ppOyYexLmEyOD9kn12kenxTiUnMaMnqyonrY8nF6Gp36w
1bj8UHjcPzbHWDO/RKudTlLNRbmtz8qT1Xs1whl6B4axmUMwXMne0RbYCVed2eYw
lGZidQ+rmk1WH70S7QIDAQABo4IBEDCCAQwwCQYDVR0TBAIwADAdBgNVHQ4EFgQU
22whmNKzYpYFSOcZ8q+0HyzYwsEwgcYGA1UdIwSBvjCBu4AULj8EcX6i+r/JJAac
kkODZHCNbBOhgZ+kgZwwgZkxCzAJBgNVBAYTAlVTMRAwDgYDVQQIEwdGbG9yaWRh
MRswGQYDVQQHExJQYWxtIEJlYWNoIEdhcmRlbnMxFDASBgNVBAoTC1plcm9DLCBJ
bmMuMQwwCgYDVQQLEwNJY2UxGDAWBgNVBAMTD1plcm9DIFRlc3QgQ0EgMjEdMBsG
CSqGSIb3DQEJARYOaW5mb0B6ZXJvYy5jb22CAQAwFwYDVR0RBBAwDoIGc2VydmVy
hwR/AAABMA0GCSqGSIb3DQEBBAUAA4IBAQAl5dXkygi2XrjwXKr5p7xtMFRPBaM+
7mRmajjRFkXAMjvIF8LT/f37y5oRQWJIwQmKlNnX5rQ2bxEyWsbhvj+fqZte4zTD
uyQVS9ialjbgvRVeQnOnAgZ7JwNg1W18MrvJcWVGsagoQYOWHQtXe0O3izRcqr16
wIieP3ue+7Jd7pQHiNDHp2l1oS7SyszRfXyigviXg/Igs8UkRAKQIHUfjSnY9gW2
n1SVYi6W1fOV9Hz5s9i46TOaNSussQryCKFteSonXSKuImZyrtXBXIFvtQQ6d1YN
z/hNWRUcnru9U3Q8qOA33ChV3rXi3by+o0QgIN1QmghFxCg2jT4NYqcD
-----END CERTIFICATE-----
