Certificate:
    Data:
        Version: 3 (0x2)
        Serial Number: 1 (0x1)
    Signature Algorithm: sha256WithRSAEncryption
        Issuer: C=US, ST=Florida, L=Palm Beach Gardens, O=ZeroC, Inc., OU=Ice, CN=ZeroC Test CA 1/emailAddress=info@zeroc.com
        Validity
            Not Before: Aug 19 14:40:37 2014 GMT
            Not After : Dec 31 00:00:00 2005 GMT
        Subject: C=US, ST=Florida, O=ZeroC, Inc., OU=Ice/emailAddress=info@zeroc.com, CN=Server
        Subject Public Key Info:
            Public Key Algorithm: rsaEncryption
                Public-Key: (1024 bit)
                Modulus:
                    00:cd:72:09:fd:09:f3:37:72:ac:d4:00:c0:e3:71:
                    af:41:1c:fe:dc:af:fe:d7:45:99:60:80:c8:c2:5e:
                    26:4c:21:83:ab:5a:3f:ea:96:66:a6:31:2b:c4:88:
                    e8:72:43:46:e6:3b:6e:91:52:88:45:30:b9:7f:88:
                    3c:4f:dd:6f:f3:58:84:73:25:51:bc:46:52:b3:4f:
                    88:0c:12:c6:f6:3a:65:19:b0:02:3c:7f:da:88:91:
                    d1:61:f6:cb:20:28:8b:da:c9:31:ce:5b:de:45:51:
                    0b:6c:fa:47:9d:ff:b9:40:50:2f:d7:bd:7b:ad:77:
                    9c:dd:61:8b:6b:3e:c8:f7:0f
                Exponent: 65537 (0x10001)
        X509v3 extensions:
            X509v3 Basic Constraints: 
                CA:FALSE
            X509v3 Subject Key Identifier: 
                3B:80:26:A5:84:34:43:D0:E7:8C:EB:25:E4:1F:38:4B:A3:62:3B:FB
            X509v3 Authority Key Identifier: 
                keyid:13:FA:72:67:FE:34:05:9A:C9:3E:61:D2:91:D6:BA:03:65:1B:8A:9A
                DirName:/C=US/ST=Florida/L=Palm Beach Gardens/O=ZeroC, Inc./OU=Ice/CN=ZeroC Test CA 1/emailAddress=info@zeroc.com
                serial:CE:8A:67:ED:96:6F:7E:B6

            X509v3 Subject Alternative Name: 
                DNS:server, IP Address:127.0.0.1
            X509v3 Issuer Alternative Name: 
                email:issuer@zeroc.com, IP Address:127.0.0.1
    Signature Algorithm: sha256WithRSAEncryption
         bc:6c:33:73:a9:2d:04:32:34:bc:d9:f4:76:03:80:81:38:e7:
         08:65:ef:c7:e0:bc:6b:03:32:c8:0b:3c:a6:3c:a0:e5:0f:bf:
         14:13:87:29:93:95:db:4b:e4:ab:99:19:13:c3:32:45:50:b6:
         90:77:78:d7:39:f2:54:ba:bb:80:35:84:6a:48:c0:c9:ef:10:
         8e:31:1c:63:ee:d0:d7:ef:c2:28:82:f5:05:9f:ee:b9:9c:ad:
         44:20:d8:ed:df:ee:08:5e:a0:00:f9:02:4c:e4:2a:47:98:92:
         e0:7d:fd:17:31:6a:9a:a9:b1:c6:80:3a:40:db:73:7a:66:23:
         d7:d0
-----BEGIN CERTIFICATE-----
MIIDwDCCAymgAwIBAgIBATANBgkqhkiG9w0BAQsFADCBmTELMAkGA1UEBhMCVVMx
EDAOBgNVBAgTB0Zsb3JpZGExGzAZBgNVBAcTElBhbG0gQmVhY2ggR2FyZGVuczEU
MBIGA1UEChMLWmVyb0MsIEluYy4xDDAKBgNVBAsTA0ljZTEYMBYGA1UEAxMPWmVy
b0MgVGVzdCBDQSAxMR0wGwYJKoZIhvcNAQkBFg5pbmZvQHplcm9jLmNvbTAeFw0x
NDA4MTkxNDQwMzdaFw0wNTEyMzEwMDAwMDBaMHMxCzAJBgNVBAYTAlVTMRAwDgYD
VQQIEwdGbG9yaWRhMRQwEgYDVQQKEwtaZXJvQywgSW5jLjEMMAoGA1UECxMDSWNl
MR0wGwYJKoZIhvcNAQkBFg5pbmZvQHplcm9jLmNvbTEPMA0GA1UEAxMGU2VydmVy
MIGfMA0GCSqGSIb3DQEBAQUAA4GNADCBiQKBgQDNcgn9CfM3cqzUAMDjca9BHP7c
r/7XRZlggMjCXiZMIYOrWj/qlmamMSvEiOhyQ0bmO26RUohFMLl/iDxP3W/zWIRz
JVG8RlKzT4gMEsb2OmUZsAI8f9qIkdFh9ssgKIvayTHOW95FUQts+ked/7lAUC/X
vXutd5zdYYtrPsj3DwIDAQABo4IBOzCCATcwCQYDVR0TBAIwADAdBgNVHQ4EFgQU
O4AmpYQ0Q9DnjOsl5B84S6NiO/swgc4GA1UdIwSBxjCBw4AUE/pyZ/40BZrJPmHS
kda6A2UbipqhgZ+kgZwwgZkxCzAJBgNVBAYTAlVTMRAwDgYDVQQIEwdGbG9yaWRh
MRswGQYDVQQHExJQYWxtIEJlYWNoIEdhcmRlbnMxFDASBgNVBAoTC1plcm9DLCBJ
bmMuMQwwCgYDVQQLEwNJY2UxGDAWBgNVBAMTD1plcm9DIFRlc3QgQ0EgMTEdMBsG
CSqGSIb3DQEJARYOaW5mb0B6ZXJvYy5jb22CCQDOimftlm9+tjAXBgNVHREEEDAO
ggZzZXJ2ZXKHBH8AAAEwIQYDVR0SBBowGIEQaXNzdWVyQHplcm9jLmNvbYcEfwAA
ATANBgkqhkiG9w0BAQsFAAOBgQC8bDNzqS0EMjS82fR2A4CBOOcIZe/H4LxrAzLI
CzymPKDlD78UE4cpk5XbS+SrmRkTwzJFULaQd3jXOfJUuruANYRqSMDJ7xCOMRxj
7tDX78IogvUFn+65nK1EINjt3+4IXqAA+QJM5CpHmJLgff0XMWqaqbHGgDpA23N6
ZiPX0A==
-----END CERTIFICATE-----
