Certificate:
    Data:
        Version: 3 (0x2)
        Serial Number: 1 (0x1)
        Signature Algorithm: md5WithRSAEncryption
        Issuer: C=US, ST=Florida, L=Palm Beach Gardens, O=ZeroC, Inc., OU=Ice, CN=ZeroC Test CA/emailAddress=info@zeroc.com
        Validity
            Not Before: Mar 31 16:19:56 2006 GMT
            Not After : Mar 28 16:19:56 2016 GMT
        Subject: C=US, ST=Florida, O=ZeroC, Inc., OU=Ice/emailAddress=info@zeroc.com, CN=Server
        Subject Public Key Info:
            Public Key Algorithm: rsaEncryption
            RSA Public Key: (1024 bit)
                Modulus (1024 bit):
                    00:ae:13:3d:aa:f1:07:a3:8b:64:83:13:1b:75:f2:
                    10:12:41:3c:5d:a4:ef:40:0e:90:c4:88:84:d6:94:
                    d4:48:53:54:dd:ca:4c:c0:b3:50:cb:24:9b:94:dc:
                    73:5f:5f:cf:50:9c:1a:ae:e4:ca:68:e4:4a:9c:27:
                    f4:e4:7f:89:89:8f:45:97:86:bf:e0:5c:71:92:2d:
                    3a:b2:eb:32:86:77:10:bb:60:43:45:d3:1f:fd:b8:
                    1e:18:a3:f4:85:96:0f:53:e5:4c:f9:c7:b2:29:12:
                    0b:68:c2:ac:ff:d7:f8:b3:8f:b5:48:52:4e:ac:7a:
                    03:05:43:67:1e:b8:20:73:5d
                Exponent: 65537 (0x10001)
        X509v3 extensions:
            X509v3 Basic Constraints: 
            CA:FALSE
            X509v3 Subject Key Identifier: 
            B9:59:EB:46:4C:A6:A8:0C:69:4F:B3:E8:18:17:CF:D1:29:3A:36:F3
            X509v3 Authority Key Identifier: 
            keyid:45:2B:F7:FE:7F:6E:B3:4C:09:E9:87:86:E5:A0:2E:FA:50:BD:C1:F8
            DirName:/C=US/ST=Florida/L=Palm Beach Gardens/O=ZeroC, Inc./OU=Ice/CN=ZeroC Test CA/emailAddress=info@zeroc.com
            serial:00

            X509v3 Subject Alternative Name: 
            DNS:server, IP Address:127.0.0.1
    Signature Algorithm: md5WithRSAEncryption
        6d:ce:3d:67:92:e9:b5:6f:fe:46:f0:e5:bf:9d:6e:ed:52:b6:
        34:33:eb:b4:f6:17:99:58:88:c2:9f:14:35:be:e2:b0:ef:74:
        b1:12:34:00:bd:7a:82:61:4c:3a:94:c9:16:f6:4f:db:98:82:
        ff:b4:30:c4:54:98:9c:08:31:94:e7:3f:e9:08:e2:64:b5:a9:
        3f:55:13:76:f5:9e:9b:5c:df:35:92:67:4c:0d:69:d4:3c:e3:
        dd:e4:3a:77:28:39:88:bf:e6:f7:2a:83:e4:89:c1:d8:85:56:
        80:98:8f:89:cd:c1:60:74:cf:56:83:98:82:55:7d:dc:6c:3c:
        73:8e:5a:c2:70:fb:8d:86:02:8d:ee:2a:fc:80:b8:6e:ad:42:
        65:3b:46:ee:dd:51:4e:02:d2:03:6e:83:13:38:39:cc:a0:93:
        24:f3:ba:31:d7:b0:47:16:3f:27:f0:1e:6e:64:eb:bd:ac:29:
        43:c4:be:e3:8d:1a:ae:93:8d:a4:37:7e:bb:57:2c:78:87:80:
        eb:3b:e1:50:58:9b:06:2b:bc:10:0b:42:95:22:b9:73:66:f9:
        34:9a:54:39:c6:3a:4c:10:0f:43:60:b5:d9:b5:bb:70:a1:79:
        d7:72:99:a8:0e:5e:8d:63:37:0e:5b:7c:bd:ad:e7:59:98:01:
        e4:0c:2f:06
-----BEGIN CERTIFICATE-----
MIIEEjCCAvqgAwIBAgIBATANBgkqhkiG9w0BAQQFADCBlzELMAkGA1UEBhMCVVMx
EDAOBgNVBAgTB0Zsb3JpZGExGzAZBgNVBAcTElBhbG0gQmVhY2ggR2FyZGVuczEU
MBIGA1UEChMLWmVyb0MsIEluYy4xDDAKBgNVBAsTA0ljZTEWMBQGA1UEAxMNWmVy
b0MgVGVzdCBDQTEdMBsGCSqGSIb3DQEJARYOaW5mb0B6ZXJvYy5jb20wHhcNMDYw
MzMxMTYxOTU2WhcNMTYwMzI4MTYxOTU2WjBzMQswCQYDVQQGEwJVUzEQMA4GA1UE
CBMHRmxvcmlkYTEUMBIGA1UEChMLWmVyb0MsIEluYy4xDDAKBgNVBAsTA0ljZTEd
MBsGCSqGSIb3DQEJARYOaW5mb0B6ZXJvYy5jb20xDzANBgNVBAMTBlNlcnZlcjCB
nzANBgkqhkiG9w0BAQEFAAOBjQAwgYkCgYEArhM9qvEHo4tkgxMbdfIQEkE8XaTv
QA6QxIiE1pTUSFNU3cpMwLNQyySblNxzX1/PUJwaruTKaORKnCf05H+JiY9Fl4a/
4Fxxki06susyhncQu2BDRdMf/bgeGKP0hZYPU+VM+ceyKRILaMKs/9f4s4+1SFJO
rHoDBUNnHrggc10CAwEAAaOCAQ4wggEKMAkGA1UdEwQCMAAwHQYDVR0OBBYEFLlZ
60ZMpqgMaU+z6BgXz9EpOjbzMIHEBgNVHSMEgbwwgbmAFEUr9/5/brNMCemHhuWg
LvpQvcH4oYGdpIGaMIGXMQswCQYDVQQGEwJVUzEQMA4GA1UECBMHRmxvcmlkYTEb
MBkGA1UEBxMSUGFsbSBCZWFjaCBHYXJkZW5zMRQwEgYDVQQKEwtaZXJvQywgSW5j
LjEMMAoGA1UECxMDSWNlMRYwFAYDVQQDEw1aZXJvQyBUZXN0IENBMR0wGwYJKoZI
hvcNAQkBFg5pbmZvQHplcm9jLmNvbYIBADAXBgNVHREEEDAOggZzZXJ2ZXKHBH8A
AAEwDQYJKoZIhvcNAQEEBQADggEBAG3OPWeS6bVv/kbw5b+dbu1StjQz67T2F5lY
iMKfFDW+4rDvdLESNAC9eoJhTDqUyRb2T9uYgv+0MMRUmJwIMZTnP+kI4mS1qT9V
E3b1nptc3zWSZ0wNadQ8493kOncoOYi/5vcqg+SJwdiFVoCYj4nNwWB0z1aDmIJV
fdxsPHOOWsJw+42GAo3uKvyAuG6tQmU7Ru7dUU4C0gNugxM4OcygkyTzujHXsEcW
PyfwHm5k672sKUPEvuONGq6TjaQ3frtXLHiHgOs74VBYmwYrvBALQpUiuXNm+TSa
VDnGOkwQD0Ngtdm1u3CheddymagOXo1jNw5bfL2t51mYAeQMLwY=
-----END CERTIFICATE-----
