Certificate:
    Data:
        Version: 3 (0x2)
        Serial Number: 1 (0x1)
        Signature Algorithm: sha1WithRSAEncryption
        Issuer: C=US, ST=Florida, L=Palm Beach Gardens, O=ZeroC, Inc., OU=Ice, CN=ZeroC Test CA 1/emailAddress=info@zeroc.com
        Validity
            Not Before: Mar 17 14:50:34 2010 GMT
            Not After : Mar 14 14:50:34 2020 GMT
        Subject: C=US, ST=Florida, O=ZeroC, Inc., OU=Ice/emailAddress=info@zeroc.com, CN=127.0.0.11
        Subject Public Key Info:
            Public Key Algorithm: rsaEncryption
                Public-Key: (1024 bit)
                Modulus:
                    00:b3:b9:f3:00:94:7b:97:6d:e1:91:6b:4e:08:8a:
                    1e:f0:d5:d6:5b:d8:b9:e6:0a:35:12:a2:ef:9a:c3:
                    cb:2e:fa:39:38:74:22:2d:2e:dc:b2:ac:de:8a:72:
                    92:35:7a:8f:04:03:84:ad:c4:59:5c:59:c7:2e:18:
                    59:83:1a:db:57:0d:d8:00:80:9c:07:48:66:d9:94:
                    53:8d:94:e3:96:4b:a4:fc:49:a7:46:53:c3:91:95:
                    01:00:c3:6d:46:5f:4b:ad:bc:a3:54:63:3d:6e:d9:
                    c9:f9:7f:cd:79:25:46:bb:f7:ed:a4:13:b3:51:0a:
                    b2:4f:79:35:5c:75:d8:68:c3
                Exponent: 65537 (0x10001)
        X509v3 extensions:
            X509v3 Basic Constraints: 
                CA:FALSE
            X509v3 Subject Key Identifier: 
                1E:F4:0E:50:93:AC:8D:44:FB:1B:3C:CB:32:EB:A6:F4:8B:2D:ED:4D
            X509v3 Authority Key Identifier: 
                keyid:A2:D9:80:2A:E4:91:8E:0B:85:B7:E4:D5:28:62:4F:C7:C9:8B:E8:D1
                DirName:/C=US/ST=Florida/L=Palm Beach Gardens/O=ZeroC, Inc./OU=Ice/CN=ZeroC Test CA 1/emailAddress=info@zeroc.com
                serial:94:31:70:AC:50:6A:15:99

            X509v3 Issuer Alternative Name: 
                email:issuer@zeroc.com, IP Address:127.0.0.1
    Signature Algorithm: sha1WithRSAEncryption
        07:d8:09:34:9a:9c:ab:61:95:d2:a1:d9:a8:83:a9:9a:d6:c1:
        7b:c6:cf:a4:98:2f:14:de:b2:01:62:8e:cb:5c:a3:7d:d1:7b:
        39:d7:da:f7:7d:38:a0:3f:96:aa:ba:d1:97:e3:c6:05:c7:3d:
        8e:37:ea:83:2c:8b:06:5e:ca:84:03:3a:d1:e5:90:c2:e2:8e:
        20:00:32:c9:48:b6:45:f5:fb:77:b4:90:16:ad:4d:29:33:5e:
        0d:c0:e1:0f:2a:e1:22:dd:10:e3:96:66:06:35:3e:dd:d7:e9:
        c6:b5:8b:83:dd:85:0b:7e:49:e3:f0:96:b2:a0:51:0c:ec:ee:
        00:79
-----BEGIN CERTIFICATE-----
MIIDqzCCAxSgAwIBAgIBATANBgkqhkiG9w0BAQUFADCBmTELMAkGA1UEBhMCVVMx
EDAOBgNVBAgTB0Zsb3JpZGExGzAZBgNVBAcTElBhbG0gQmVhY2ggR2FyZGVuczEU
MBIGA1UEChMLWmVyb0MsIEluYy4xDDAKBgNVBAsTA0ljZTEYMBYGA1UEAxMPWmVy
b0MgVGVzdCBDQSAxMR0wGwYJKoZIhvcNAQkBFg5pbmZvQHplcm9jLmNvbTAeFw0x
MDAzMTcxNDUwMzRaFw0yMDAzMTQxNDUwMzRaMHcxCzAJBgNVBAYTAlVTMRAwDgYD
VQQIEwdGbG9yaWRhMRQwEgYDVQQKEwtaZXJvQywgSW5jLjEMMAoGA1UECxMDSWNl
MR0wGwYJKoZIhvcNAQkBFg5pbmZvQHplcm9jLmNvbTETMBEGA1UEAxMKMTI3LjAu
MC4xMTCBnzANBgkqhkiG9w0BAQEFAAOBjQAwgYkCgYEAs7nzAJR7l23hkWtOCIoe
8NXWW9i55go1EqLvmsPLLvo5OHQiLS7csqzeinKSNXqPBAOErcRZXFnHLhhZgxrb
Vw3YAICcB0hm2ZRTjZTjlkuk/EmnRlPDkZUBAMNtRl9LrbyjVGM9btnJ+X/NeSVG
u/ftpBOzUQqyT3k1XHXYaMMCAwEAAaOCASIwggEeMAkGA1UdEwQCMAAwHQYDVR0O
BBYEFB70DlCTrI1E+xs8yzLrpvSLLe1NMIHOBgNVHSMEgcYwgcOAFKLZgCrkkY4L
hbfk1ShiT8fJi+jRoYGfpIGcMIGZMQswCQYDVQQGEwJVUzEQMA4GA1UECBMHRmxv
cmlkYTEbMBkGA1UEBxMSUGFsbSBCZWFjaCBHYXJkZW5zMRQwEgYDVQQKEwtaZXJv
QywgSW5jLjEMMAoGA1UECxMDSWNlMRgwFgYDVQQDEw9aZXJvQyBUZXN0IENBIDEx
HTAbBgkqhkiG9w0BCQEWDmluZm9AemVyb2MuY29tggkAlDFwrFBqFZkwIQYDVR0S
BBowGIEQaXNzdWVyQHplcm9jLmNvbYcEfwAAATANBgkqhkiG9w0BAQUFAAOBgQAH
2Ak0mpyrYZXSodmog6ma1sF7xs+kmC8U3rIBYo7LXKN90Xs519r3fTigP5aqutGX
48YFxz2ON+qDLIsGXsqEAzrR5ZDC4o4gADLJSLZF9ft3tJAWrU0pM14NwOEPKuEi
3RDjlmYGNT7d1+nGtYuD3YULfknj8JayoFEM7O4AeQ==
-----END CERTIFICATE-----
