Certificate:
    Data:
        Version: 3 (0x2)
        Serial Number: 1 (0x1)
    Signature Algorithm: sha256WithRSAEncryption
        Issuer: C=US, ST=Florida, L=Palm Beach Gardens, O=ZeroC, Inc., OU=Ice, CN=ZeroC Test CA 1/emailAddress=info@zeroc.com
        Validity
            Not Before: Jul 11 17:17:36 2014 GMT
            Not After : Jul  8 17:17:36 2024 GMT
        Subject: C=US, ST=Florida, O=ZeroC, Inc., OU=Ice/emailAddress=info@zeroc.com, CN=127.0.0.11
        Subject Public Key Info:
            Public Key Algorithm: rsaEncryption
                Public-Key: (1024 bit)
                Modulus:
                    00:bc:be:16:c1:03:ce:67:8e:30:5b:8e:d0:9f:f9:
                    78:a8:07:68:d1:12:90:13:37:0c:d5:3d:bb:ef:7f:
                    25:6e:8b:26:07:a0:2f:62:79:a5:d4:c6:a6:6e:1a:
                    fc:f0:72:b8:be:0e:9a:12:fb:43:c7:83:88:e7:d4:
                    1b:3d:6f:bf:35:2d:57:8a:0f:4a:53:f2:7d:cc:93:
                    f2:b5:bb:57:cf:e9:9e:83:a7:13:3f:d3:b4:20:d4:
                    79:ca:2a:cb:8a:59:b9:d1:f1:64:da:1a:ed:3d:9e:
                    ed:71:7a:fb:a7:9c:a6:e8:53:9a:26:22:cc:2a:20:
                    69:fc:2b:6c:e8:d1:2b:32:33
                Exponent: 65537 (0x10001)
        X509v3 extensions:
            X509v3 Basic Constraints: 
                CA:FALSE
            X509v3 Subject Key Identifier: 
                1A:8F:B8:95:A0:80:AF:F1:2B:CB:0B:E0:1F:E5:8E:D6:23:4A:9C:04
            X509v3 Authority Key Identifier: 
                keyid:D3:64:A2:78:6C:8C:1F:AD:F2:26:79:F8:1B:05:25:C5:8B:62:A9:F3
                DirName:/C=US/ST=Florida/L=Palm Beach Gardens/O=ZeroC, Inc./OU=Ice/CN=ZeroC Test CA 1/emailAddress=info@zeroc.com
                serial:F9:E6:F8:11:B0:B7:85:00

            X509v3 Issuer Alternative Name: 
                email:issuer@zeroc.com, IP Address:127.0.0.1
    Signature Algorithm: sha256WithRSAEncryption
         49:35:59:63:c6:4e:2d:c9:a1:b9:ca:9f:f0:4d:ca:dc:24:62:
         3b:5e:ad:a0:da:e9:b7:39:82:ca:e4:06:aa:3e:8a:92:1b:ec:
         87:50:ba:5f:aa:bb:44:dd:3e:a0:8e:ca:86:3d:af:cd:81:e2:
         58:77:a0:d1:7e:c7:43:89:58:27:9c:3e:b7:f9:50:5c:60:a2:
         7d:73:ca:cb:4b:73:e9:8d:d7:97:81:44:b8:db:d0:68:77:9c:
         6a:2f:0a:f0:c9:a0:68:47:54:35:94:58:5d:6a:2d:e5:a9:50:
         76:4f:48:2d:a2:89:5f:2a:53:4c:9b:48:33:99:ba:27:43:38:
         8a:e7
-----BEGIN CERTIFICATE-----
MIIDqzCCAxSgAwIBAgIBATANBgkqhkiG9w0BAQsFADCBmTELMAkGA1UEBhMCVVMx
EDAOBgNVBAgTB0Zsb3JpZGExGzAZBgNVBAcTElBhbG0gQmVhY2ggR2FyZGVuczEU
MBIGA1UEChMLWmVyb0MsIEluYy4xDDAKBgNVBAsTA0ljZTEYMBYGA1UEAxMPWmVy
b0MgVGVzdCBDQSAxMR0wGwYJKoZIhvcNAQkBFg5pbmZvQHplcm9jLmNvbTAeFw0x
NDA3MTExNzE3MzZaFw0yNDA3MDgxNzE3MzZaMHcxCzAJBgNVBAYTAlVTMRAwDgYD
VQQIEwdGbG9yaWRhMRQwEgYDVQQKEwtaZXJvQywgSW5jLjEMMAoGA1UECxMDSWNl
MR0wGwYJKoZIhvcNAQkBFg5pbmZvQHplcm9jLmNvbTETMBEGA1UEAxMKMTI3LjAu
MC4xMTCBnzANBgkqhkiG9w0BAQEFAAOBjQAwgYkCgYEAvL4WwQPOZ44wW47Qn/l4
qAdo0RKQEzcM1T27738lbosmB6AvYnml1Mambhr88HK4vg6aEvtDx4OI59QbPW+/
NS1Xig9KU/J9zJPytbtXz+meg6cTP9O0INR5yirLilm50fFk2hrtPZ7tcXr7p5ym
6FOaJiLMKiBp/Cts6NErMjMCAwEAAaOCASIwggEeMAkGA1UdEwQCMAAwHQYDVR0O
BBYEFBqPuJWggK/xK8sL4B/ljtYjSpwEMIHOBgNVHSMEgcYwgcOAFNNkonhsjB+t
8iZ5+BsFJcWLYqnzoYGfpIGcMIGZMQswCQYDVQQGEwJVUzEQMA4GA1UECBMHRmxv
cmlkYTEbMBkGA1UEBxMSUGFsbSBCZWFjaCBHYXJkZW5zMRQwEgYDVQQKEwtaZXJv
QywgSW5jLjEMMAoGA1UECxMDSWNlMRgwFgYDVQQDEw9aZXJvQyBUZXN0IENBIDEx
HTAbBgkqhkiG9w0BCQEWDmluZm9AemVyb2MuY29tggkA+eb4EbC3hQAwIQYDVR0S
BBowGIEQaXNzdWVyQHplcm9jLmNvbYcEfwAAATANBgkqhkiG9w0BAQsFAAOBgQBJ
NVljxk4tyaG5yp/wTcrcJGI7Xq2g2um3OYLK5AaqPoqSG+yHULpfqrtE3T6gjsqG
Pa/NgeJYd6DRfsdDiVgnnD63+VBcYKJ9c8rLS3PpjdeXgUS429Bod5xqLwrwyaBo
R1Q1lFhdai3lqVB2T0gtoolfKlNMm0gzmbonQziK5w==
-----END CERTIFICATE-----
