Certificate:
    Data:
        Version: 3 (0x2)
        Serial Number: 1 (0x1)
        Signature Algorithm: md5WithRSAEncryption
        Issuer: C=US, ST=Florida, L=Palm Beach Gardens, O=ZeroC, Inc., OU=Ice, CN=ZeroC Test CA 2/emailAddress=info@zeroc.com
        Validity
            Not Before: Sep 23 15:11:16 2009 GMT
            Not After : Sep 21 15:11:16 2019 GMT
        Subject: C=US, ST=Florida, O=ZeroC, Inc., OU=Ice/emailAddress=info@zeroc.com, CN=Server
        Subject Public Key Info:
            Public Key Algorithm: rsaEncryption
            RSA Public Key: (1024 bit)
                Modulus (1024 bit):
                    00:dc:53:b8:1e:fc:e0:f4:fe:d9:8d:c4:21:0f:b8:
                    e6:ba:1e:70:5e:92:ed:55:12:c5:12:ac:c6:ca:75:
                    27:99:23:6f:97:1e:81:15:de:32:88:52:a5:e9:da:
                    9e:db:d8:35:ad:62:0c:d7:99:45:d1:04:76:66:a0:
                    1e:df:71:da:d2:ce:95:17:2a:a8:03:d2:ff:96:d3:
                    75:d3:3e:c8:23:e1:ec:83:1b:40:2f:07:ec:65:a3:
                    29:39:10:e8:91:65:c0:e7:87:98:75:af:0e:d2:78:
                    a1:10:d8:82:d7:a2:26:98:50:c0:dd:62:32:e9:d4:
                    0c:fd:b5:56:6e:8c:40:f8:61
                Exponent: 65537 (0x10001)
        X509v3 extensions:
            X509v3 Basic Constraints: 
                CA:FALSE
            X509v3 Subject Key Identifier: 
                2A:F7:F7:12:D0:D1:38:59:B9:32:12:AD:E6:80:5C:21:8A:12:4A:8D
            X509v3 Authority Key Identifier: 
                keyid:A0:BB:CE:B7:73:BD:61:E3:0F:C9:0E:E3:4F:CB:69:FF:89:76:5F:43
                DirName:/C=US/ST=Florida/L=Palm Beach Gardens/O=ZeroC, Inc./OU=Ice/CN=ZeroC Test CA 2/emailAddress=info@zeroc.com
                serial:EC:24:BF:25:6B:1D:8A:46

            X509v3 Subject Alternative Name: 
                DNS:server, IP Address:127.0.0.1
            X509v3 Issuer Alternative Name: 
                email:issuer@zeroc.com, IP Address:127.0.0.1
    Signature Algorithm: md5WithRSAEncryption
        75:d4:e5:53:33:86:3b:99:a0:2b:a5:26:f0:a7:0e:44:6d:0f:
        2f:b0:f2:cf:bc:be:75:9e:6c:49:6a:29:9f:36:88:1f:c9:f9:
        b5:8b:d9:c9:a4:a1:24:ce:3a:f2:d4:b7:58:93:ea:dc:99:d2:
        b7:92:fc:98:d6:fe:18:5b:8a:17:9a:ca:d1:c7:9c:85:23:6c:
        3b:ae:c2:f6:e5:9e:ae:33:85:91:f0:54:61:7b:b1:f9:20:94:
        b6:5f:82:35:10:7f:b6:70:56:05:a5:57:09:87:12:8f:83:c2:
        74:e5:11:13:55:f7:75:8e:48:50:81:05:d3:2a:46:82:70:c2:
        a5:0f
-----BEGIN CERTIFICATE-----
MIIDwDCCAymgAwIBAgIBATANBgkqhkiG9w0BAQQFADCBmTELMAkGA1UEBhMCVVMx
EDAOBgNVBAgTB0Zsb3JpZGExGzAZBgNVBAcTElBhbG0gQmVhY2ggR2FyZGVuczEU
MBIGA1UEChMLWmVyb0MsIEluYy4xDDAKBgNVBAsTA0ljZTEYMBYGA1UEAxMPWmVy
b0MgVGVzdCBDQSAyMR0wGwYJKoZIhvcNAQkBFg5pbmZvQHplcm9jLmNvbTAeFw0w
OTA5MjMxNTExMTZaFw0xOTA5MjExNTExMTZaMHMxCzAJBgNVBAYTAlVTMRAwDgYD
VQQIEwdGbG9yaWRhMRQwEgYDVQQKEwtaZXJvQywgSW5jLjEMMAoGA1UECxMDSWNl
MR0wGwYJKoZIhvcNAQkBFg5pbmZvQHplcm9jLmNvbTEPMA0GA1UEAxMGU2VydmVy
MIGfMA0GCSqGSIb3DQEBAQUAA4GNADCBiQKBgQDcU7ge/OD0/tmNxCEPuOa6HnBe
ku1VEsUSrMbKdSeZI2+XHoEV3jKIUqXp2p7b2DWtYgzXmUXRBHZmoB7fcdrSzpUX
KqgD0v+W03XTPsgj4eyDG0AvB+xloyk5EOiRZcDnh5h1rw7SeKEQ2ILXoiaYUMDd
YjLp1Az9tVZujED4YQIDAQABo4IBOzCCATcwCQYDVR0TBAIwADAdBgNVHQ4EFgQU
Kvf3EtDROFm5MhKt5oBcIYoSSo0wgc4GA1UdIwSBxjCBw4AUoLvOt3O9YeMPyQ7j
T8tp/4l2X0OhgZ+kgZwwgZkxCzAJBgNVBAYTAlVTMRAwDgYDVQQIEwdGbG9yaWRh
MRswGQYDVQQHExJQYWxtIEJlYWNoIEdhcmRlbnMxFDASBgNVBAoTC1plcm9DLCBJ
bmMuMQwwCgYDVQQLEwNJY2UxGDAWBgNVBAMTD1plcm9DIFRlc3QgQ0EgMjEdMBsG
CSqGSIb3DQEJARYOaW5mb0B6ZXJvYy5jb22CCQDsJL8lax2KRjAXBgNVHREEEDAO
ggZzZXJ2ZXKHBH8AAAEwIQYDVR0SBBowGIEQaXNzdWVyQHplcm9jLmNvbYcEfwAA
ATANBgkqhkiG9w0BAQQFAAOBgQB11OVTM4Y7maArpSbwpw5EbQ8vsPLPvL51nmxJ
aimfNogfyfm1i9nJpKEkzjry1LdYk+rcmdK3kvyY1v4YW4oXmsrRx5yFI2w7rsL2
5Z6uM4WR8FRhe7H5IJS2X4I1EH+2cFYFpVcJhxKPg8J05RETVfd1jkhQgQXTKkaC
cMKlDw==
-----END CERTIFICATE-----
