Certificate:
    Data:
        Version: 3 (0x2)
        Serial Number: 1 (0x1)
        Signature Algorithm: md5WithRSAEncryption
        Issuer: C=US, ST=Florida, L=Palm Beach Gardens, O=ZeroC, Inc., OU=Ice, CN=ZeroC Test CA 1/emailAddress=info@zeroc.com
        Validity
            Not Before: Jul 14 18:25:31 2009 GMT
            Not After : Dec 31 00:00:00 2005 GMT
        Subject: C=US, ST=Florida, O=ZeroC, Inc., OU=Ice/emailAddress=info@zeroc.com, CN=Server
        Subject Public Key Info:
            Public Key Algorithm: rsaEncryption
            RSA Public Key: (1024 bit)
                Modulus (1024 bit):
                    00:bc:72:82:34:60:93:ca:9a:85:fd:d6:da:18:7b:
                    55:e0:c0:50:61:aa:28:a9:20:90:94:70:c6:1b:3e:
                    37:8b:2e:9b:63:b2:a0:b4:85:7e:a3:b4:5e:8a:6b:
                    27:a7:a0:61:5b:e9:e9:df:8d:35:59:61:42:73:76:
                    b9:19:0b:90:c9:0f:b3:cb:7e:87:db:42:35:a1:c1:
                    2d:6a:e6:12:ff:1f:3b:20:56:04:5c:04:eb:cc:03:
                    77:3e:54:57:27:40:c7:d7:c1:98:ec:ff:48:a5:c6:
                    36:7a:b6:a4:48:78:14:24:29:a5:23:a7:f9:2b:a4:
                    25:85:fd:e8:cc:e8:e9:67:fd
                Exponent: 65537 (0x10001)
        X509v3 extensions:
            X509v3 Basic Constraints: 
                CA:FALSE
            X509v3 Subject Key Identifier: 
                42:1A:1B:04:5A:C4:E9:23:09:2E:1F:B6:E3:8A:26:44:DF:85:02:72
            X509v3 Authority Key Identifier: 
                keyid:B1:F2:E4:5D:CF:98:23:64:C7:71:1A:F6:CA:8B:35:71:61:CF:F9:A4
                DirName:/C=US/ST=Florida/L=Palm Beach Gardens/O=ZeroC, Inc./OU=Ice/CN=ZeroC Test CA 1/emailAddress=info@zeroc.com
                serial:EE:56:13:BD:34:21:F7:82

            X509v3 Subject Alternative Name: 
                DNS:server, IP Address:127.0.0.1
    Signature Algorithm: md5WithRSAEncryption
        10:1f:bf:44:fc:06:d1:a9:15:40:11:8f:47:72:94:ae:e1:0f:
        59:13:99:aa:cf:c8:5b:eb:f8:f2:f0:f0:6b:fa:41:94:3a:fb:
        cd:25:2b:d0:e6:df:65:13:01:12:5b:10:7c:72:ee:88:7b:2f:
        27:8d:ff:6c:89:a2:90:86:61:b8:a0:bd:97:fe:d6:fe:9d:0d:
        0b:56:ef:3d:d0:84:f0:37:f3:3c:ca:2b:45:15:35:9a:09:dc:
        c5:de:55:5e:8a:7d:69:9d:cb:9f:ca:35:50:34:25:be:70:a3:
        e2:d2:9c:23:a0:4f:dc:0f:af:b7:09:5a:6d:e6:95:ca:1a:6d:
        00:b6
-----BEGIN CERTIFICATE-----
MIIDnTCCAwagAwIBAgIBATANBgkqhkiG9w0BAQQFADCBmTELMAkGA1UEBhMCVVMx
EDAOBgNVBAgTB0Zsb3JpZGExGzAZBgNVBAcTElBhbG0gQmVhY2ggR2FyZGVuczEU
MBIGA1UEChMLWmVyb0MsIEluYy4xDDAKBgNVBAsTA0ljZTEYMBYGA1UEAxMPWmVy
b0MgVGVzdCBDQSAxMR0wGwYJKoZIhvcNAQkBFg5pbmZvQHplcm9jLmNvbTAeFw0w
OTA3MTQxODI1MzFaFw0wNTEyMzEwMDAwMDBaMHMxCzAJBgNVBAYTAlVTMRAwDgYD
VQQIEwdGbG9yaWRhMRQwEgYDVQQKEwtaZXJvQywgSW5jLjEMMAoGA1UECxMDSWNl
MR0wGwYJKoZIhvcNAQkBFg5pbmZvQHplcm9jLmNvbTEPMA0GA1UEAxMGU2VydmVy
MIGfMA0GCSqGSIb3DQEBAQUAA4GNADCBiQKBgQC8coI0YJPKmoX91toYe1XgwFBh
qiipIJCUcMYbPjeLLptjsqC0hX6jtF6KayenoGFb6enfjTVZYUJzdrkZC5DJD7PL
fofbQjWhwS1q5hL/HzsgVgRcBOvMA3c+VFcnQMfXwZjs/0ilxjZ6tqRIeBQkKaUj
p/krpCWF/ejM6Oln/QIDAQABo4IBGDCCARQwCQYDVR0TBAIwADAdBgNVHQ4EFgQU
QhobBFrE6SMJLh+244omRN+FAnIwgc4GA1UdIwSBxjCBw4AUsfLkXc+YI2THcRr2
yos1cWHP+aShgZ+kgZwwgZkxCzAJBgNVBAYTAlVTMRAwDgYDVQQIEwdGbG9yaWRh
MRswGQYDVQQHExJQYWxtIEJlYWNoIEdhcmRlbnMxFDASBgNVBAoTC1plcm9DLCBJ
bmMuMQwwCgYDVQQLEwNJY2UxGDAWBgNVBAMTD1plcm9DIFRlc3QgQ0EgMTEdMBsG
CSqGSIb3DQEJARYOaW5mb0B6ZXJvYy5jb22CCQDuVhO9NCH3gjAXBgNVHREEEDAO
ggZzZXJ2ZXKHBH8AAAEwDQYJKoZIhvcNAQEEBQADgYEAEB+/RPwG0akVQBGPR3KU
ruEPWROZqs/IW+v48vDwa/pBlDr7zSUr0ObfZRMBElsQfHLuiHsvJ43/bImikIZh
uKC9l/7W/p0NC1bvPdCE8DfzPMorRRU1mgncxd5VXop9aZ3Ln8o1UDQlvnCj4tKc
I6BP3A+vtwlabeaVyhptALY=
-----END CERTIFICATE-----
