Certificate:
    Data:
        Version: 3 (0x2)
        Serial Number: 1 (0x1)
        Signature Algorithm: sha1WithRSAEncryption
        Issuer: C=US, ST=Florida, L=Palm Beach Gardens, O=ZeroC, Inc., OU=Ice, CN=ZeroC Test CA 1/emailAddress=info@zeroc.com
        Validity
            Not Before: Mar 17 14:50:33 2010 GMT
            Not After : Mar 14 14:50:33 2020 GMT
        Subject: C=US, ST=Florida, O=ZeroC, Inc., OU=Ice/emailAddress=info@zeroc.com, CN=Server
        Subject Public Key Info:
            Public Key Algorithm: rsaEncryption
                Public-Key: (1024 bit)
                Modulus:
                    00:a0:de:c0:f3:39:35:d0:f2:8d:68:7d:aa:4f:6e:
                    d4:f9:68:c3:bb:71:77:a0:ab:83:89:23:da:d5:ac:
                    75:5b:7f:45:57:10:48:1f:e1:c8:9f:9b:ab:54:27:
                    7f:c4:e5:8b:d0:77:c1:31:49:3e:f2:b3:30:d9:1a:
                    b9:c0:89:fb:92:87:8c:5e:3f:cc:ca:dc:9f:d3:7a:
                    fd:0f:bc:01:38:7e:3a:dd:5b:44:e6:75:84:85:fe:
                    5c:b4:e3:52:61:9a:57:77:64:39:2c:7f:69:7f:46:
                    c5:43:98:41:d3:9e:73:f7:95:6a:22:fb:83:81:72:
                    e1:fa:19:54:9d:81:9e:96:cb
                Exponent: 65537 (0x10001)
        X509v3 extensions:
            X509v3 Basic Constraints: 
                CA:FALSE
            X509v3 Subject Key Identifier: 
                13:1C:98:41:95:F7:35:BD:34:03:0C:2F:0E:5F:D7:8D:05:D5:1E:5E
            X509v3 Authority Key Identifier: 
                keyid:A2:D9:80:2A:E4:91:8E:0B:85:B7:E4:D5:28:62:4F:C7:C9:8B:E8:D1
                DirName:/C=US/ST=Florida/L=Palm Beach Gardens/O=ZeroC, Inc./OU=Ice/CN=ZeroC Test CA 1/emailAddress=info@zeroc.com
                serial:94:31:70:AC:50:6A:15:99

            X509v3 Subject Alternative Name: 
                DNS:server, IP Address:127.0.0.1
            X509v3 Issuer Alternative Name: 
                email:issuer@zeroc.com, IP Address:127.0.0.1
    Signature Algorithm: sha1WithRSAEncryption
        01:ad:3b:77:8f:89:48:c0:4f:84:97:fa:bf:7d:74:33:87:e0:
        ca:8d:c6:6a:71:1d:e1:b2:30:fb:65:7e:27:45:4c:6c:a3:d1:
        e3:66:b2:51:06:37:22:09:e5:01:9b:63:f0:25:e4:07:e7:33:
        9e:a0:e1:c0:27:3a:db:c2:36:6a:7f:d9:6a:00:06:d1:01:c2:
        9a:37:b7:77:22:96:e7:6d:c9:67:c3:bb:b3:9a:7d:2c:37:27:
        36:83:ce:e0:39:04:03:c7:b2:b8:3b:39:fc:be:5f:8c:e9:34:
        52:e9:fe:5b:86:87:fe:18:49:25:dd:9f:71:89:b6:f0:12:18:
        4b:3c
-----BEGIN CERTIFICATE-----
MIIDwDCCAymgAwIBAgIBATANBgkqhkiG9w0BAQUFADCBmTELMAkGA1UEBhMCVVMx
EDAOBgNVBAgTB0Zsb3JpZGExGzAZBgNVBAcTElBhbG0gQmVhY2ggR2FyZGVuczEU
MBIGA1UEChMLWmVyb0MsIEluYy4xDDAKBgNVBAsTA0ljZTEYMBYGA1UEAxMPWmVy
b0MgVGVzdCBDQSAxMR0wGwYJKoZIhvcNAQkBFg5pbmZvQHplcm9jLmNvbTAeFw0x
MDAzMTcxNDUwMzNaFw0yMDAzMTQxNDUwMzNaMHMxCzAJBgNVBAYTAlVTMRAwDgYD
VQQIEwdGbG9yaWRhMRQwEgYDVQQKEwtaZXJvQywgSW5jLjEMMAoGA1UECxMDSWNl
MR0wGwYJKoZIhvcNAQkBFg5pbmZvQHplcm9jLmNvbTEPMA0GA1UEAxMGU2VydmVy
MIGfMA0GCSqGSIb3DQEBAQUAA4GNADCBiQKBgQCg3sDzOTXQ8o1ofapPbtT5aMO7
cXegq4OJI9rVrHVbf0VXEEgf4cifm6tUJ3/E5YvQd8ExST7yszDZGrnAifuSh4xe
P8zK3J/Tev0PvAE4fjrdW0TmdYSF/ly041Jhmld3ZDksf2l/RsVDmEHTnnP3lWoi
+4OBcuH6GVSdgZ6WywIDAQABo4IBOzCCATcwCQYDVR0TBAIwADAdBgNVHQ4EFgQU
ExyYQZX3Nb00AwwvDl/XjQXVHl4wgc4GA1UdIwSBxjCBw4AUotmAKuSRjguFt+TV
KGJPx8mL6NGhgZ+kgZwwgZkxCzAJBgNVBAYTAlVTMRAwDgYDVQQIEwdGbG9yaWRh
MRswGQYDVQQHExJQYWxtIEJlYWNoIEdhcmRlbnMxFDASBgNVBAoTC1plcm9DLCBJ
bmMuMQwwCgYDVQQLEwNJY2UxGDAWBgNVBAMTD1plcm9DIFRlc3QgQ0EgMTEdMBsG
CSqGSIb3DQEJARYOaW5mb0B6ZXJvYy5jb22CCQCUMXCsUGoVmTAXBgNVHREEEDAO
ggZzZXJ2ZXKHBH8AAAEwIQYDVR0SBBowGIEQaXNzdWVyQHplcm9jLmNvbYcEfwAA
ATANBgkqhkiG9w0BAQUFAAOBgQABrTt3j4lIwE+El/q/fXQzh+DKjcZqcR3hsjD7
ZX4nRUxso9HjZrJRBjciCeUBm2PwJeQH5zOeoOHAJzrbwjZqf9lqAAbRAcKaN7d3
Ipbnbclnw7uzmn0sNyc2g87gOQQDx7K4Ozn8vl+M6TRS6f5bhof+GEkl3Z9xibbw
EhhLPA==
-----END CERTIFICATE-----
