Certificate:
    Data:
        Version: 3 (0x2)
        Serial Number: 1 (0x1)
        Signature Algorithm: md5WithRSAEncryption
        Issuer: C=US, ST=Florida, L=Palm Beach Gardens, O=ZeroC, Inc., OU=Ice, CN=ZeroC Test CA/emailAddress=info@zeroc.com
        Validity
            Not Before: Mar 31 16:19:54 2006 GMT
            Not After : Mar 28 16:19:54 2016 GMT
        Subject: C=US, ST=Florida, O=ZeroC, Inc., OU=Ice/emailAddress=info@zeroc.com, CN=Server
        Subject Public Key Info:
            Public Key Algorithm: rsaEncryption
            RSA Public Key: (1024 bit)
                Modulus (1024 bit):
                    00:fc:ac:97:10:11:67:e7:cd:27:89:6c:e8:27:28:
                    1c:3b:70:db:e6:90:ef:d1:9f:3b:ee:2c:22:3e:d9:
                    a3:b5:e0:0e:c9:39:6c:96:07:30:5b:b9:30:c4:16:
                    2a:f0:56:a2:61:bb:61:f1:2b:4a:24:a4:39:7d:d8:
                    1b:69:60:5d:c2:da:a5:d0:b5:45:59:9b:d4:d2:a4:
                    0b:d5:0b:da:cc:6b:49:43:b0:66:f8:69:a4:d3:2f:
                    b0:95:b6:7e:8d:5c:2e:e4:9e:0c:eb:c0:5e:b7:9e:
                    d1:06:1e:66:f0:9a:a2:09:06:97:d4:96:ff:8d:63:
                    f6:ab:20:7d:04:8f:9c:6f:b9
                Exponent: 65537 (0x10001)
        X509v3 extensions:
            X509v3 Basic Constraints: 
            CA:FALSE
            X509v3 Subject Key Identifier: 
            B3:C2:DE:27:91:85:3E:9D:BF:0B:8C:F6:2B:17:F9:95:AC:68:01:8F
            X509v3 Authority Key Identifier: 
            keyid:5A:A7:44:4D:31:6D:4F:2F:BE:07:F4:C6:59:06:53:08:D7:0E:46:CE
            DirName:/C=US/ST=Florida/L=Palm Beach Gardens/O=ZeroC, Inc./OU=Ice/CN=ZeroC Test CA/emailAddress=info@zeroc.com
            serial:00

            X509v3 Subject Alternative Name: 
            DNS:server, IP Address:127.0.0.1
    Signature Algorithm: md5WithRSAEncryption
        44:fa:20:a0:44:c6:5c:51:3c:82:da:6e:d5:88:ef:39:e8:67:
        ec:4c:9a:0b:a6:71:f5:fe:20:c7:d7:54:0a:39:e4:a3:96:fe:
        cb:ec:a1:dc:ee:dd:b5:e1:b2:f2:41:51:5b:f5:67:41:f7:da:
        a4:15:49:f7:f8:c8:77:3a:47:89:bc:f1:d4:03:7b:41:c2:ab:
        7b:37:15:36:9b:fb:9e:15:14:d5:ba:99:22:79:d3:d2:a4:f8:
        a3:83:9b:5f:f8:7e:18:ad:cb:21:28:f8:12:85:a8:6e:cc:02:
        db:2b:8b:74:5f:66:15:20:ad:60:18:57:2c:22:bd:fd:89:5f:
        00:c0:2e:04:51:d8:eb:f0:03:11:ed:6d:1d:fd:fb:d5:ac:bc:
        be:45:28:de:89:20:77:82:ff:3d:7d:16:79:a1:61:b5:5e:05:
        90:68:4d:8a:a4:30:25:76:95:28:8d:46:9b:18:e3:33:df:b4:
        a0:d9:d3:97:c4:02:b4:15:1d:d1:ae:16:ad:e6:51:d8:42:2f:
        21:18:9a:f3:19:2e:bf:7f:bb:f0:97:98:a1:8a:51:0c:6d:1d:
        7f:91:c8:7e:bc:3f:36:c4:8c:c1:f1:ec:c1:c1:dc:35:d6:3b:
        44:a5:96:ff:cc:fa:ae:c3:00:a6:07:c2:6f:6a:16:1d:f4:04:
        09:98:1b:73
-----BEGIN CERTIFICATE-----
MIIEEjCCAvqgAwIBAgIBATANBgkqhkiG9w0BAQQFADCBlzELMAkGA1UEBhMCVVMx
EDAOBgNVBAgTB0Zsb3JpZGExGzAZBgNVBAcTElBhbG0gQmVhY2ggR2FyZGVuczEU
MBIGA1UEChMLWmVyb0MsIEluYy4xDDAKBgNVBAsTA0ljZTEWMBQGA1UEAxMNWmVy
b0MgVGVzdCBDQTEdMBsGCSqGSIb3DQEJARYOaW5mb0B6ZXJvYy5jb20wHhcNMDYw
MzMxMTYxOTU0WhcNMTYwMzI4MTYxOTU0WjBzMQswCQYDVQQGEwJVUzEQMA4GA1UE
CBMHRmxvcmlkYTEUMBIGA1UEChMLWmVyb0MsIEluYy4xDDAKBgNVBAsTA0ljZTEd
MBsGCSqGSIb3DQEJARYOaW5mb0B6ZXJvYy5jb20xDzANBgNVBAMTBlNlcnZlcjCB
nzANBgkqhkiG9w0BAQEFAAOBjQAwgYkCgYEA/KyXEBFn580niWzoJygcO3Db5pDv
0Z877iwiPtmjteAOyTlslgcwW7kwxBYq8FaiYbth8StKJKQ5fdgbaWBdwtql0LVF
WZvU0qQL1QvazGtJQ7Bm+Gmk0y+wlbZ+jVwu5J4M68Bet57RBh5m8JqiCQaX1Jb/
jWP2qyB9BI+cb7kCAwEAAaOCAQ4wggEKMAkGA1UdEwQCMAAwHQYDVR0OBBYEFLPC
3ieRhT6dvwuM9isX+ZWsaAGPMIHEBgNVHSMEgbwwgbmAFFqnRE0xbU8vvgf0xlkG
UwjXDkbOoYGdpIGaMIGXMQswCQYDVQQGEwJVUzEQMA4GA1UECBMHRmxvcmlkYTEb
MBkGA1UEBxMSUGFsbSBCZWFjaCBHYXJkZW5zMRQwEgYDVQQKEwtaZXJvQywgSW5j
LjEMMAoGA1UECxMDSWNlMRYwFAYDVQQDEw1aZXJvQyBUZXN0IENBMR0wGwYJKoZI
hvcNAQkBFg5pbmZvQHplcm9jLmNvbYIBADAXBgNVHREEEDAOggZzZXJ2ZXKHBH8A
AAEwDQYJKoZIhvcNAQEEBQADggEBAET6IKBExlxRPILabtWI7znoZ+xMmgumcfX+
IMfXVAo55KOW/svsodzu3bXhsvJBUVv1Z0H32qQVSff4yHc6R4m88dQDe0HCq3s3
FTab+54VFNW6mSJ509Kk+KODm1/4fhityyEo+BKFqG7MAtsri3RfZhUgrWAYVywi
vf2JXwDALgRR2OvwAxHtbR39+9WsvL5FKN6JIHeC/z19FnmhYbVeBZBoTYqkMCV2
lSiNRpsY4zPftKDZ05fEArQVHdGuFq3mUdhCLyEYmvMZLr9/u/CXmKGKUQxtHX+R
yH68PzbEjMHx7MHB3DXWO0Sllv/M+q7DAKYHwm9qFh30BAmYG3M=
-----END CERTIFICATE-----
