Certificate:
    Data:
        Version: 3 (0x2)
        Serial Number: 1 (0x1)
    Signature Algorithm: sha256WithRSAEncryption
        Issuer: C=US, ST=Florida, L=Palm Beach Gardens, O=ZeroC, Inc., OU=Ice, CN=ZeroC Test CA 1/emailAddress=info@zeroc.com
        Validity
            Not Before: Jul 11 17:17:35 2014 GMT
            Not After : Jul  8 17:17:35 2024 GMT
        Subject: C=US, ST=Florida, O=ZeroC, Inc., OU=Ice/emailAddress=info@zeroc.com, CN=Server
        Subject Public Key Info:
            Public Key Algorithm: rsaEncryption
                Public-Key: (1024 bit)
                Modulus:
                    00:c7:87:03:88:13:4c:60:ea:88:16:dc:1f:c1:1c:
                    03:d2:b6:82:d8:f0:45:59:0f:f1:fb:77:fc:03:c4:
                    50:a3:da:3f:4a:13:54:1d:27:23:5d:70:d5:34:db:
                    41:33:9e:34:5f:45:3f:cd:0a:67:84:2d:b1:b2:0c:
                    17:cb:27:71:00:90:d5:40:9f:1f:7f:01:f0:bc:34:
                    e5:28:a7:61:6c:5a:98:50:41:31:7f:93:ca:4c:1d:
                    fa:fc:94:3a:7e:94:69:70:1b:98:c9:1c:2c:de:4d:
                    90:32:65:23:58:01:91:d6:77:7b:85:5a:bb:04:20:
                    03:25:9b:eb:09:50:22:2f:31
                Exponent: 65537 (0x10001)
        X509v3 extensions:
            X509v3 Basic Constraints: 
                CA:FALSE
            X509v3 Subject Key Identifier: 
                BF:D3:42:A7:69:2F:12:F5:0D:C7:38:31:0E:2E:71:B5:9D:D2:19:93
            X509v3 Authority Key Identifier: 
                keyid:D3:64:A2:78:6C:8C:1F:AD:F2:26:79:F8:1B:05:25:C5:8B:62:A9:F3
                DirName:/C=US/ST=Florida/L=Palm Beach Gardens/O=ZeroC, Inc./OU=Ice/CN=ZeroC Test CA 1/emailAddress=info@zeroc.com
                serial:F9:E6:F8:11:B0:B7:85:00

            X509v3 Subject Alternative Name: 
                DNS:server, IP Address:127.0.0.1
            X509v3 Issuer Alternative Name: 
                email:issuer@zeroc.com, IP Address:127.0.0.1
    Signature Algorithm: sha256WithRSAEncryption
         bf:f2:6e:79:3f:4f:34:4d:56:20:94:48:e2:c6:38:09:8e:f4:
         6c:b4:53:bb:87:0c:12:73:15:19:ac:30:a6:9e:c8:30:1c:83:
         4c:7a:54:90:96:39:fc:f3:2c:a2:66:71:87:c6:fd:d6:ce:f7:
         46:ab:76:53:00:b4:e5:8b:d2:29:be:36:ea:eb:07:6a:08:f5:
         c5:e9:29:74:21:da:b1:07:19:70:3b:bc:db:80:5c:f9:9d:03:
         74:6b:58:93:6d:27:53:3a:f4:ed:9c:3b:b5:f5:cc:c8:d6:a7:
         f6:70:02:e1:65:20:35:41:50:8f:4f:6a:45:e9:f1:57:ed:a2:
         fc:36
-----BEGIN CERTIFICATE-----
MIIDwDCCAymgAwIBAgIBATANBgkqhkiG9w0BAQsFADCBmTELMAkGA1UEBhMCVVMx
EDAOBgNVBAgTB0Zsb3JpZGExGzAZBgNVBAcTElBhbG0gQmVhY2ggR2FyZGVuczEU
MBIGA1UEChMLWmVyb0MsIEluYy4xDDAKBgNVBAsTA0ljZTEYMBYGA1UEAxMPWmVy
b0MgVGVzdCBDQSAxMR0wGwYJKoZIhvcNAQkBFg5pbmZvQHplcm9jLmNvbTAeFw0x
NDA3MTExNzE3MzVaFw0yNDA3MDgxNzE3MzVaMHMxCzAJBgNVBAYTAlVTMRAwDgYD
VQQIEwdGbG9yaWRhMRQwEgYDVQQKEwtaZXJvQywgSW5jLjEMMAoGA1UECxMDSWNl
MR0wGwYJKoZIhvcNAQkBFg5pbmZvQHplcm9jLmNvbTEPMA0GA1UEAxMGU2VydmVy
MIGfMA0GCSqGSIb3DQEBAQUAA4GNADCBiQKBgQDHhwOIE0xg6ogW3B/BHAPStoLY
8EVZD/H7d/wDxFCj2j9KE1QdJyNdcNU020EznjRfRT/NCmeELbGyDBfLJ3EAkNVA
nx9/AfC8NOUop2FsWphQQTF/k8pMHfr8lDp+lGlwG5jJHCzeTZAyZSNYAZHWd3uF
WrsEIAMlm+sJUCIvMQIDAQABo4IBOzCCATcwCQYDVR0TBAIwADAdBgNVHQ4EFgQU
v9NCp2kvEvUNxzgxDi5xtZ3SGZMwgc4GA1UdIwSBxjCBw4AU02SieGyMH63yJnn4
GwUlxYtiqfOhgZ+kgZwwgZkxCzAJBgNVBAYTAlVTMRAwDgYDVQQIEwdGbG9yaWRh
MRswGQYDVQQHExJQYWxtIEJlYWNoIEdhcmRlbnMxFDASBgNVBAoTC1plcm9DLCBJ
bmMuMQwwCgYDVQQLEwNJY2UxGDAWBgNVBAMTD1plcm9DIFRlc3QgQ0EgMTEdMBsG
CSqGSIb3DQEJARYOaW5mb0B6ZXJvYy5jb22CCQD55vgRsLeFADAXBgNVHREEEDAO
ggZzZXJ2ZXKHBH8AAAEwIQYDVR0SBBowGIEQaXNzdWVyQHplcm9jLmNvbYcEfwAA
ATANBgkqhkiG9w0BAQsFAAOBgQC/8m55P080TVYglEjixjgJjvRstFO7hwwScxUZ
rDCmnsgwHINMelSQljn88yyiZnGHxv3WzvdGq3ZTALTli9Ipvjbq6wdqCPXF6Sl0
IdqxBxlwO7zbgFz5nQN0a1iTbSdTOvTtnDu19czI1qf2cALhZSA1QVCPT2pF6fFX
7aL8Ng==
-----END CERTIFICATE-----
