Certificate:
    Data:
        Version: 3 (0x2)
        Serial Number: 1 (0x1)
    Signature Algorithm: sha256WithRSAEncryption
        Issuer: C=US, ST=Florida, L=Palm Beach Gardens, O=ZeroC, Inc., OU=Ice, CN=ZeroC Test CA 2/emailAddress=info@zeroc.com
        Validity
            Not Before: Jul 11 17:17:36 2014 GMT
            Not After : Jul  8 17:17:36 2024 GMT
        Subject: C=US, ST=Florida, O=ZeroC, Inc., OU=Ice/emailAddress=info@zeroc.com, CN=Server
        Subject Public Key Info:
            Public Key Algorithm: rsaEncryption
                Public-Key: (1024 bit)
                Modulus:
                    00:be:fe:b4:d9:20:59:ad:3c:ab:26:98:3f:ea:52:
                    5f:7a:3a:fe:ad:77:f8:06:c1:18:fa:74:6d:51:34:
                    c5:0f:a9:9f:0f:c2:2f:28:63:c8:df:f9:89:5b:84:
                    b9:35:be:f5:44:c1:8f:fd:1a:9c:c2:ca:50:78:fa:
                    aa:6b:21:4b:4f:dc:db:ce:d8:dd:24:2e:77:5b:6a:
                    d8:ae:cd:f9:c5:8f:98:bf:80:f2:19:bc:93:76:42:
                    c5:52:d5:cc:a1:5b:00:4d:f2:fa:a8:ca:91:69:6c:
                    ef:8d:f0:22:6e:d9:e7:f2:7b:b7:c5:5f:39:52:3b:
                    a2:1b:ce:a5:37:eb:4b:13:6b
                Exponent: 65537 (0x10001)
        X509v3 extensions:
            X509v3 Basic Constraints: 
                CA:FALSE
            X509v3 Subject Key Identifier: 
                CE:04:E2:8C:3C:F8:C6:05:3C:C4:6C:7E:0A:76:1B:94:0B:C2:13:E5
            X509v3 Authority Key Identifier: 
                keyid:E6:A2:63:95:8F:8C:4D:7F:7A:3C:62:1A:C3:2A:BA:53:BB:C2:BF:B1
                DirName:/C=US/ST=Florida/L=Palm Beach Gardens/O=ZeroC, Inc./OU=Ice/CN=ZeroC Test CA 2/emailAddress=info@zeroc.com
                serial:E3:A0:C8:CA:39:6A:77:CF

            X509v3 Subject Alternative Name: 
                DNS:server, IP Address:127.0.0.1
            X509v3 Issuer Alternative Name: 
                email:issuer@zeroc.com, IP Address:127.0.0.1
    Signature Algorithm: sha256WithRSAEncryption
         b6:25:8d:b4:aa:3b:9f:55:ca:54:36:e6:d0:d6:b2:29:09:d4:
         60:cb:61:bf:29:09:f4:4b:09:00:1a:03:e1:41:be:91:4a:2a:
         e1:7f:5f:d8:f1:5a:ec:8a:d2:ca:22:0e:2a:11:4e:0e:f3:94:
         eb:d0:8c:49:bf:75:11:28:8a:36:f5:0d:39:a4:06:71:8f:ba:
         67:e4:b5:cb:e6:86:76:a2:e3:24:e7:ee:01:4f:b2:70:57:a5:
         70:1f:27:70:cb:cd:6f:78:b2:10:69:d9:8c:d8:7a:9f:bf:8d:
         21:05:04:b0:bf:55:90:ec:31:34:ff:b9:d7:94:15:7b:b4:6e:
         e0:4e
-----BEGIN CERTIFICATE-----
MIIDwDCCAymgAwIBAgIBATANBgkqhkiG9w0BAQsFADCBmTELMAkGA1UEBhMCVVMx
EDAOBgNVBAgTB0Zsb3JpZGExGzAZBgNVBAcTElBhbG0gQmVhY2ggR2FyZGVuczEU
MBIGA1UEChMLWmVyb0MsIEluYy4xDDAKBgNVBAsTA0ljZTEYMBYGA1UEAxMPWmVy
b0MgVGVzdCBDQSAyMR0wGwYJKoZIhvcNAQkBFg5pbmZvQHplcm9jLmNvbTAeFw0x
NDA3MTExNzE3MzZaFw0yNDA3MDgxNzE3MzZaMHMxCzAJBgNVBAYTAlVTMRAwDgYD
VQQIEwdGbG9yaWRhMRQwEgYDVQQKEwtaZXJvQywgSW5jLjEMMAoGA1UECxMDSWNl
MR0wGwYJKoZIhvcNAQkBFg5pbmZvQHplcm9jLmNvbTEPMA0GA1UEAxMGU2VydmVy
MIGfMA0GCSqGSIb3DQEBAQUAA4GNADCBiQKBgQC+/rTZIFmtPKsmmD/qUl96Ov6t
d/gGwRj6dG1RNMUPqZ8Pwi8oY8jf+YlbhLk1vvVEwY/9GpzCylB4+qprIUtP3NvO
2N0kLndbatiuzfnFj5i/gPIZvJN2QsVS1cyhWwBN8vqoypFpbO+N8CJu2efye7fF
XzlSO6IbzqU360sTawIDAQABo4IBOzCCATcwCQYDVR0TBAIwADAdBgNVHQ4EFgQU
zgTijDz4xgU8xGx+CnYblAvCE+Uwgc4GA1UdIwSBxjCBw4AU5qJjlY+MTX96PGIa
wyq6U7vCv7GhgZ+kgZwwgZkxCzAJBgNVBAYTAlVTMRAwDgYDVQQIEwdGbG9yaWRh
MRswGQYDVQQHExJQYWxtIEJlYWNoIEdhcmRlbnMxFDASBgNVBAoTC1plcm9DLCBJ
bmMuMQwwCgYDVQQLEwNJY2UxGDAWBgNVBAMTD1plcm9DIFRlc3QgQ0EgMjEdMBsG
CSqGSIb3DQEJARYOaW5mb0B6ZXJvYy5jb22CCQDjoMjKOWp3zzAXBgNVHREEEDAO
ggZzZXJ2ZXKHBH8AAAEwIQYDVR0SBBowGIEQaXNzdWVyQHplcm9jLmNvbYcEfwAA
ATANBgkqhkiG9w0BAQsFAAOBgQC2JY20qjufVcpUNubQ1rIpCdRgy2G/KQn0SwkA
GgPhQb6RSirhf1/Y8VrsitLKIg4qEU4O85Tr0IxJv3URKIo29Q05pAZxj7pn5LXL
5oZ2ouMk5+4BT7JwV6VwHydwy81veLIQadmM2Hqfv40hBQSwv1WQ7DE0/7nXlBV7
tG7gTg==
-----END CERTIFICATE-----
