Certificate:
    Data:
        Version: 3 (0x2)
        Serial Number: 1 (0x1)
        Signature Algorithm: md5WithRSAEncryption
        Issuer: C=US, ST=Florida, L=Palm Beach Gardens, O=ZeroC, Inc., OU=Ice, CN=ZeroC Test CA 1/emailAddress=info@zeroc.com
        Validity
            Not Before: Sep 23 15:11:15 2009 GMT
            Not After : Sep 21 15:11:15 2019 GMT
        Subject: C=US, ST=Florida, O=ZeroC, Inc., OU=Ice/emailAddress=info@zeroc.com, CN=Server
        Subject Public Key Info:
            Public Key Algorithm: rsaEncryption
            RSA Public Key: (1024 bit)
                Modulus (1024 bit):
                    00:c1:4b:82:ee:60:e3:ca:ad:59:dd:b5:03:b4:77:
                    be:c8:92:91:26:a9:ba:e1:84:d2:28:a3:c0:c2:d7:
                    29:fb:d6:30:ae:05:70:16:0c:19:d8:55:f8:32:2c:
                    b1:a4:cf:f0:44:b1:ba:05:c6:53:10:e0:f4:86:ce:
                    f1:8b:bf:93:68:f6:d8:a0:ce:04:48:5a:93:8f:27:
                    8b:c1:65:6c:6e:c3:1c:79:c5:fc:bd:bf:61:13:8e:
                    64:15:b3:1c:1b:88:c8:d1:28:55:5c:b5:65:07:e1:
                    ec:ed:4e:85:cf:6d:f1:ce:cb:e8:a1:ba:09:eb:d2:
                    bb:fc:1c:23:f5:10:77:5e:33
                Exponent: 65537 (0x10001)
        X509v3 extensions:
            X509v3 Basic Constraints: 
                CA:FALSE
            X509v3 Subject Key Identifier: 
                F6:B3:AA:07:B3:F9:A1:05:9D:E5:C2:DB:31:C9:9B:D6:3B:A1:01:9A
            X509v3 Authority Key Identifier: 
                keyid:28:11:80:FD:88:57:63:47:6B:C0:BA:A6:CE:3A:C7:C4:7F:73:31:25
                DirName:/C=US/ST=Florida/L=Palm Beach Gardens/O=ZeroC, Inc./OU=Ice/CN=ZeroC Test CA 1/emailAddress=info@zeroc.com
                serial:DD:26:15:4D:4C:3F:B6:11

            X509v3 Subject Alternative Name: 
                DNS:server, IP Address:127.0.0.1
            X509v3 Issuer Alternative Name: 
                email:issuer@zeroc.com, IP Address:127.0.0.1
    Signature Algorithm: md5WithRSAEncryption
        ac:27:9e:5e:6d:49:a5:b7:3f:a2:59:0e:94:5e:81:54:52:24:
        85:c9:3b:41:0f:88:c6:3b:57:f3:17:ed:0c:31:80:08:09:57:
        0d:7f:9a:f4:1f:61:17:3d:c3:b2:93:62:3d:bf:38:fb:aa:68:
        9c:cc:b7:09:be:40:7b:b6:cc:c4:32:c7:6d:6c:a7:8b:9d:66:
        dc:9a:a0:50:c9:c1:1d:72:b7:cb:a5:b1:f8:5f:0c:a5:67:d4:
        12:3c:3f:57:c1:da:0a:43:ce:b8:24:d1:04:e8:0a:38:db:db:
        b4:b8:7c:59:6a:a2:1b:ba:f1:a1:1f:4a:1f:e9:9e:67:60:0d:
        3a:27
-----BEGIN CERTIFICATE-----
MIIDwDCCAymgAwIBAgIBATANBgkqhkiG9w0BAQQFADCBmTELMAkGA1UEBhMCVVMx
EDAOBgNVBAgTB0Zsb3JpZGExGzAZBgNVBAcTElBhbG0gQmVhY2ggR2FyZGVuczEU
MBIGA1UEChMLWmVyb0MsIEluYy4xDDAKBgNVBAsTA0ljZTEYMBYGA1UEAxMPWmVy
b0MgVGVzdCBDQSAxMR0wGwYJKoZIhvcNAQkBFg5pbmZvQHplcm9jLmNvbTAeFw0w
OTA5MjMxNTExMTVaFw0xOTA5MjExNTExMTVaMHMxCzAJBgNVBAYTAlVTMRAwDgYD
VQQIEwdGbG9yaWRhMRQwEgYDVQQKEwtaZXJvQywgSW5jLjEMMAoGA1UECxMDSWNl
MR0wGwYJKoZIhvcNAQkBFg5pbmZvQHplcm9jLmNvbTEPMA0GA1UEAxMGU2VydmVy
MIGfMA0GCSqGSIb3DQEBAQUAA4GNADCBiQKBgQDBS4LuYOPKrVndtQO0d77IkpEm
qbrhhNIoo8DC1yn71jCuBXAWDBnYVfgyLLGkz/BEsboFxlMQ4PSGzvGLv5No9tig
zgRIWpOPJ4vBZWxuwxx5xfy9v2ETjmQVsxwbiMjRKFVctWUH4eztToXPbfHOy+ih
ugnr0rv8HCP1EHdeMwIDAQABo4IBOzCCATcwCQYDVR0TBAIwADAdBgNVHQ4EFgQU
9rOqB7P5oQWd5cLbMcmb1juhAZowgc4GA1UdIwSBxjCBw4AUKBGA/YhXY0drwLqm
zjrHxH9zMSWhgZ+kgZwwgZkxCzAJBgNVBAYTAlVTMRAwDgYDVQQIEwdGbG9yaWRh
MRswGQYDVQQHExJQYWxtIEJlYWNoIEdhcmRlbnMxFDASBgNVBAoTC1plcm9DLCBJ
bmMuMQwwCgYDVQQLEwNJY2UxGDAWBgNVBAMTD1plcm9DIFRlc3QgQ0EgMTEdMBsG
CSqGSIb3DQEJARYOaW5mb0B6ZXJvYy5jb22CCQDdJhVNTD+2ETAXBgNVHREEEDAO
ggZzZXJ2ZXKHBH8AAAEwIQYDVR0SBBowGIEQaXNzdWVyQHplcm9jLmNvbYcEfwAA
ATANBgkqhkiG9w0BAQQFAAOBgQCsJ55ebUmltz+iWQ6UXoFUUiSFyTtBD4jGO1fz
F+0MMYAICVcNf5r0H2EXPcOyk2I9vzj7qmiczLcJvkB7tszEMsdtbKeLnWbcmqBQ
ycEdcrfLpbH4XwylZ9QSPD9XwdoKQ864JNEE6Ao429u0uHxZaqIbuvGhH0of6Z5n
YA06Jw==
-----END CERTIFICATE-----
