Certificate:
    Data:
        Version: 3 (0x2)
        Serial Number: 1 (0x1)
        Signature Algorithm: md5WithRSAEncryption
        Issuer: C=US, ST=Florida, L=Palm Beach Gardens, O=ZeroC, Inc., OU=Ice, CN=ZeroC Test CA 1/emailAddress=info@zeroc.com
        Validity
            Not Before: Jul 14 18:25:31 2009 GMT
            Not After : Jul 12 18:25:31 2019 GMT
        Subject: C=US, ST=Florida, O=ZeroC, Inc., OU=Ice/emailAddress=info@zeroc.com, CN=Server
        Subject Public Key Info:
            Public Key Algorithm: rsaEncryption
            RSA Public Key: (1024 bit)
                Modulus (1024 bit):
                    00:c0:b6:ad:b5:66:08:c3:7a:7e:ea:db:8c:23:fa:
                    f4:81:c4:b0:cf:4d:36:01:f3:62:83:3c:02:a1:e9:
                    94:1f:c1:aa:11:2d:c4:80:10:5f:40:f3:bd:aa:1b:
                    05:04:d6:5a:ea:b5:79:ec:4c:0b:80:98:ac:05:33:
                    08:bd:39:43:42:4c:ad:cc:11:6d:6d:92:ba:d7:58:
                    d3:c1:dd:af:21:91:68:49:5b:c6:8a:67:f1:62:19:
                    45:4c:30:b9:9e:b8:5e:0c:9e:fa:93:68:17:02:c0:
                    a8:f1:0f:87:ae:d6:8a:71:ef:92:70:70:75:05:ae:
                    c7:86:fa:61:9f:94:b5:95:67
                Exponent: 65537 (0x10001)
        X509v3 extensions:
            X509v3 Basic Constraints: 
                CA:FALSE
            X509v3 Subject Key Identifier: 
                67:02:6A:55:0B:DD:80:8C:3A:CB:7A:BA:E7:4B:E3:1B:63:DC:B1:3D
            X509v3 Authority Key Identifier: 
                keyid:B1:F2:E4:5D:CF:98:23:64:C7:71:1A:F6:CA:8B:35:71:61:CF:F9:A4
                DirName:/C=US/ST=Florida/L=Palm Beach Gardens/O=ZeroC, Inc./OU=Ice/CN=ZeroC Test CA 1/emailAddress=info@zeroc.com
                serial:EE:56:13:BD:34:21:F7:82

            X509v3 Subject Alternative Name: 
                DNS:server, IP Address:127.0.0.1
    Signature Algorithm: md5WithRSAEncryption
        84:2e:23:84:f6:f4:69:95:89:26:5d:f4:a5:d2:6d:43:a8:5d:
        9f:ae:b7:87:fa:78:30:ad:fa:a8:43:db:6b:57:5d:45:86:d9:
        3f:e9:6b:e6:b5:65:4e:c2:1d:9d:6f:61:f3:83:d0:a6:2b:f1:
        46:1e:ca:ef:aa:59:be:e8:f7:7c:2f:9d:ce:19:81:39:11:fe:
        61:a9:81:1b:72:92:ac:9b:2a:5f:35:a1:3d:6f:2a:7d:61:f0:
        f8:5b:62:ff:ea:76:e5:df:58:89:7c:d5:64:9a:92:69:2c:89:
        d9:09:64:95:de:b5:f0:96:30:29:f6:da:b1:72:bc:79:17:3f:
        77:96
-----BEGIN CERTIFICATE-----
MIIDnTCCAwagAwIBAgIBATANBgkqhkiG9w0BAQQFADCBmTELMAkGA1UEBhMCVVMx
EDAOBgNVBAgTB0Zsb3JpZGExGzAZBgNVBAcTElBhbG0gQmVhY2ggR2FyZGVuczEU
MBIGA1UEChMLWmVyb0MsIEluYy4xDDAKBgNVBAsTA0ljZTEYMBYGA1UEAxMPWmVy
b0MgVGVzdCBDQSAxMR0wGwYJKoZIhvcNAQkBFg5pbmZvQHplcm9jLmNvbTAeFw0w
OTA3MTQxODI1MzFaFw0xOTA3MTIxODI1MzFaMHMxCzAJBgNVBAYTAlVTMRAwDgYD
VQQIEwdGbG9yaWRhMRQwEgYDVQQKEwtaZXJvQywgSW5jLjEMMAoGA1UECxMDSWNl
MR0wGwYJKoZIhvcNAQkBFg5pbmZvQHplcm9jLmNvbTEPMA0GA1UEAxMGU2VydmVy
MIGfMA0GCSqGSIb3DQEBAQUAA4GNADCBiQKBgQDAtq21ZgjDen7q24wj+vSBxLDP
TTYB82KDPAKh6ZQfwaoRLcSAEF9A872qGwUE1lrqtXnsTAuAmKwFMwi9OUNCTK3M
EW1tkrrXWNPB3a8hkWhJW8aKZ/FiGUVMMLmeuF4MnvqTaBcCwKjxD4eu1opx75Jw
cHUFrseG+mGflLWVZwIDAQABo4IBGDCCARQwCQYDVR0TBAIwADAdBgNVHQ4EFgQU
ZwJqVQvdgIw6y3q650vjG2PcsT0wgc4GA1UdIwSBxjCBw4AUsfLkXc+YI2THcRr2
yos1cWHP+aShgZ+kgZwwgZkxCzAJBgNVBAYTAlVTMRAwDgYDVQQIEwdGbG9yaWRh
MRswGQYDVQQHExJQYWxtIEJlYWNoIEdhcmRlbnMxFDASBgNVBAoTC1plcm9DLCBJ
bmMuMQwwCgYDVQQLEwNJY2UxGDAWBgNVBAMTD1plcm9DIFRlc3QgQ0EgMTEdMBsG
CSqGSIb3DQEJARYOaW5mb0B6ZXJvYy5jb22CCQDuVhO9NCH3gjAXBgNVHREEEDAO
ggZzZXJ2ZXKHBH8AAAEwDQYJKoZIhvcNAQEEBQADgYEAhC4jhPb0aZWJJl30pdJt
Q6hdn663h/p4MK36qEPba1ddRYbZP+lr5rVlTsIdnW9h84PQpivxRh7K76pZvuj3
fC+dzhmBORH+YamBG3KSrJsqXzWhPW8qfWHw+Fti/+p25d9YiXzVZJqSaSyJ2Qlk
ld618JYwKfbasXK8eRc/d5Y=
-----END CERTIFICATE-----
