Certificate:
    Data:
        Version: 3 (0x2)
        Serial Number: 1 (0x1)
        Signature Algorithm: md5WithRSAEncryption
        Issuer: C=US, ST=Florida, L=Palm Beach Gardens, O=ZeroC, Inc., OU=Ice, CN=ZeroC Test CA/emailAddress=info@zeroc.com
        Validity
            Not Before: Mar 31 16:19:54 2006 GMT
            Not After : Mar 28 16:19:54 2016 GMT
        Subject: C=US, ST=Florida, O=ZeroC, Inc., OU=Ice/emailAddress=info@zeroc.com, CN=Server
        Subject Public Key Info:
            Public Key Algorithm: rsaEncryption
            RSA Public Key: (1024 bit)
                Modulus (1024 bit):
                    00:be:6a:de:ef:0b:4c:b4:19:16:06:2b:c0:0a:f4:
                    72:39:98:57:77:dc:a0:bd:5a:8f:f0:07:fb:37:92:
                    02:5e:89:ab:b4:3d:db:cc:65:6d:27:61:d0:c6:c9:
                    b8:b6:55:02:49:c0:f7:90:06:0c:f2:ca:61:38:4d:
                    09:07:80:56:a3:d6:f0:60:c9:56:59:41:58:1e:75:
                    a2:f0:ea:d4:57:72:94:e2:14:b3:92:46:58:c4:80:
                    ab:d8:57:33:34:bf:85:4b:24:23:f2:8a:7d:7c:63:
                    4a:79:05:ba:89:70:29:2f:2c:73:39:f8:5b:70:30:
                    c0:29:d6:ac:82:ef:a0:90:c7
                Exponent: 65537 (0x10001)
        X509v3 extensions:
            X509v3 Basic Constraints: 
            CA:FALSE
            X509v3 Subject Key Identifier: 
            5B:6A:2F:F2:83:F6:A6:B3:A7:48:D1:5D:9F:53:7A:A3:42:43:58:D9
            X509v3 Authority Key Identifier: 
            keyid:5A:A7:44:4D:31:6D:4F:2F:BE:07:F4:C6:59:06:53:08:D7:0E:46:CE
            DirName:/C=US/ST=Florida/L=Palm Beach Gardens/O=ZeroC, Inc./OU=Ice/CN=ZeroC Test CA/emailAddress=info@zeroc.com
            serial:00

            X509v3 Subject Alternative Name: 
            DNS:server, IP Address:127.0.0.1
    Signature Algorithm: md5WithRSAEncryption
        41:ba:48:17:8f:f1:d5:63:32:b7:b9:e3:6e:da:3e:3c:17:3c:
        4f:f3:f2:ba:d2:01:1b:b3:8d:2f:c2:9c:10:32:d2:4e:3c:30:
        6d:b0:df:ff:95:b0:78:ab:f8:6d:12:53:a8:6d:03:29:0a:89:
        84:95:97:ec:db:d9:d9:9f:0a:14:6a:7c:d7:90:5a:ee:d3:02:
        72:7d:23:7c:88:3c:a5:8d:f7:67:51:fa:0e:7b:89:24:4e:82:
        7b:bb:17:1d:f6:7a:6b:7b:c2:bd:be:96:72:42:52:43:de:b3:
        10:c4:05:30:9d:45:73:fb:5b:0c:cc:5d:2c:41:e1:34:eb:94:
        fe:25:d8:b8:46:89:d5:11:16:b0:1a:8d:24:c5:99:51:ce:b5:
        10:31:2e:de:77:54:8b:0b:64:26:2e:04:21:64:94:83:f9:60:
        4c:97:fb:3c:7a:8d:86:41:8a:86:ae:02:ed:fa:3f:72:88:83:
        7e:eb:bb:44:f7:5b:41:46:10:be:95:6e:5a:a4:f9:5d:40:d4:
        62:80:3e:c0:f7:98:af:16:37:22:a2:fe:a4:26:b1:cc:db:cf:
        a7:e7:f2:4b:e6:b2:cf:7d:6b:18:05:e6:10:c0:87:cd:e3:76:
        d1:10:65:55:75:83:8a:a2:e1:bc:0d:3f:b8:5b:ce:b1:69:f1:
        62:ec:7d:f2
-----BEGIN CERTIFICATE-----
MIIEEjCCAvqgAwIBAgIBATANBgkqhkiG9w0BAQQFADCBlzELMAkGA1UEBhMCVVMx
EDAOBgNVBAgTB0Zsb3JpZGExGzAZBgNVBAcTElBhbG0gQmVhY2ggR2FyZGVuczEU
MBIGA1UEChMLWmVyb0MsIEluYy4xDDAKBgNVBAsTA0ljZTEWMBQGA1UEAxMNWmVy
b0MgVGVzdCBDQTEdMBsGCSqGSIb3DQEJARYOaW5mb0B6ZXJvYy5jb20wHhcNMDYw
MzMxMTYxOTU0WhcNMTYwMzI4MTYxOTU0WjBzMQswCQYDVQQGEwJVUzEQMA4GA1UE
CBMHRmxvcmlkYTEUMBIGA1UEChMLWmVyb0MsIEluYy4xDDAKBgNVBAsTA0ljZTEd
MBsGCSqGSIb3DQEJARYOaW5mb0B6ZXJvYy5jb20xDzANBgNVBAMTBlNlcnZlcjCB
nzANBgkqhkiG9w0BAQEFAAOBjQAwgYkCgYEAvmre7wtMtBkWBivACvRyOZhXd9yg
vVqP8Af7N5ICXomrtD3bzGVtJ2HQxsm4tlUCScD3kAYM8sphOE0JB4BWo9bwYMlW
WUFYHnWi8OrUV3KU4hSzkkZYxICr2FczNL+FSyQj8op9fGNKeQW6iXApLyxzOfhb
cDDAKdasgu+gkMcCAwEAAaOCAQ4wggEKMAkGA1UdEwQCMAAwHQYDVR0OBBYEFFtq
L/KD9qazp0jRXZ9TeqNCQ1jZMIHEBgNVHSMEgbwwgbmAFFqnRE0xbU8vvgf0xlkG
UwjXDkbOoYGdpIGaMIGXMQswCQYDVQQGEwJVUzEQMA4GA1UECBMHRmxvcmlkYTEb
MBkGA1UEBxMSUGFsbSBCZWFjaCBHYXJkZW5zMRQwEgYDVQQKEwtaZXJvQywgSW5j
LjEMMAoGA1UECxMDSWNlMRYwFAYDVQQDEw1aZXJvQyBUZXN0IENBMR0wGwYJKoZI
hvcNAQkBFg5pbmZvQHplcm9jLmNvbYIBADAXBgNVHREEEDAOggZzZXJ2ZXKHBH8A
AAEwDQYJKoZIhvcNAQEEBQADggEBAEG6SBeP8dVjMre5427aPjwXPE/z8rrSARuz
jS/CnBAy0k48MG2w3/+VsHir+G0SU6htAykKiYSVl+zb2dmfChRqfNeQWu7TAnJ9
I3yIPKWN92dR+g57iSROgnu7Fx32emt7wr2+lnJCUkPesxDEBTCdRXP7WwzMXSxB
4TTrlP4l2LhGidURFrAajSTFmVHOtRAxLt53VIsLZCYuBCFklIP5YEyX+zx6jYZB
ioauAu36P3KIg37ru0T3W0FGEL6Vblqk+V1A1GKAPsD3mK8WNyKi/qQmsczbz6fn
8kvmss99axgF5hDAh83jdtEQZVV1g4qi4bwNP7hbzrFp8WLsffI=
-----END CERTIFICATE-----
