Certificate:
    Data:
        Version: 3 (0x2)
        Serial Number: 1 (0x1)
        Signature Algorithm: md5WithRSAEncryption
        Issuer: C=US, ST=Florida, L=Palm Beach Gardens, O=ZeroC, Inc., OU=Ice, CN=ZeroC Test CA 2/emailAddress=info@zeroc.com
        Validity
            Not Before: Jul 14 18:25:32 2009 GMT
            Not After : Jul 12 18:25:32 2019 GMT
        Subject: C=US, ST=Florida, O=ZeroC, Inc., OU=Ice/emailAddress=info@zeroc.com, CN=Server
        Subject Public Key Info:
            Public Key Algorithm: rsaEncryption
            RSA Public Key: (1024 bit)
                Modulus (1024 bit):
                    00:e1:31:e1:82:44:64:05:42:d0:1a:ef:57:29:97:
                    e7:1d:48:2d:b8:11:2e:e0:33:45:5b:b9:b0:b7:7f:
                    68:54:a3:4a:0e:5e:5d:ba:7b:18:15:3b:d5:67:75:
                    32:4f:0c:68:e2:2d:9d:51:7b:2b:70:ce:1a:de:16:
                    fd:a4:49:b3:42:df:cd:74:f2:ae:e1:dc:ca:94:9b:
                    ed:a4:41:a8:83:89:94:22:f0:07:45:18:fb:13:4a:
                    4f:97:c8:0b:43:d7:6e:a9:31:d8:04:f5:8f:37:fa:
                    92:d2:99:58:a6:77:b7:1e:50:85:a8:ec:00:0c:8e:
                    23:32:54:c8:4a:80:f0:7b:8b
                Exponent: 65537 (0x10001)
        X509v3 extensions:
            X509v3 Basic Constraints: 
                CA:FALSE
            X509v3 Subject Key Identifier: 
                C4:C0:47:79:1F:71:AA:B4:53:C9:43:47:A8:E4:8D:47:A3:0C:73:0D
            X509v3 Authority Key Identifier: 
                keyid:C3:83:6D:26:8D:92:DA:C4:85:2A:FB:EF:BA:B8:44:16:B7:D9:2D:87
                DirName:/C=US/ST=Florida/L=Palm Beach Gardens/O=ZeroC, Inc./OU=Ice/CN=ZeroC Test CA 2/emailAddress=info@zeroc.com
                serial:8B:D9:B4:FB:C3:B4:9A:00

            X509v3 Subject Alternative Name: 
                DNS:server, IP Address:127.0.0.1
    Signature Algorithm: md5WithRSAEncryption
        c0:df:f1:0b:b0:ec:af:f8:68:7f:db:f3:3e:09:1e:b5:8e:1b:
        59:46:81:b6:37:14:2f:77:71:97:13:31:ea:0c:af:e1:2e:53:
        6b:ce:7c:27:5b:81:03:fa:f9:02:09:dc:8d:9f:e4:11:bc:ad:
        01:4f:bf:ec:f2:f1:da:8b:82:ff:0d:ad:85:79:6e:ac:56:91:
        c4:d3:68:41:bf:7d:49:f9:2f:ed:61:4c:1f:4c:63:2d:79:5e:
        b6:02:79:05:ff:9d:33:ba:3f:a9:ab:ee:c5:c8:61:86:ad:af:
        21:eb:13:a4:b4:4b:5f:47:0c:7b:98:49:b7:82:3a:81:42:3d:
        54:5a
-----BEGIN CERTIFICATE-----
MIIDnTCCAwagAwIBAgIBATANBgkqhkiG9w0BAQQFADCBmTELMAkGA1UEBhMCVVMx
EDAOBgNVBAgTB0Zsb3JpZGExGzAZBgNVBAcTElBhbG0gQmVhY2ggR2FyZGVuczEU
MBIGA1UEChMLWmVyb0MsIEluYy4xDDAKBgNVBAsTA0ljZTEYMBYGA1UEAxMPWmVy
b0MgVGVzdCBDQSAyMR0wGwYJKoZIhvcNAQkBFg5pbmZvQHplcm9jLmNvbTAeFw0w
OTA3MTQxODI1MzJaFw0xOTA3MTIxODI1MzJaMHMxCzAJBgNVBAYTAlVTMRAwDgYD
VQQIEwdGbG9yaWRhMRQwEgYDVQQKEwtaZXJvQywgSW5jLjEMMAoGA1UECxMDSWNl
MR0wGwYJKoZIhvcNAQkBFg5pbmZvQHplcm9jLmNvbTEPMA0GA1UEAxMGU2VydmVy
MIGfMA0GCSqGSIb3DQEBAQUAA4GNADCBiQKBgQDhMeGCRGQFQtAa71cpl+cdSC24
ES7gM0VbubC3f2hUo0oOXl26exgVO9VndTJPDGjiLZ1ReytwzhreFv2kSbNC3810
8q7h3MqUm+2kQaiDiZQi8AdFGPsTSk+XyAtD126pMdgE9Y83+pLSmVimd7ceUIWo
7AAMjiMyVMhKgPB7iwIDAQABo4IBGDCCARQwCQYDVR0TBAIwADAdBgNVHQ4EFgQU
xMBHeR9xqrRTyUNHqOSNR6MMcw0wgc4GA1UdIwSBxjCBw4AUw4NtJo2S2sSFKvvv
urhEFrfZLYehgZ+kgZwwgZkxCzAJBgNVBAYTAlVTMRAwDgYDVQQIEwdGbG9yaWRh
MRswGQYDVQQHExJQYWxtIEJlYWNoIEdhcmRlbnMxFDASBgNVBAoTC1plcm9DLCBJ
bmMuMQwwCgYDVQQLEwNJY2UxGDAWBgNVBAMTD1plcm9DIFRlc3QgQ0EgMjEdMBsG
CSqGSIb3DQEJARYOaW5mb0B6ZXJvYy5jb22CCQCL2bT7w7SaADAXBgNVHREEEDAO
ggZzZXJ2ZXKHBH8AAAEwDQYJKoZIhvcNAQEEBQADgYEAwN/xC7Dsr/hof9vzPgke
tY4bWUaBtjcUL3dxlxMx6gyv4S5Ta858J1uBA/r5AgncjZ/kEbytAU+/7PLx2ouC
/w2thXlurFaRxNNoQb99Sfkv7WFMH0xjLXletgJ5Bf+dM7o/qavuxchhhq2vIesT
pLRLX0cMe5hJt4I6gUI9VFo=
-----END CERTIFICATE-----
