Certificate:
    Data:
        Version: 3 (0x2)
        Serial Number: 1 (0x1)
        Signature Algorithm: md5WithRSAEncryption
        Issuer: C=US, ST=Florida, L=Palm Beach Gardens, O=ZeroC, Inc., OU=Ice, CN=ZeroC Test CA/emailAddress=info@zeroc.com
        Validity
            Not Before: Mar 28 18:09:56 2006 GMT
            Not After : Mar 25 18:09:56 2016 GMT
        Subject: C=US, ST=Florida, O=ZeroC, Inc., OU=Ice/emailAddress=info@zeroc.com, CN=Server
        Subject Public Key Info:
            Public Key Algorithm: rsaEncryption
            RSA Public Key: (1024 bit)
                Modulus (1024 bit):
                    00:cc:ea:80:11:f7:f4:3d:1a:49:a0:94:30:59:1a:
                    e9:bc:6d:2c:94:83:d1:a3:db:0c:c6:a6:50:32:90:
                    8e:f3:87:9b:7b:59:29:06:2b:60:ef:e2:7b:70:67:
                    3c:ba:05:53:84:c3:72:83:74:71:fa:16:59:a1:7e:
                    3c:73:b7:a7:32:47:33:d8:b4:82:40:a0:00:4c:dd:
                    a7:b3:b9:81:53:4e:e4:ac:69:2c:51:05:98:35:b4:
                    60:78:bc:62:2b:f7:37:57:48:41:ef:73:fd:35:79:
                    f7:48:6f:75:ef:e2:04:47:3c:be:78:b6:d3:40:6f:
                    6f:89:6c:c5:83:2b:f4:f0:cd
                Exponent: 65537 (0x10001)
        X509v3 extensions:
            X509v3 Basic Constraints: 
            CA:FALSE
            X509v3 Subject Key Identifier: 
            B2:10:15:F0:FA:28:6C:F6:59:4B:75:21:A7:5C:B3:D4:E4:38:38:F8
            X509v3 Authority Key Identifier: 
            keyid:A3:8D:7D:FF:A8:69:1E:7C:54:58:46:61:FE:B7:68:BC:2C:FC:CB:DE
            DirName:/C=US/ST=Florida/L=Palm Beach Gardens/O=ZeroC, Inc./OU=Ice/CN=ZeroC Test CA/emailAddress=info@zeroc.com
            serial:00

            X509v3 Subject Alternative Name: 
            DNS:server, IP Address:127.0.0.1
    Signature Algorithm: md5WithRSAEncryption
        38:2f:0c:79:31:36:fe:4e:ed:65:7e:3d:52:b4:41:d4:b4:e0:
        ee:60:d1:cc:dd:4b:77:63:1d:d2:78:1e:c1:c3:99:79:9f:8e:
        3b:de:8d:34:70:2c:57:c7:86:51:e6:7b:f7:09:6a:42:5f:98:
        f6:42:6c:40:6f:03:99:a2:ee:4d:b0:10:6b:66:fe:88:29:38:
        ae:8c:c4:79:5c:1b:3f:67:51:7b:5a:0e:61:25:e9:85:61:c4:
        06:57:4e:dc:2d:30:2e:bc:34:b3:ac:1e:da:63:3f:4f:63:22:
        5a:11:71:cc:0d:e5:81:b6:ef:cf:91:4e:e3:44:0c:39:60:d9:
        5e:1a:a2:d4:b7:7b:ef:06:81:ad:00:a0:fd:c7:45:81:48:20:
        54:b5:b9:2a:ff:09:3c:75:19:9c:bf:2b:03:49:c5:28:23:5a:
        b4:df:00:9b:da:19:91:95:71:77:44:61:ed:54:4e:23:f6:97:
        da:53:94:01:73:b2:03:d7:86:e4:c6:13:b3:46:c5:79:b3:49:
        3a:69:75:1b:0c:be:3e:5e:56:3d:bd:8e:5f:72:8a:bc:68:2d:
        8b:07:fd:de:0c:1e:2b:93:56:a0:84:10:3c:37:99:27:c1:12:
        9d:37:da:0d:1d:55:32:d3:af:b6:df:a2:4b:20:26:15:82:7f:
        65:02:60:fa
-----BEGIN CERTIFICATE-----
MIIEEjCCAvqgAwIBAgIBATANBgkqhkiG9w0BAQQFADCBlzELMAkGA1UEBhMCVVMx
EDAOBgNVBAgTB0Zsb3JpZGExGzAZBgNVBAcTElBhbG0gQmVhY2ggR2FyZGVuczEU
MBIGA1UEChMLWmVyb0MsIEluYy4xDDAKBgNVBAsTA0ljZTEWMBQGA1UEAxMNWmVy
b0MgVGVzdCBDQTEdMBsGCSqGSIb3DQEJARYOaW5mb0B6ZXJvYy5jb20wHhcNMDYw
MzI4MTgwOTU2WhcNMTYwMzI1MTgwOTU2WjBzMQswCQYDVQQGEwJVUzEQMA4GA1UE
CBMHRmxvcmlkYTEUMBIGA1UEChMLWmVyb0MsIEluYy4xDDAKBgNVBAsTA0ljZTEd
MBsGCSqGSIb3DQEJARYOaW5mb0B6ZXJvYy5jb20xDzANBgNVBAMTBlNlcnZlcjCB
nzANBgkqhkiG9w0BAQEFAAOBjQAwgYkCgYEAzOqAEff0PRpJoJQwWRrpvG0slIPR
o9sMxqZQMpCO84ebe1kpBitg7+J7cGc8ugVThMNyg3Rx+hZZoX48c7enMkcz2LSC
QKAATN2ns7mBU07krGksUQWYNbRgeLxiK/c3V0hB73P9NXn3SG917+IERzy+eLbT
QG9viWzFgyv08M0CAwEAAaOCAQ4wggEKMAkGA1UdEwQCMAAwHQYDVR0OBBYEFLIQ
FfD6KGz2WUt1Iadcs9TkODj4MIHEBgNVHSMEgbwwgbmAFKONff+oaR58VFhGYf63
aLws/MveoYGdpIGaMIGXMQswCQYDVQQGEwJVUzEQMA4GA1UECBMHRmxvcmlkYTEb
MBkGA1UEBxMSUGFsbSBCZWFjaCBHYXJkZW5zMRQwEgYDVQQKEwtaZXJvQywgSW5j
LjEMMAoGA1UECxMDSWNlMRYwFAYDVQQDEw1aZXJvQyBUZXN0IENBMR0wGwYJKoZI
hvcNAQkBFg5pbmZvQHplcm9jLmNvbYIBADAXBgNVHREEEDAOggZzZXJ2ZXKHBH8A
AAEwDQYJKoZIhvcNAQEEBQADggEBADgvDHkxNv5O7WV+PVK0QdS04O5g0czdS3dj
HdJ4HsHDmXmfjjvejTRwLFfHhlHme/cJakJfmPZCbEBvA5mi7k2wEGtm/ogpOK6M
xHlcGz9nUXtaDmEl6YVhxAZXTtwtMC68NLOsHtpjP09jIloRccwN5YG278+RTuNE
DDlg2V4aotS3e+8Gga0AoP3HRYFIIFS1uSr/CTx1GZy/KwNJxSgjWrTfAJvaGZGV
cXdEYe1UTiP2l9pTlAFzsgPXhuTGE7NGxXmzSTppdRsMvj5eVj29jl9yirxoLYsH
/d4MHiuTVqCEEDw3mSfBEp032g0dVTLTr7bfoksgJhWCf2UCYPo=
-----END CERTIFICATE-----
