Certificate:
    Data:
        Version: 3 (0x2)
        Serial Number: 1 (0x1)
    Signature Algorithm: sha256WithRSAEncryption
        Issuer: C=US, ST=Florida, L=Palm Beach Gardens, O=ZeroC, Inc., OU=Ice, CN=ZeroC Test CA 1/emailAddress=info@zeroc.com
        Validity
            Not Before: Aug 19 14:40:37 2014 GMT
            Not After : Aug 16 14:40:37 2024 GMT
        Subject: C=US, ST=Florida, O=ZeroC, Inc., OU=Ice/emailAddress=info@zeroc.com, CN=127.0.0.1
        Subject Public Key Info:
            Public Key Algorithm: rsaEncryption
                Public-Key: (1024 bit)
                Modulus:
                    00:ae:da:77:78:e8:22:34:5e:8b:9f:0c:25:ff:8f:
                    63:82:a2:51:d0:0d:cf:f5:b6:97:25:42:0a:ef:e8:
                    65:37:43:a4:4c:64:29:59:72:fa:1c:92:f0:e9:56:
                    7a:c8:82:e8:cb:e6:2f:ca:05:58:e4:ab:9c:e5:2c:
                    68:ad:64:4f:de:9d:99:91:fd:93:23:04:d2:dd:c5:
                    2b:1c:80:74:5d:67:5c:d8:90:3c:29:11:18:6d:58:
                    24:8f:f8:a8:47:9e:95:1a:8c:6d:9b:76:93:50:14:
                    e7:c4:e7:8e:3d:9c:22:06:59:71:5b:d3:42:d5:cf:
                    5a:85:89:de:07:00:cb:cf:e1
                Exponent: 65537 (0x10001)
        X509v3 extensions:
            X509v3 Basic Constraints: 
                CA:FALSE
            X509v3 Subject Key Identifier: 
                B1:C4:DC:01:16:D5:A1:90:59:31:7C:A8:0F:35:5E:30:55:B0:25:64
            X509v3 Authority Key Identifier: 
                keyid:13:FA:72:67:FE:34:05:9A:C9:3E:61:D2:91:D6:BA:03:65:1B:8A:9A
                DirName:/C=US/ST=Florida/L=Palm Beach Gardens/O=ZeroC, Inc./OU=Ice/CN=ZeroC Test CA 1/emailAddress=info@zeroc.com
                serial:CE:8A:67:ED:96:6F:7E:B6

            X509v3 Issuer Alternative Name: 
                email:issuer@zeroc.com, IP Address:127.0.0.1
    Signature Algorithm: sha256WithRSAEncryption
         52:45:01:59:0e:c3:04:99:b0:05:87:74:4f:a7:21:c1:23:de:
         5a:b1:a7:69:fb:1a:28:1a:fe:10:95:5a:03:a9:3c:71:70:34:
         86:50:37:49:30:da:6a:85:d7:2d:07:80:02:c9:37:32:ed:ff:
         92:18:a3:87:ea:bb:ea:0b:b8:31:07:92:ed:b6:80:23:3c:1a:
         94:39:a9:94:c4:50:b9:17:83:de:40:15:8b:02:b9:da:fa:95:
         0e:6a:0e:77:0d:c9:0a:a4:42:a8:48:27:f5:c5:14:90:b4:d0:
         71:5e:06:c4:23:68:8c:3d:74:be:45:10:57:9a:8c:44:8b:03:
         74:07
-----BEGIN CERTIFICATE-----
MIIDqjCCAxOgAwIBAgIBATANBgkqhkiG9w0BAQsFADCBmTELMAkGA1UEBhMCVVMx
EDAOBgNVBAgTB0Zsb3JpZGExGzAZBgNVBAcTElBhbG0gQmVhY2ggR2FyZGVuczEU
MBIGA1UEChMLWmVyb0MsIEluYy4xDDAKBgNVBAsTA0ljZTEYMBYGA1UEAxMPWmVy
b0MgVGVzdCBDQSAxMR0wGwYJKoZIhvcNAQkBFg5pbmZvQHplcm9jLmNvbTAeFw0x
NDA4MTkxNDQwMzdaFw0yNDA4MTYxNDQwMzdaMHYxCzAJBgNVBAYTAlVTMRAwDgYD
VQQIEwdGbG9yaWRhMRQwEgYDVQQKEwtaZXJvQywgSW5jLjEMMAoGA1UECxMDSWNl
MR0wGwYJKoZIhvcNAQkBFg5pbmZvQHplcm9jLmNvbTESMBAGA1UEAxMJMTI3LjAu
MC4xMIGfMA0GCSqGSIb3DQEBAQUAA4GNADCBiQKBgQCu2nd46CI0XoufDCX/j2OC
olHQDc/1tpclQgrv6GU3Q6RMZClZcvockvDpVnrIgujL5i/KBVjkq5zlLGitZE/e
nZmR/ZMjBNLdxSscgHRdZ1zYkDwpERhtWCSP+KhHnpUajG2bdpNQFOfE5449nCIG
WXFb00LVz1qFid4HAMvP4QIDAQABo4IBIjCCAR4wCQYDVR0TBAIwADAdBgNVHQ4E
FgQUscTcARbVoZBZMXyoDzVeMFWwJWQwgc4GA1UdIwSBxjCBw4AUE/pyZ/40BZrJ
PmHSkda6A2UbipqhgZ+kgZwwgZkxCzAJBgNVBAYTAlVTMRAwDgYDVQQIEwdGbG9y
aWRhMRswGQYDVQQHExJQYWxtIEJlYWNoIEdhcmRlbnMxFDASBgNVBAoTC1plcm9D
LCBJbmMuMQwwCgYDVQQLEwNJY2UxGDAWBgNVBAMTD1plcm9DIFRlc3QgQ0EgMTEd
MBsGCSqGSIb3DQEJARYOaW5mb0B6ZXJvYy5jb22CCQDOimftlm9+tjAhBgNVHRIE
GjAYgRBpc3N1ZXJAemVyb2MuY29thwR/AAABMA0GCSqGSIb3DQEBCwUAA4GBAFJF
AVkOwwSZsAWHdE+nIcEj3lqxp2n7Giga/hCVWgOpPHFwNIZQN0kw2mqF1y0HgALJ
NzLt/5IYo4fqu+oLuDEHku22gCM8GpQ5qZTEULkXg95AFYsCudr6lQ5qDncNyQqk
QqhIJ/XFFJC00HFeBsQjaIw9dL5FEFeajESLA3QH
-----END CERTIFICATE-----
