Certificate:
    Data:
        Version: 3 (0x2)
        Serial Number: 1 (0x1)
        Signature Algorithm: sha1WithRSAEncryption
        Issuer: C=US, ST=Florida, L=Palm Beach Gardens, O=ZeroC, Inc., OU=Ice, CN=ZeroC Test CA 1/emailAddress=info@zeroc.com
        Validity
            Not Before: Mar 17 14:50:33 2010 GMT
            Not After : Mar 14 14:50:33 2020 GMT
        Subject: C=US, ST=Florida, O=ZeroC, Inc., OU=Ice/emailAddress=info@zeroc.com, CN=127.0.0.1
        Subject Public Key Info:
            Public Key Algorithm: rsaEncryption
                Public-Key: (1024 bit)
                Modulus:
                    00:d1:fe:d3:44:a1:ff:7e:31:c0:34:52:3f:5b:ef:
                    31:29:fb:b7:09:18:10:37:0e:7b:04:d0:b0:2c:0a:
                    9f:8c:77:ad:48:cb:56:e3:65:ad:db:4f:d8:e0:f3:
                    40:11:a3:7b:2c:d7:58:7a:f7:36:fd:30:46:a0:48:
                    ac:25:13:e0:02:04:a6:db:8d:3e:8d:ec:9b:9c:5e:
                    28:c4:f1:d4:fc:90:2e:24:e7:91:f3:56:8d:d1:27:
                    97:00:ad:76:88:a3:d2:fb:e7:58:18:e8:b8:73:d7:
                    98:2d:62:b1:95:a7:ca:44:86:ef:a4:e4:29:df:5e:
                    53:00:21:de:59:ba:3e:4c:89
                Exponent: 65537 (0x10001)
        X509v3 extensions:
            X509v3 Basic Constraints: 
                CA:FALSE
            X509v3 Subject Key Identifier: 
                71:33:DF:63:B7:1B:F2:3A:F0:97:B2:CE:67:62:E2:53:A9:57:4A:77
            X509v3 Authority Key Identifier: 
                keyid:A2:D9:80:2A:E4:91:8E:0B:85:B7:E4:D5:28:62:4F:C7:C9:8B:E8:D1
                DirName:/C=US/ST=Florida/L=Palm Beach Gardens/O=ZeroC, Inc./OU=Ice/CN=ZeroC Test CA 1/emailAddress=info@zeroc.com
                serial:94:31:70:AC:50:6A:15:99

            X509v3 Issuer Alternative Name: 
                email:issuer@zeroc.com, IP Address:127.0.0.1
    Signature Algorithm: sha1WithRSAEncryption
        9b:b7:97:1a:37:42:4d:27:d6:99:8d:47:43:19:73:39:90:b7:
        d5:b2:fd:3a:ee:24:e3:1f:dc:54:72:01:6f:80:06:70:b9:c4:
        b9:94:1e:25:c3:1f:e7:11:55:66:42:10:1b:7d:d7:88:b8:56:
        11:d8:ce:d3:50:2b:bb:72:c6:83:94:94:51:95:73:1b:10:59:
        7f:89:0b:7a:bb:d1:9b:b9:07:1d:26:87:4d:fb:52:dc:c5:a9:
        f9:d1:6a:a8:8f:85:b2:47:22:8d:4f:af:a7:ff:e9:ee:a8:c8:
        d7:0b:72:b6:d8:be:0f:90:9d:dd:d6:81:2d:ba:a0:2d:ed:1d:
        3b:60
-----BEGIN CERTIFICATE-----
MIIDqjCCAxOgAwIBAgIBATANBgkqhkiG9w0BAQUFADCBmTELMAkGA1UEBhMCVVMx
EDAOBgNVBAgTB0Zsb3JpZGExGzAZBgNVBAcTElBhbG0gQmVhY2ggR2FyZGVuczEU
MBIGA1UEChMLWmVyb0MsIEluYy4xDDAKBgNVBAsTA0ljZTEYMBYGA1UEAxMPWmVy
b0MgVGVzdCBDQSAxMR0wGwYJKoZIhvcNAQkBFg5pbmZvQHplcm9jLmNvbTAeFw0x
MDAzMTcxNDUwMzNaFw0yMDAzMTQxNDUwMzNaMHYxCzAJBgNVBAYTAlVTMRAwDgYD
VQQIEwdGbG9yaWRhMRQwEgYDVQQKEwtaZXJvQywgSW5jLjEMMAoGA1UECxMDSWNl
MR0wGwYJKoZIhvcNAQkBFg5pbmZvQHplcm9jLmNvbTESMBAGA1UEAxMJMTI3LjAu
MC4xMIGfMA0GCSqGSIb3DQEBAQUAA4GNADCBiQKBgQDR/tNEof9+McA0Uj9b7zEp
+7cJGBA3DnsE0LAsCp+Md61Iy1bjZa3bT9jg80ARo3ss11h69zb9MEagSKwlE+AC
BKbbjT6N7JucXijE8dT8kC4k55HzVo3RJ5cArXaIo9L751gY6Lhz15gtYrGVp8pE
hu+k5CnfXlMAId5Zuj5MiQIDAQABo4IBIjCCAR4wCQYDVR0TBAIwADAdBgNVHQ4E
FgQUcTPfY7cb8jrwl7LOZ2LiU6lXSncwgc4GA1UdIwSBxjCBw4AUotmAKuSRjguF
t+TVKGJPx8mL6NGhgZ+kgZwwgZkxCzAJBgNVBAYTAlVTMRAwDgYDVQQIEwdGbG9y
aWRhMRswGQYDVQQHExJQYWxtIEJlYWNoIEdhcmRlbnMxFDASBgNVBAoTC1plcm9D
LCBJbmMuMQwwCgYDVQQLEwNJY2UxGDAWBgNVBAMTD1plcm9DIFRlc3QgQ0EgMTEd
MBsGCSqGSIb3DQEJARYOaW5mb0B6ZXJvYy5jb22CCQCUMXCsUGoVmTAhBgNVHRIE
GjAYgRBpc3N1ZXJAemVyb2MuY29thwR/AAABMA0GCSqGSIb3DQEBBQUAA4GBAJu3
lxo3Qk0n1pmNR0MZczmQt9Wy/TruJOMf3FRyAW+ABnC5xLmUHiXDH+cRVWZCEBt9
14i4VhHYztNQK7tyxoOUlFGVcxsQWX+JC3q70Zu5Bx0mh037UtzFqfnRaqiPhbJH
Io1Pr6f/6e6oyNcLcrbYvg+Qnd3WgS26oC3tHTtg
-----END CERTIFICATE-----
