Certificate:
    Data:
        Version: 3 (0x2)
        Serial Number: 1 (0x1)
        Signature Algorithm: md5WithRSAEncryption
        Issuer: C=US, ST=Florida, L=Palm Beach Gardens, O=ZeroC, Inc., OU=Ice, CN=ZeroC Test CA 1/emailAddress=info@zeroc.com
        Validity
            Not Before: Mar 31 16:55:16 2006 GMT
            Not After : Dec 31 00:00:00 2005 GMT
        Subject: C=US, ST=Florida, O=ZeroC, Inc., OU=Ice/emailAddress=info@zeroc.com, CN=Server
        Subject Public Key Info:
            Public Key Algorithm: rsaEncryption
            RSA Public Key: (1024 bit)
                Modulus (1024 bit):
                    00:b4:6e:64:18:87:ba:bc:5c:be:4b:ab:0a:46:10:
                    a1:79:cf:42:4a:48:83:33:9d:e8:19:43:d6:7e:47:
                    70:ec:28:d8:51:f1:63:a1:3f:2a:23:9d:61:e8:58:
                    16:4c:71:9f:ea:06:7f:26:7c:cf:00:85:8c:08:92:
                    a9:f8:69:12:92:cf:f4:42:8f:bd:7e:55:0d:b9:ea:
                    aa:ee:7c:25:fd:57:59:97:77:05:17:b1:db:4f:f9:
                    88:08:d9:92:9c:0d:15:3a:94:db:9e:d3:21:4c:c8:
                    08:8e:39:f6:5f:4c:39:9b:7e:41:e2:43:78:d3:56:
                    49:90:f9:21:f9:41:10:fc:d5
                Exponent: 65537 (0x10001)
        X509v3 extensions:
            X509v3 Basic Constraints: 
            CA:FALSE
            X509v3 Subject Key Identifier: 
            50:68:AA:BC:BF:6B:0C:86:D6:11:D5:30:2C:DB:DD:48:BA:96:10:F9
            X509v3 Authority Key Identifier: 
            keyid:CB:05:05:F0:3E:A1:4A:A1:CB:07:6F:86:8B:AF:EE:A5:E4:CA:62:BD
            DirName:/C=US/ST=Florida/L=Palm Beach Gardens/O=ZeroC, Inc./OU=Ice/CN=ZeroC Test CA 1/emailAddress=info@zeroc.com
            serial:00

            X509v3 Subject Alternative Name: 
            DNS:server, IP Address:127.0.0.1
    Signature Algorithm: md5WithRSAEncryption
        9a:03:a9:fb:b2:72:37:af:8d:6c:42:e3:b9:11:4e:d2:9f:28:
        36:91:a8:62:91:5c:2e:5c:16:e9:8a:85:e5:b5:d1:d4:05:94:
        fa:c5:49:54:0d:8f:27:9b:aa:42:23:d3:4a:16:d9:03:ed:38:
        59:58:20:cf:56:29:28:a9:70:47:67:72:3e:04:d2:38:7d:e6:
        6c:5c:0c:ba:cf:17:ee:5b:e5:f2:a0:1c:e9:30:56:43:0c:f2:
        6c:a9:7b:43:2b:e5:91:e4:e2:64:29:03:f8:c2:9b:a4:f3:dc:
        38:29:f2:65:12:d4:ec:66:4e:cd:21:43:5c:4a:c8:8b:36:e1:
        0a:28:3d:37:ce:05:06:91:d2:ce:b5:86:1f:79:5a:e7:9c:58:
        78:b5:47:cb:5e:19:37:39:96:4c:ca:e2:32:90:f4:60:db:2c:
        ef:08:41:87:ad:ea:c0:ae:2d:c5:98:de:72:65:bd:9c:cb:83:
        e5:10:ce:a9:5e:19:c2:bd:40:20:58:d9:31:37:8c:f9:1c:4e:
        d0:fb:b4:47:fa:54:91:42:0d:a1:27:74:b8:33:86:a2:29:96:
        b9:0f:4d:b2:6f:fa:d3:c9:37:83:3c:c0:93:27:75:ad:0a:88:
        0f:36:49:9a:12:70:2c:08:e2:1b:f7:08:c5:99:3b:6c:08:f5:
        10:14:10:22
-----BEGIN CERTIFICATE-----
MIIEFjCCAv6gAwIBAgIBATANBgkqhkiG9w0BAQQFADCBmTELMAkGA1UEBhMCVVMx
EDAOBgNVBAgTB0Zsb3JpZGExGzAZBgNVBAcTElBhbG0gQmVhY2ggR2FyZGVuczEU
MBIGA1UEChMLWmVyb0MsIEluYy4xDDAKBgNVBAsTA0ljZTEYMBYGA1UEAxMPWmVy
b0MgVGVzdCBDQSAxMR0wGwYJKoZIhvcNAQkBFg5pbmZvQHplcm9jLmNvbTAeFw0w
NjAzMzExNjU1MTZaFw0wNTEyMzEwMDAwMDBaMHMxCzAJBgNVBAYTAlVTMRAwDgYD
VQQIEwdGbG9yaWRhMRQwEgYDVQQKEwtaZXJvQywgSW5jLjEMMAoGA1UECxMDSWNl
MR0wGwYJKoZIhvcNAQkBFg5pbmZvQHplcm9jLmNvbTEPMA0GA1UEAxMGU2VydmVy
MIGfMA0GCSqGSIb3DQEBAQUAA4GNADCBiQKBgQC0bmQYh7q8XL5LqwpGEKF5z0JK
SIMznegZQ9Z+R3DsKNhR8WOhPyojnWHoWBZMcZ/qBn8mfM8AhYwIkqn4aRKSz/RC
j71+VQ256qrufCX9V1mXdwUXsdtP+YgI2ZKcDRU6lNue0yFMyAiOOfZfTDmbfkHi
Q3jTVkmQ+SH5QRD81QIDAQABo4IBEDCCAQwwCQYDVR0TBAIwADAdBgNVHQ4EFgQU
UGiqvL9rDIbWEdUwLNvdSLqWEPkwgcYGA1UdIwSBvjCBu4AUywUF8D6hSqHLB2+G
i6/upeTKYr2hgZ+kgZwwgZkxCzAJBgNVBAYTAlVTMRAwDgYDVQQIEwdGbG9yaWRh
MRswGQYDVQQHExJQYWxtIEJlYWNoIEdhcmRlbnMxFDASBgNVBAoTC1plcm9DLCBJ
bmMuMQwwCgYDVQQLEwNJY2UxGDAWBgNVBAMTD1plcm9DIFRlc3QgQ0EgMTEdMBsG
CSqGSIb3DQEJARYOaW5mb0B6ZXJvYy5jb22CAQAwFwYDVR0RBBAwDoIGc2VydmVy
hwR/AAABMA0GCSqGSIb3DQEBBAUAA4IBAQCaA6n7snI3r41sQuO5EU7Snyg2kahi
kVwuXBbpioXltdHUBZT6xUlUDY8nm6pCI9NKFtkD7ThZWCDPVikoqXBHZ3I+BNI4
feZsXAy6zxfuW+XyoBzpMFZDDPJsqXtDK+WR5OJkKQP4wpuk89w4KfJlEtTsZk7N
IUNcSsiLNuEKKD03zgUGkdLOtYYfeVrnnFh4tUfLXhk3OZZMyuIykPRg2yzvCEGH
rerAri3FmN5yZb2cy4PlEM6pXhnCvUAgWNkxN4z5HE7Q+7RH+lSRQg2hJ3S4M4ai
KZa5D02yb/rTyTeDPMCTJ3WtCogPNkmaEnAsCOIb9wjFmTtsCPUQFBAi
-----END CERTIFICATE-----
