Certificate:
    Data:
        Version: 3 (0x2)
        Serial Number: 1 (0x1)
        Signature Algorithm: sha1WithRSAEncryption
        Issuer: C=US, ST=Florida, L=Palm Beach Gardens, O=ZeroC, Inc., OU=Ice, CN=ZeroC Test CA 2/emailAddress=info@zeroc.com
        Validity
            Not Before: Mar 17 14:50:34 2010 GMT
            Not After : Mar 14 14:50:34 2020 GMT
        Subject: C=US, ST=Florida, O=ZeroC, Inc., OU=Ice/emailAddress=info@zeroc.com, CN=Server
        Subject Public Key Info:
            Public Key Algorithm: rsaEncryption
                Public-Key: (1024 bit)
                Modulus:
                    00:c7:c1:a3:e0:6b:ba:53:31:6e:26:7c:07:32:cf:
                    60:d0:64:88:33:6d:68:ce:94:94:96:c3:35:38:d9:
                    ff:c1:73:e8:02:45:8a:dd:93:2c:78:f5:bc:ed:f1:
                    cd:db:5d:44:95:07:96:d9:e3:40:57:ba:aa:8d:08:
                    b0:0c:f1:37:ea:f7:ec:84:6e:95:c4:ed:a2:09:d0:
                    54:0d:82:97:f0:38:15:7f:51:53:21:e0:52:2c:37:
                    c7:96:4f:ef:b3:94:97:09:e4:44:49:0e:76:bc:60:
                    b7:76:c6:ca:0e:f1:a8:7c:dd:18:47:9d:6f:6d:6c:
                    29:79:66:2f:97:5a:b9:6d:5f
                Exponent: 65537 (0x10001)
        X509v3 extensions:
            X509v3 Basic Constraints: 
                CA:FALSE
            X509v3 Subject Key Identifier: 
                0E:AA:EF:2E:74:AC:99:9E:19:9F:1B:40:44:17:7D:C9:6B:5F:4B:E6
            X509v3 Authority Key Identifier: 
                keyid:29:71:09:F4:CF:57:4E:F3:3C:2B:7F:49:CE:4F:7F:64:45:CE:5F:05
                DirName:/C=US/ST=Florida/L=Palm Beach Gardens/O=ZeroC, Inc./OU=Ice/CN=ZeroC Test CA 2/emailAddress=info@zeroc.com
                serial:C5:15:C5:DC:84:DB:8A:C9

            X509v3 Subject Alternative Name: 
                DNS:server, IP Address:127.0.0.1
            X509v3 Issuer Alternative Name: 
                email:issuer@zeroc.com, IP Address:127.0.0.1
    Signature Algorithm: sha1WithRSAEncryption
        1e:62:76:df:b4:49:c3:c0:4d:52:64:d4:62:6b:5a:fb:53:db:
        32:f1:01:84:56:3a:b0:00:48:1d:8c:18:1c:04:0f:ec:5f:2c:
        db:f1:dd:b6:93:ba:34:65:82:4f:e7:0d:eb:f5:41:e5:9b:ad:
        b8:0c:0c:7b:fa:e7:7f:ba:c6:b7:23:a3:dd:c9:51:20:f0:60:
        b0:e4:04:4a:9f:0d:73:77:f2:e5:a1:07:1c:7e:4a:e0:9a:87:
        09:9a:00:1f:b5:96:59:70:d1:af:fb:12:c6:e5:64:75:72:f3:
        fc:3e:90:6c:58:8f:49:2b:78:6c:b8:00:a2:af:12:5e:db:bf:
        56:ef
-----BEGIN CERTIFICATE-----
MIIDwDCCAymgAwIBAgIBATANBgkqhkiG9w0BAQUFADCBmTELMAkGA1UEBhMCVVMx
EDAOBgNVBAgTB0Zsb3JpZGExGzAZBgNVBAcTElBhbG0gQmVhY2ggR2FyZGVuczEU
MBIGA1UEChMLWmVyb0MsIEluYy4xDDAKBgNVBAsTA0ljZTEYMBYGA1UEAxMPWmVy
b0MgVGVzdCBDQSAyMR0wGwYJKoZIhvcNAQkBFg5pbmZvQHplcm9jLmNvbTAeFw0x
MDAzMTcxNDUwMzRaFw0yMDAzMTQxNDUwMzRaMHMxCzAJBgNVBAYTAlVTMRAwDgYD
VQQIEwdGbG9yaWRhMRQwEgYDVQQKEwtaZXJvQywgSW5jLjEMMAoGA1UECxMDSWNl
MR0wGwYJKoZIhvcNAQkBFg5pbmZvQHplcm9jLmNvbTEPMA0GA1UEAxMGU2VydmVy
MIGfMA0GCSqGSIb3DQEBAQUAA4GNADCBiQKBgQDHwaPga7pTMW4mfAcyz2DQZIgz
bWjOlJSWwzU42f/Bc+gCRYrdkyx49bzt8c3bXUSVB5bZ40BXuqqNCLAM8Tfq9+yE
bpXE7aIJ0FQNgpfwOBV/UVMh4FIsN8eWT++zlJcJ5ERJDna8YLd2xsoO8ah83RhH
nW9tbCl5Zi+XWrltXwIDAQABo4IBOzCCATcwCQYDVR0TBAIwADAdBgNVHQ4EFgQU
DqrvLnSsmZ4ZnxtARBd9yWtfS+Ywgc4GA1UdIwSBxjCBw4AUKXEJ9M9XTvM8K39J
zk9/ZEXOXwWhgZ+kgZwwgZkxCzAJBgNVBAYTAlVTMRAwDgYDVQQIEwdGbG9yaWRh
MRswGQYDVQQHExJQYWxtIEJlYWNoIEdhcmRlbnMxFDASBgNVBAoTC1plcm9DLCBJ
bmMuMQwwCgYDVQQLEwNJY2UxGDAWBgNVBAMTD1plcm9DIFRlc3QgQ0EgMjEdMBsG
CSqGSIb3DQEJARYOaW5mb0B6ZXJvYy5jb22CCQDFFcXchNuKyTAXBgNVHREEEDAO
ggZzZXJ2ZXKHBH8AAAEwIQYDVR0SBBowGIEQaXNzdWVyQHplcm9jLmNvbYcEfwAA
ATANBgkqhkiG9w0BAQUFAAOBgQAeYnbftEnDwE1SZNRia1r7U9sy8QGEVjqwAEgd
jBgcBA/sXyzb8d22k7o0ZYJP5w3r9UHlm624DAx7+ud/usa3I6PdyVEg8GCw5ARK
nw1zd/LloQccfkrgmocJmgAftZZZcNGv+xLG5WR1cvP8PpBsWI9JK3hsuACirxJe
279W7w==
-----END CERTIFICATE-----
