Certificate:
    Data:
        Version: 3 (0x2)
        Serial Number: 1 (0x1)
        Signature Algorithm: md5WithRSAEncryption
        Issuer: C=US, ST=Florida, L=Palm Beach Gardens, O=ZeroC, Inc., OU=Ice, CN=ZeroC Test CA 1/emailAddress=info@zeroc.com
        Validity
            Not Before: Jul 14 18:25:31 2009 GMT
            Not After : Jul 12 18:25:31 2019 GMT
        Subject: C=US, ST=Florida, O=ZeroC, Inc., OU=Ice/emailAddress=info@zeroc.com, CN=Server
        Subject Public Key Info:
            Public Key Algorithm: rsaEncryption
            RSA Public Key: (1024 bit)
                Modulus (1024 bit):
                    00:b6:6b:ae:d5:e0:b1:0c:c4:88:d3:5e:6f:b1:4f:
                    29:82:dc:5c:b6:1a:33:f7:ac:51:f9:a2:be:25:a9:
                    97:41:c9:7d:55:46:77:47:6b:1b:5a:b7:8b:6b:c3:
                    89:97:7c:12:3f:b5:e5:17:47:d8:95:ca:ed:4b:59:
                    f6:9b:f2:1d:f3:bb:be:0c:3b:12:73:fa:2b:da:e9:
                    54:ea:8f:2e:81:81:19:d2:24:a5:00:88:00:9a:a8:
                    59:15:d3:bd:95:64:50:a5:5f:eb:3f:cc:42:e7:d8:
                    b3:52:d9:41:a3:d9:ef:55:46:98:d7:3a:e3:02:b6:
                    b9:97:63:10:c7:32:3f:99:cf
                Exponent: 65537 (0x10001)
        X509v3 extensions:
            X509v3 Basic Constraints: 
                CA:FALSE
            X509v3 Subject Key Identifier: 
                30:66:A5:D4:7C:CB:83:82:54:46:49:0A:EF:35:2C:34:2C:B3:FC:B8
            X509v3 Authority Key Identifier: 
                keyid:B1:F2:E4:5D:CF:98:23:64:C7:71:1A:F6:CA:8B:35:71:61:CF:F9:A4
                DirName:/C=US/ST=Florida/L=Palm Beach Gardens/O=ZeroC, Inc./OU=Ice/CN=ZeroC Test CA 1/emailAddress=info@zeroc.com
                serial:EE:56:13:BD:34:21:F7:82

            X509v3 Subject Alternative Name: 
                DNS:server, IP Address:127.0.0.1
    Signature Algorithm: md5WithRSAEncryption
        92:0f:0e:e2:92:44:63:c0:dd:7a:03:80:c1:52:52:60:08:5c:
        a7:bd:8b:57:11:d0:9d:b4:f0:1b:42:bb:0d:49:c4:1f:64:a0:
        82:39:cf:e5:6b:ba:d9:b6:38:26:ed:7f:87:7f:73:04:5c:30:
        c9:c7:c1:72:12:5b:7c:07:ef:f0:53:d4:9b:20:a4:f8:c4:b1:
        7e:84:53:7d:be:03:38:06:17:65:07:c5:33:f2:62:95:89:55:
        c9:75:29:81:b9:ef:da:7d:3b:39:97:04:73:d3:7d:b9:b8:83:
        ae:dd:4b:13:a1:f5:e6:05:3c:55:f8:96:57:e3:0c:d5:c4:55:
        e0:7c
-----BEGIN CERTIFICATE-----
MIIDnTCCAwagAwIBAgIBATANBgkqhkiG9w0BAQQFADCBmTELMAkGA1UEBhMCVVMx
EDAOBgNVBAgTB0Zsb3JpZGExGzAZBgNVBAcTElBhbG0gQmVhY2ggR2FyZGVuczEU
MBIGA1UEChMLWmVyb0MsIEluYy4xDDAKBgNVBAsTA0ljZTEYMBYGA1UEAxMPWmVy
b0MgVGVzdCBDQSAxMR0wGwYJKoZIhvcNAQkBFg5pbmZvQHplcm9jLmNvbTAeFw0w
OTA3MTQxODI1MzFaFw0xOTA3MTIxODI1MzFaMHMxCzAJBgNVBAYTAlVTMRAwDgYD
VQQIEwdGbG9yaWRhMRQwEgYDVQQKEwtaZXJvQywgSW5jLjEMMAoGA1UECxMDSWNl
MR0wGwYJKoZIhvcNAQkBFg5pbmZvQHplcm9jLmNvbTEPMA0GA1UEAxMGU2VydmVy
MIGfMA0GCSqGSIb3DQEBAQUAA4GNADCBiQKBgQC2a67V4LEMxIjTXm+xTymC3Fy2
GjP3rFH5or4lqZdByX1VRndHaxtat4trw4mXfBI/teUXR9iVyu1LWfab8h3zu74M
OxJz+iva6VTqjy6BgRnSJKUAiACaqFkV072VZFClX+s/zELn2LNS2UGj2e9VRpjX
OuMCtrmXYxDHMj+ZzwIDAQABo4IBGDCCARQwCQYDVR0TBAIwADAdBgNVHQ4EFgQU
MGal1HzLg4JURkkK7zUsNCyz/Lgwgc4GA1UdIwSBxjCBw4AUsfLkXc+YI2THcRr2
yos1cWHP+aShgZ+kgZwwgZkxCzAJBgNVBAYTAlVTMRAwDgYDVQQIEwdGbG9yaWRh
MRswGQYDVQQHExJQYWxtIEJlYWNoIEdhcmRlbnMxFDASBgNVBAoTC1plcm9DLCBJ
bmMuMQwwCgYDVQQLEwNJY2UxGDAWBgNVBAMTD1plcm9DIFRlc3QgQ0EgMTEdMBsG
CSqGSIb3DQEJARYOaW5mb0B6ZXJvYy5jb22CCQDuVhO9NCH3gjAXBgNVHREEEDAO
ggZzZXJ2ZXKHBH8AAAEwDQYJKoZIhvcNAQEEBQADgYEAkg8O4pJEY8DdegOAwVJS
YAhcp72LVxHQnbTwG0K7DUnEH2SggjnP5Wu62bY4Ju1/h39zBFwwycfBchJbfAfv
8FPUmyCk+MSxfoRTfb4DOAYXZQfFM/JilYlVyXUpgbnv2n07OZcEc9N9ubiDrt1L
E6H15gU8VfiWV+MM1cRV4Hw=
-----END CERTIFICATE-----
