Certificate:
    Data:
        Version: 3 (0x2)
        Serial Number: 1 (0x1)
        Signature Algorithm: md5WithRSAEncryption
        Issuer: C=US, ST=Florida, L=Palm Beach Gardens, O=ZeroC, Inc., OU=Ice, CN=ZeroC Test CA 1/emailAddress=info@zeroc.com
        Validity
            Not Before: Jul 14 18:25:31 2009 GMT
            Not After : Jul 12 18:25:31 2019 GMT
        Subject: C=US, ST=Florida, O=ZeroC, Inc., OU=Ice/emailAddress=info@zeroc.com, CN=127.0.0.1
        Subject Public Key Info:
            Public Key Algorithm: rsaEncryption
            RSA Public Key: (1024 bit)
                Modulus (1024 bit):
                    00:c5:f3:da:1f:7d:ee:ba:0c:b5:f3:ec:0d:ee:ed:
                    98:b7:5c:85:c3:8a:1c:3f:ba:7a:ad:6b:9b:53:f6:
                    88:ba:b2:5a:bb:bf:58:96:e9:d2:e8:c7:63:31:12:
                    18:8c:14:3e:4e:fa:e9:1e:66:61:46:30:21:c5:0f:
                    39:83:cf:a9:8a:2e:21:4b:1c:f3:16:97:be:3c:35:
                    f6:21:05:91:35:25:bc:90:f7:70:6a:f9:87:5c:a7:
                    2c:c7:0e:8b:0f:83:2d:30:a5:f0:2f:a5:11:c0:1a:
                    41:6a:22:01:eb:f0:73:e6:8a:7b:62:f9:47:4a:fe:
                    2e:c9:39:e6:39:0f:21:84:45
                Exponent: 65537 (0x10001)
        X509v3 extensions:
            X509v3 Basic Constraints: 
                CA:FALSE
            X509v3 Subject Key Identifier: 
                3A:76:7A:01:43:05:7E:34:84:E4:1C:2B:D6:87:34:7F:DC:01:A3:D8
            X509v3 Authority Key Identifier: 
                keyid:B1:F2:E4:5D:CF:98:23:64:C7:71:1A:F6:CA:8B:35:71:61:CF:F9:A4
                DirName:/C=US/ST=Florida/L=Palm Beach Gardens/O=ZeroC, Inc./OU=Ice/CN=ZeroC Test CA 1/emailAddress=info@zeroc.com
                serial:EE:56:13:BD:34:21:F7:82

    Signature Algorithm: md5WithRSAEncryption
        6e:21:99:13:7e:04:ad:6a:25:59:41:5d:1c:c8:5e:6d:20:94:
        04:17:4c:6f:22:bd:ae:d3:ab:85:49:06:36:73:5b:64:3f:3b:
        45:f1:5e:db:7d:e4:70:60:79:68:70:45:22:bd:4f:72:c2:f5:
        d6:dd:ea:70:72:6e:19:20:e4:05:37:49:54:09:28:ef:b2:b3:
        0c:f9:c5:6d:28:07:85:75:95:18:4e:66:60:08:99:08:3a:6a:
        29:08:5f:4d:b4:80:64:40:b3:c8:82:06:8f:8b:e0:21:1f:51:
        09:9e:f8:ae:fd:e9:51:45:4f:d2:f8:ef:4b:ad:75:92:38:52:
        dd:f3
-----BEGIN CERTIFICATE-----
MIIDhTCCAu6gAwIBAgIBATANBgkqhkiG9w0BAQQFADCBmTELMAkGA1UEBhMCVVMx
EDAOBgNVBAgTB0Zsb3JpZGExGzAZBgNVBAcTElBhbG0gQmVhY2ggR2FyZGVuczEU
MBIGA1UEChMLWmVyb0MsIEluYy4xDDAKBgNVBAsTA0ljZTEYMBYGA1UEAxMPWmVy
b0MgVGVzdCBDQSAxMR0wGwYJKoZIhvcNAQkBFg5pbmZvQHplcm9jLmNvbTAeFw0w
OTA3MTQxODI1MzFaFw0xOTA3MTIxODI1MzFaMHYxCzAJBgNVBAYTAlVTMRAwDgYD
VQQIEwdGbG9yaWRhMRQwEgYDVQQKEwtaZXJvQywgSW5jLjEMMAoGA1UECxMDSWNl
MR0wGwYJKoZIhvcNAQkBFg5pbmZvQHplcm9jLmNvbTESMBAGA1UEAxMJMTI3LjAu
MC4xMIGfMA0GCSqGSIb3DQEBAQUAA4GNADCBiQKBgQDF89offe66DLXz7A3u7Zi3
XIXDihw/unqta5tT9oi6slq7v1iW6dLox2MxEhiMFD5O+ukeZmFGMCHFDzmDz6mK
LiFLHPMWl748NfYhBZE1JbyQ93Bq+YdcpyzHDosPgy0wpfAvpRHAGkFqIgHr8HPm
inti+UdK/i7JOeY5DyGERQIDAQABo4H+MIH7MAkGA1UdEwQCMAAwHQYDVR0OBBYE
FDp2egFDBX40hOQcK9aHNH/cAaPYMIHOBgNVHSMEgcYwgcOAFLHy5F3PmCNkx3Ea
9sqLNXFhz/mkoYGfpIGcMIGZMQswCQYDVQQGEwJVUzEQMA4GA1UECBMHRmxvcmlk
YTEbMBkGA1UEBxMSUGFsbSBCZWFjaCBHYXJkZW5zMRQwEgYDVQQKEwtaZXJvQywg
SW5jLjEMMAoGA1UECxMDSWNlMRgwFgYDVQQDEw9aZXJvQyBUZXN0IENBIDExHTAb
BgkqhkiG9w0BCQEWDmluZm9AemVyb2MuY29tggkA7lYTvTQh94IwDQYJKoZIhvcN
AQEEBQADgYEAbiGZE34ErWolWUFdHMhebSCUBBdMbyK9rtOrhUkGNnNbZD87RfFe
233kcGB5aHBFIr1PcsL11t3qcHJuGSDkBTdJVAko77KzDPnFbSgHhXWVGE5mYAiZ
CDpqKQhfTbSAZECzyIIGj4vgIR9RCZ74rv3pUUVP0vjvS611kjhS3fM=
-----END CERTIFICATE-----
