Certificate:
    Data:
        Version: 3 (0x2)
        Serial Number: 1 (0x1)
        Signature Algorithm: md5WithRSAEncryption
        Issuer: C=US, ST=Florida, L=Palm Beach Gardens, O=ZeroC, Inc., OU=Ice, CN=ZeroC Test CA 1/emailAddress=info@zeroc.com
        Validity
            Not Before: Jul 14 18:25:31 2009 GMT
            Not After : Jul 12 18:25:31 2019 GMT
        Subject: C=US, ST=Florida, O=ZeroC, Inc., OU=Ice/emailAddress=info@zeroc.com, CN=127.0.0.11
        Subject Public Key Info:
            Public Key Algorithm: rsaEncryption
            RSA Public Key: (1024 bit)
                Modulus (1024 bit):
                    00:db:42:ad:70:c1:6b:df:8e:f8:8c:7d:5e:87:d8:
                    cc:93:ab:7f:7e:90:f9:31:45:d8:df:30:1c:78:2e:
                    b1:8c:5b:16:8c:f1:b7:83:56:93:05:3f:a0:0e:bb:
                    38:75:38:9f:a0:22:97:fc:7e:63:71:d5:fb:d5:6c:
                    97:50:81:bc:d7:f4:17:cc:61:f9:68:d8:a0:6e:61:
                    31:e2:14:6b:58:ad:0e:8d:f9:f5:c4:70:b0:df:4c:
                    2f:28:18:ab:16:ef:be:75:0b:be:76:8d:33:70:8a:
                    5d:27:62:68:79:64:8b:2e:df:3d:98:1d:ee:e1:a0:
                    90:6c:ad:9f:35:3b:26:fb:9b
                Exponent: 65537 (0x10001)
        X509v3 extensions:
            X509v3 Basic Constraints: 
                CA:FALSE
            X509v3 Subject Key Identifier: 
                AC:0A:27:D6:98:88:9B:12:7A:CD:BF:5B:61:82:23:E2:4C:02:7E:02
            X509v3 Authority Key Identifier: 
                keyid:B1:F2:E4:5D:CF:98:23:64:C7:71:1A:F6:CA:8B:35:71:61:CF:F9:A4
                DirName:/C=US/ST=Florida/L=Palm Beach Gardens/O=ZeroC, Inc./OU=Ice/CN=ZeroC Test CA 1/emailAddress=info@zeroc.com
                serial:EE:56:13:BD:34:21:F7:82

    Signature Algorithm: md5WithRSAEncryption
        24:ea:e2:37:a0:e2:56:6f:61:64:97:2d:be:cc:d1:b7:1c:30:
        60:94:b5:d1:de:e9:a2:3e:dd:9f:74:49:b7:9a:2f:54:5f:02:
        98:fe:11:f7:2f:59:67:f1:1a:73:ff:db:c9:de:54:ed:c8:46:
        0c:4b:09:de:95:58:58:8e:d6:d8:d0:14:e4:49:dd:1c:43:d3:
        33:1d:59:d3:4c:85:c1:60:5e:b8:04:2f:ae:13:18:2e:04:dc:
        28:7c:ee:66:09:21:aa:3d:6f:d2:7a:eb:79:4f:8e:a2:7d:aa:
        3b:b5:33:dd:25:19:05:fb:8a:88:e0:79:0b:88:a1:c4:9b:3a:
        33:92
-----BEGIN CERTIFICATE-----
MIIDhjCCAu+gAwIBAgIBATANBgkqhkiG9w0BAQQFADCBmTELMAkGA1UEBhMCVVMx
EDAOBgNVBAgTB0Zsb3JpZGExGzAZBgNVBAcTElBhbG0gQmVhY2ggR2FyZGVuczEU
MBIGA1UEChMLWmVyb0MsIEluYy4xDDAKBgNVBAsTA0ljZTEYMBYGA1UEAxMPWmVy
b0MgVGVzdCBDQSAxMR0wGwYJKoZIhvcNAQkBFg5pbmZvQHplcm9jLmNvbTAeFw0w
OTA3MTQxODI1MzFaFw0xOTA3MTIxODI1MzFaMHcxCzAJBgNVBAYTAlVTMRAwDgYD
VQQIEwdGbG9yaWRhMRQwEgYDVQQKEwtaZXJvQywgSW5jLjEMMAoGA1UECxMDSWNl
MR0wGwYJKoZIhvcNAQkBFg5pbmZvQHplcm9jLmNvbTETMBEGA1UEAxMKMTI3LjAu
MC4xMTCBnzANBgkqhkiG9w0BAQEFAAOBjQAwgYkCgYEA20KtcMFr3474jH1eh9jM
k6t/fpD5MUXY3zAceC6xjFsWjPG3g1aTBT+gDrs4dTifoCKX/H5jcdX71WyXUIG8
1/QXzGH5aNigbmEx4hRrWK0Ojfn1xHCw30wvKBirFu++dQu+do0zcIpdJ2JoeWSL
Lt89mB3u4aCQbK2fNTsm+5sCAwEAAaOB/jCB+zAJBgNVHRMEAjAAMB0GA1UdDgQW
BBSsCifWmIibEnrNv1thgiPiTAJ+AjCBzgYDVR0jBIHGMIHDgBSx8uRdz5gjZMdx
GvbKizVxYc/5pKGBn6SBnDCBmTELMAkGA1UEBhMCVVMxEDAOBgNVBAgTB0Zsb3Jp
ZGExGzAZBgNVBAcTElBhbG0gQmVhY2ggR2FyZGVuczEUMBIGA1UEChMLWmVyb0Ms
IEluYy4xDDAKBgNVBAsTA0ljZTEYMBYGA1UEAxMPWmVyb0MgVGVzdCBDQSAxMR0w
GwYJKoZIhvcNAQkBFg5pbmZvQHplcm9jLmNvbYIJAO5WE700IfeCMA0GCSqGSIb3
DQEBBAUAA4GBACTq4jeg4lZvYWSXLb7M0bccMGCUtdHe6aI+3Z90SbeaL1RfApj+
EfcvWWfxGnP/28neVO3IRgxLCd6VWFiO1tjQFORJ3RxD0zMdWdNMhcFgXrgEL64T
GC4E3Ch87mYJIao9b9J663lPjqJ9qju1M90lGQX7iojgeQuIocSbOjOS
-----END CERTIFICATE-----
