Certificate:
    Data:
        Version: 3 (0x2)
        Serial Number: 1 (0x1)
        Signature Algorithm: md5WithRSAEncryption
        Issuer: C=US, ST=Florida, L=Palm Beach Gardens, O=ZeroC, Inc., OU=Ice, CN=ZeroC Test CA/emailAddress=info@zeroc.com
        Validity
            Not Before: Mar 28 18:09:56 2006 GMT
            Not After : Dec 31 00:00:00 2005 GMT
        Subject: C=US, ST=Florida, O=ZeroC, Inc., OU=Ice/emailAddress=info@zeroc.com, CN=Server
        Subject Public Key Info:
            Public Key Algorithm: rsaEncryption
            RSA Public Key: (1024 bit)
                Modulus (1024 bit):
                    00:c9:1a:95:99:18:67:c1:ac:8d:27:95:22:98:b0:
                    f4:bc:a3:39:6c:11:d6:da:92:dd:62:d0:59:93:8f:
                    41:70:db:03:cf:59:2a:e8:d4:98:31:1a:52:e0:a4:
                    4d:15:3e:e9:ab:58:08:6b:55:07:2f:f5:4b:9a:d5:
                    34:1f:4a:e8:fb:84:1c:1b:a3:fd:eb:17:c3:ef:ab:
                    08:af:0c:ce:db:8f:14:19:61:79:ea:f8:f5:b9:0a:
                    21:b0:ce:f9:ac:df:e0:c7:12:56:2e:ac:f7:e3:26:
                    47:77:1e:5f:c7:fc:2c:0c:1f:51:11:e0:3e:41:31:
                    65:96:54:58:a0:67:44:7b:09
                Exponent: 65537 (0x10001)
        X509v3 extensions:
            X509v3 Basic Constraints: 
            CA:FALSE
            X509v3 Subject Key Identifier: 
            6D:C8:C2:15:B3:15:4C:BE:11:42:AD:60:0F:28:EF:E1:27:C7:5E:5A
            X509v3 Authority Key Identifier: 
            keyid:A3:8D:7D:FF:A8:69:1E:7C:54:58:46:61:FE:B7:68:BC:2C:FC:CB:DE
            DirName:/C=US/ST=Florida/L=Palm Beach Gardens/O=ZeroC, Inc./OU=Ice/CN=ZeroC Test CA/emailAddress=info@zeroc.com
            serial:00

            X509v3 Subject Alternative Name: 
            DNS:server, IP Address:127.0.0.1
    Signature Algorithm: md5WithRSAEncryption
        e5:83:ab:70:ff:ec:a9:e0:7d:6f:9b:4c:7b:ca:a4:1e:ce:50:
        1b:84:29:d8:dc:53:e7:82:33:18:f2:a9:c9:c6:9f:c7:07:cf:
        15:b8:b4:e5:a5:ca:83:45:50:25:69:2a:f0:e4:ae:5c:a5:65:
        99:73:66:9b:38:c2:c0:a4:e2:3e:4b:3e:18:d2:b7:7b:32:03:
        e2:c9:7a:a7:f6:ad:6b:80:12:0c:04:69:fb:5d:76:e8:bd:9d:
        7f:4e:b2:13:24:7a:2b:bb:25:84:5f:f4:2b:62:50:db:28:ea:
        a1:0b:15:e6:bf:b4:21:ef:25:f4:62:7e:99:af:89:6c:81:f8:
        a3:5d:bb:7e:6e:f9:a1:91:ee:59:4a:bb:01:42:87:a9:fe:de:
        75:ab:d1:fc:5c:1a:5f:3b:b5:57:a6:0f:a3:d1:db:eb:c2:e1:
        56:ac:03:12:2d:3a:03:0a:fc:87:a9:1d:09:78:8b:24:78:79:
        9d:52:3d:55:4c:8f:24:76:0e:52:f5:a7:44:13:5d:6f:da:e1:
        56:f6:df:19:e4:4d:5d:3a:d5:6c:87:2a:a2:69:3a:5f:64:d7:
        09:c2:e9:96:d5:a6:eb:b9:cc:1a:d2:7c:a6:3a:50:e4:5e:83:
        3c:10:40:37:85:ae:94:80:d6:03:7b:ac:5d:3c:ca:95:01:b4:
        27:ca:2e:35
-----BEGIN CERTIFICATE-----
MIIEEjCCAvqgAwIBAgIBATANBgkqhkiG9w0BAQQFADCBlzELMAkGA1UEBhMCVVMx
EDAOBgNVBAgTB0Zsb3JpZGExGzAZBgNVBAcTElBhbG0gQmVhY2ggR2FyZGVuczEU
MBIGA1UEChMLWmVyb0MsIEluYy4xDDAKBgNVBAsTA0ljZTEWMBQGA1UEAxMNWmVy
b0MgVGVzdCBDQTEdMBsGCSqGSIb3DQEJARYOaW5mb0B6ZXJvYy5jb20wHhcNMDYw
MzI4MTgwOTU2WhcNMDUxMjMxMDAwMDAwWjBzMQswCQYDVQQGEwJVUzEQMA4GA1UE
CBMHRmxvcmlkYTEUMBIGA1UEChMLWmVyb0MsIEluYy4xDDAKBgNVBAsTA0ljZTEd
MBsGCSqGSIb3DQEJARYOaW5mb0B6ZXJvYy5jb20xDzANBgNVBAMTBlNlcnZlcjCB
nzANBgkqhkiG9w0BAQEFAAOBjQAwgYkCgYEAyRqVmRhnwayNJ5UimLD0vKM5bBHW
2pLdYtBZk49BcNsDz1kq6NSYMRpS4KRNFT7pq1gIa1UHL/VLmtU0H0ro+4QcG6P9
6xfD76sIrwzO248UGWF56vj1uQohsM75rN/gxxJWLqz34yZHdx5fx/wsDB9REeA+
QTFlllRYoGdEewkCAwEAAaOCAQ4wggEKMAkGA1UdEwQCMAAwHQYDVR0OBBYEFG3I
whWzFUy+EUKtYA8o7+Enx15aMIHEBgNVHSMEgbwwgbmAFKONff+oaR58VFhGYf63
aLws/MveoYGdpIGaMIGXMQswCQYDVQQGEwJVUzEQMA4GA1UECBMHRmxvcmlkYTEb
MBkGA1UEBxMSUGFsbSBCZWFjaCBHYXJkZW5zMRQwEgYDVQQKEwtaZXJvQywgSW5j
LjEMMAoGA1UECxMDSWNlMRYwFAYDVQQDEw1aZXJvQyBUZXN0IENBMR0wGwYJKoZI
hvcNAQkBFg5pbmZvQHplcm9jLmNvbYIBADAXBgNVHREEEDAOggZzZXJ2ZXKHBH8A
AAEwDQYJKoZIhvcNAQEEBQADggEBAOWDq3D/7KngfW+bTHvKpB7OUBuEKdjcU+eC
MxjyqcnGn8cHzxW4tOWlyoNFUCVpKvDkrlylZZlzZps4wsCk4j5LPhjSt3syA+LJ
eqf2rWuAEgwEaftddui9nX9OshMkeiu7JYRf9CtiUNso6qELFea/tCHvJfRifpmv
iWyB+KNdu35u+aGR7llKuwFCh6n+3nWr0fxcGl87tVemD6PR2+vC4VasAxItOgMK
/IepHQl4iyR4eZ1SPVVMjyR2DlL1p0QTXW/a4Vb23xnkTV061WyHKqJpOl9k1wnC
6ZbVpuu5zBrSfKY6UORegzwQQDeFrpSA1gN7rF08ypUBtCfKLjU=
-----END CERTIFICATE-----
