Certificate:
    Data:
        Version: 3 (0x2)
        Serial Number: 1 (0x1)
    Signature Algorithm: sha256WithRSAEncryption
        Issuer: C=US, ST=Florida, L=Palm Beach Gardens, O=ZeroC, Inc., OU=Ice, CN=ZeroC Test CA 1/emailAddress=info@zeroc.com
        Validity
            Not Before: Aug 19 14:40:37 2014 GMT
            Not After : Aug 16 14:40:37 2024 GMT
        Subject: C=US, ST=Florida, O=ZeroC, Inc., OU=Ice/emailAddress=info@zeroc.com, CN=127.0.0.11
        Subject Public Key Info:
            Public Key Algorithm: rsaEncryption
                Public-Key: (1024 bit)
                Modulus:
                    00:ce:90:36:5e:de:7f:9a:80:48:d5:e4:60:e1:e1:
                    e3:32:8c:e0:67:57:03:78:bc:c5:6d:9a:0a:78:5d:
                    8d:66:d3:9d:d7:d6:96:ba:a4:c1:3c:e7:e8:41:cb:
                    46:3e:e0:2e:d3:32:90:c6:ba:95:b3:1d:bb:50:f2:
                    a6:49:06:f4:8c:f0:4c:52:6e:0a:22:91:5f:86:a7:
                    ed:1d:8b:29:fc:e3:b4:72:78:9d:ae:a3:51:64:58:
                    9a:ee:82:30:dd:8d:ad:fc:39:8a:13:27:b2:4a:9b:
                    cd:b9:78:14:d9:b2:79:af:59:e5:26:ca:4f:24:ce:
                    33:bb:e7:48:8c:84:f2:bd:81
                Exponent: 65537 (0x10001)
        X509v3 extensions:
            X509v3 Basic Constraints: 
                CA:FALSE
            X509v3 Subject Key Identifier: 
                BA:FC:0E:C3:70:34:B5:AC:30:A2:B7:3B:CB:47:5E:24:4E:B8:51:16
            X509v3 Authority Key Identifier: 
                keyid:13:FA:72:67:FE:34:05:9A:C9:3E:61:D2:91:D6:BA:03:65:1B:8A:9A
                DirName:/C=US/ST=Florida/L=Palm Beach Gardens/O=ZeroC, Inc./OU=Ice/CN=ZeroC Test CA 1/emailAddress=info@zeroc.com
                serial:CE:8A:67:ED:96:6F:7E:B6

            X509v3 Issuer Alternative Name: 
                email:issuer@zeroc.com, IP Address:127.0.0.1
    Signature Algorithm: sha256WithRSAEncryption
         53:fb:d0:7d:aa:83:23:f8:1b:30:60:27:54:7f:60:f4:ca:83:
         cd:a5:9a:65:78:ee:c4:50:a3:1e:88:fa:aa:a2:6d:71:5a:70:
         92:fa:59:06:44:c4:70:1b:c9:32:a0:3c:0f:48:1c:06:1f:61:
         b9:70:97:4e:6a:cb:e9:68:c8:fd:55:40:0a:c4:ea:08:a7:91:
         8d:bc:81:40:d6:a5:56:bc:e8:cf:8a:3b:cc:e4:4e:36:57:f0:
         14:56:6e:6f:1b:66:d3:61:e0:df:29:2d:1d:d0:1f:ac:80:2b:
         e2:d0:a9:94:26:ea:c0:a5:09:53:5d:cd:2c:e4:a6:18:f4:13:
         9e:cc
-----BEGIN CERTIFICATE-----
MIIDqzCCAxSgAwIBAgIBATANBgkqhkiG9w0BAQsFADCBmTELMAkGA1UEBhMCVVMx
EDAOBgNVBAgTB0Zsb3JpZGExGzAZBgNVBAcTElBhbG0gQmVhY2ggR2FyZGVuczEU
MBIGA1UEChMLWmVyb0MsIEluYy4xDDAKBgNVBAsTA0ljZTEYMBYGA1UEAxMPWmVy
b0MgVGVzdCBDQSAxMR0wGwYJKoZIhvcNAQkBFg5pbmZvQHplcm9jLmNvbTAeFw0x
NDA4MTkxNDQwMzdaFw0yNDA4MTYxNDQwMzdaMHcxCzAJBgNVBAYTAlVTMRAwDgYD
VQQIEwdGbG9yaWRhMRQwEgYDVQQKEwtaZXJvQywgSW5jLjEMMAoGA1UECxMDSWNl
MR0wGwYJKoZIhvcNAQkBFg5pbmZvQHplcm9jLmNvbTETMBEGA1UEAxMKMTI3LjAu
MC4xMTCBnzANBgkqhkiG9w0BAQEFAAOBjQAwgYkCgYEAzpA2Xt5/moBI1eRg4eHj
MozgZ1cDeLzFbZoKeF2NZtOd19aWuqTBPOfoQctGPuAu0zKQxrqVsx27UPKmSQb0
jPBMUm4KIpFfhqftHYsp/OO0cnidrqNRZFia7oIw3Y2t/DmKEyeySpvNuXgU2bJ5
r1nlJspPJM4zu+dIjITyvYECAwEAAaOCASIwggEeMAkGA1UdEwQCMAAwHQYDVR0O
BBYEFLr8DsNwNLWsMKK3O8tHXiROuFEWMIHOBgNVHSMEgcYwgcOAFBP6cmf+NAWa
yT5h0pHWugNlG4qaoYGfpIGcMIGZMQswCQYDVQQGEwJVUzEQMA4GA1UECBMHRmxv
cmlkYTEbMBkGA1UEBxMSUGFsbSBCZWFjaCBHYXJkZW5zMRQwEgYDVQQKEwtaZXJv
QywgSW5jLjEMMAoGA1UECxMDSWNlMRgwFgYDVQQDEw9aZXJvQyBUZXN0IENBIDEx
HTAbBgkqhkiG9w0BCQEWDmluZm9AemVyb2MuY29tggkAzopn7ZZvfrYwIQYDVR0S
BBowGIEQaXNzdWVyQHplcm9jLmNvbYcEfwAAATANBgkqhkiG9w0BAQsFAAOBgQBT
+9B9qoMj+BswYCdUf2D0yoPNpZpleO7EUKMeiPqqom1xWnCS+lkGRMRwG8kyoDwP
SBwGH2G5cJdOasvpaMj9VUAKxOoIp5GNvIFA1qVWvOjPijvM5E42V/AUVm5vG2bT
YeDfKS0d0B+sgCvi0KmUJurApQlTXc0s5KYY9BOezA==
-----END CERTIFICATE-----
