Certificate:
    Data:
        Version: 3 (0x2)
        Serial Number: 1 (0x1)
        Signature Algorithm: md5WithRSAEncryption
        Issuer: C=US, ST=Florida, L=Palm Beach Gardens, O=ZeroC, Inc., OU=Ice, CN=ZeroC Test CA 1/emailAddress=info@zeroc.com
        Validity
            Not Before: Sep 23 15:11:16 2009 GMT
            Not After : Sep 21 15:11:16 2019 GMT
        Subject: C=US, ST=Florida, O=ZeroC, Inc., OU=Ice/emailAddress=info@zeroc.com, CN=127.0.0.11
        Subject Public Key Info:
            Public Key Algorithm: rsaEncryption
            RSA Public Key: (1024 bit)
                Modulus (1024 bit):
                    00:a7:1c:13:33:92:0b:ef:74:bc:8e:9b:49:70:39:
                    5f:c5:73:ee:28:98:66:47:5e:d9:62:08:96:d4:a0:
                    3f:44:17:1f:05:19:66:d3:fe:ae:92:9b:80:68:b2:
                    e7:59:3e:03:6a:29:fe:10:9f:cb:26:52:31:df:bc:
                    19:0c:c0:e6:ba:95:d3:e0:70:db:d3:7c:7d:b1:12:
                    3c:3e:0d:54:e9:b4:0c:c4:fd:86:a7:5a:05:14:c6:
                    54:c4:1d:e2:f8:e5:a3:5c:87:ee:64:ee:66:e7:3e:
                    72:0b:c8:a2:ec:2d:34:9e:ea:3a:18:38:63:a4:7f:
                    f2:3f:ef:56:59:82:14:be:45
                Exponent: 65537 (0x10001)
        X509v3 extensions:
            X509v3 Basic Constraints: 
                CA:FALSE
            X509v3 Subject Key Identifier: 
                BD:B6:A8:0A:3E:20:FB:B7:EA:5F:A4:A4:0C:87:E2:25:FF:8E:3D:7B
            X509v3 Authority Key Identifier: 
                keyid:28:11:80:FD:88:57:63:47:6B:C0:BA:A6:CE:3A:C7:C4:7F:73:31:25
                DirName:/C=US/ST=Florida/L=Palm Beach Gardens/O=ZeroC, Inc./OU=Ice/CN=ZeroC Test CA 1/emailAddress=info@zeroc.com
                serial:DD:26:15:4D:4C:3F:B6:11

            X509v3 Issuer Alternative Name: 
                email:issuer@zeroc.com, IP Address:127.0.0.1
    Signature Algorithm: md5WithRSAEncryption
        37:32:0b:5a:0e:eb:eb:34:c2:e4:ea:00:ae:5e:3c:ae:d2:2a:
        57:3a:9a:7a:22:12:b9:d7:f2:6a:ee:f8:92:66:44:1f:af:89:
        af:41:0e:af:d6:a8:1c:3b:57:c0:6f:f6:d0:2a:70:5a:24:09:
        e4:fd:8f:7c:41:43:06:a4:da:58:f9:11:0b:dc:7e:50:8e:3d:
        1a:f2:39:9f:6f:4a:26:3f:15:f0:58:65:da:18:85:54:87:d8:
        e9:14:45:e8:b3:1e:1d:37:08:c7:6c:bc:bd:80:ef:05:3e:cd:
        3b:21:32:52:ff:b9:5f:2a:d8:d0:99:03:17:3b:47:50:ee:75:
        96:ac
-----BEGIN CERTIFICATE-----
MIIDqzCCAxSgAwIBAgIBATANBgkqhkiG9w0BAQQFADCBmTELMAkGA1UEBhMCVVMx
EDAOBgNVBAgTB0Zsb3JpZGExGzAZBgNVBAcTElBhbG0gQmVhY2ggR2FyZGVuczEU
MBIGA1UEChMLWmVyb0MsIEluYy4xDDAKBgNVBAsTA0ljZTEYMBYGA1UEAxMPWmVy
b0MgVGVzdCBDQSAxMR0wGwYJKoZIhvcNAQkBFg5pbmZvQHplcm9jLmNvbTAeFw0w
OTA5MjMxNTExMTZaFw0xOTA5MjExNTExMTZaMHcxCzAJBgNVBAYTAlVTMRAwDgYD
VQQIEwdGbG9yaWRhMRQwEgYDVQQKEwtaZXJvQywgSW5jLjEMMAoGA1UECxMDSWNl
MR0wGwYJKoZIhvcNAQkBFg5pbmZvQHplcm9jLmNvbTETMBEGA1UEAxMKMTI3LjAu
MC4xMTCBnzANBgkqhkiG9w0BAQEFAAOBjQAwgYkCgYEApxwTM5IL73S8jptJcDlf
xXPuKJhmR17ZYgiW1KA/RBcfBRlm0/6ukpuAaLLnWT4Dain+EJ/LJlIx37wZDMDm
upXT4HDb03x9sRI8Pg1U6bQMxP2Gp1oFFMZUxB3i+OWjXIfuZO5m5z5yC8ii7C00
nuo6GDhjpH/yP+9WWYIUvkUCAwEAAaOCASIwggEeMAkGA1UdEwQCMAAwHQYDVR0O
BBYEFL22qAo+IPu36l+kpAyH4iX/jj17MIHOBgNVHSMEgcYwgcOAFCgRgP2IV2NH
a8C6ps46x8R/czEloYGfpIGcMIGZMQswCQYDVQQGEwJVUzEQMA4GA1UECBMHRmxv
cmlkYTEbMBkGA1UEBxMSUGFsbSBCZWFjaCBHYXJkZW5zMRQwEgYDVQQKEwtaZXJv
QywgSW5jLjEMMAoGA1UECxMDSWNlMRgwFgYDVQQDEw9aZXJvQyBUZXN0IENBIDEx
HTAbBgkqhkiG9w0BCQEWDmluZm9AemVyb2MuY29tggkA3SYVTUw/thEwIQYDVR0S
BBowGIEQaXNzdWVyQHplcm9jLmNvbYcEfwAAATANBgkqhkiG9w0BAQQFAAOBgQA3
MgtaDuvrNMLk6gCuXjyu0ipXOpp6IhK51/Jq7viSZkQfr4mvQQ6v1qgcO1fAb/bQ
KnBaJAnk/Y98QUMGpNpY+REL3H5Qjj0a8jmfb0omPxXwWGXaGIVUh9jpFEXosx4d
NwjHbLy9gO8FPs07ITJS/7lfKtjQmQMXO0dQ7nWWrA==
-----END CERTIFICATE-----
