Certificate:
    Data:
        Version: 3 (0x2)
        Serial Number: 1 (0x1)
        Signature Algorithm: md5WithRSAEncryption
        Issuer: C=US, ST=Florida, L=Palm Beach Gardens, O=ZeroC, Inc., OU=Ice, CN=ZeroC Test CA 1/emailAddress=info@zeroc.com
        Validity
            Not Before: Sep 23 15:11:16 2009 GMT
            Not After : Sep 21 15:11:16 2019 GMT
        Subject: C=US, ST=Florida, O=ZeroC, Inc., OU=Ice/emailAddress=info@zeroc.com, CN=127.0.0.1
        Subject Public Key Info:
            Public Key Algorithm: rsaEncryption
            RSA Public Key: (1024 bit)
                Modulus (1024 bit):
                    00:c2:91:25:5c:08:32:43:50:82:91:4a:26:d9:eb:
                    ad:8e:50:9c:eb:85:65:2d:bc:46:a7:fa:c2:59:25:
                    53:9f:d3:f3:28:e6:62:4f:0c:8a:44:8e:a2:0f:97:
                    be:88:db:3f:68:8a:50:43:e6:ac:af:90:2c:99:4a:
                    39:6f:09:5e:26:06:a3:5d:26:2d:61:f1:a9:d9:d4:
                    da:a0:03:61:fb:f1:16:2c:eb:3f:9a:b2:4a:b6:98:
                    31:5f:6d:da:c9:68:1e:97:6a:d2:e8:97:24:ef:f0:
                    c5:7f:5e:ab:95:ee:1f:06:fb:b1:fd:27:ad:96:54:
                    c4:47:19:2f:c3:e2:6a:3e:c5
                Exponent: 65537 (0x10001)
        X509v3 extensions:
            X509v3 Basic Constraints: 
                CA:FALSE
            X509v3 Subject Key Identifier: 
                29:4A:1D:8D:4E:95:F0:AF:47:0A:DD:6A:1E:6F:87:14:1B:0F:E3:E2
            X509v3 Authority Key Identifier: 
                keyid:28:11:80:FD:88:57:63:47:6B:C0:BA:A6:CE:3A:C7:C4:7F:73:31:25
                DirName:/C=US/ST=Florida/L=Palm Beach Gardens/O=ZeroC, Inc./OU=Ice/CN=ZeroC Test CA 1/emailAddress=info@zeroc.com
                serial:DD:26:15:4D:4C:3F:B6:11

            X509v3 Issuer Alternative Name: 
                email:issuer@zeroc.com, IP Address:127.0.0.1
    Signature Algorithm: md5WithRSAEncryption
        be:e1:9c:9c:e0:40:6a:b0:ed:cc:fb:06:82:17:b7:6d:8f:ea:
        92:d1:0c:da:65:e8:b0:23:36:d5:b5:32:6f:f8:78:f1:c2:5d:
        41:a3:f7:d8:be:c8:25:ce:8a:5a:4c:56:6a:a8:2a:b6:75:5b:
        7c:f0:78:46:23:e1:ff:b8:c7:f7:a8:28:3c:76:a1:07:f4:5a:
        5a:e9:5c:68:67:75:de:be:a9:59:cd:55:4e:2f:64:2b:5f:96:
        96:14:4c:8a:16:a8:a2:f2:7c:a9:f6:c3:9f:ae:fc:f9:e0:10:
        05:d9:eb:9c:d0:95:8a:ca:53:0b:6b:2f:a1:43:0c:cc:d3:93:
        c5:14
-----BEGIN CERTIFICATE-----
MIIDqjCCAxOgAwIBAgIBATANBgkqhkiG9w0BAQQFADCBmTELMAkGA1UEBhMCVVMx
EDAOBgNVBAgTB0Zsb3JpZGExGzAZBgNVBAcTElBhbG0gQmVhY2ggR2FyZGVuczEU
MBIGA1UEChMLWmVyb0MsIEluYy4xDDAKBgNVBAsTA0ljZTEYMBYGA1UEAxMPWmVy
b0MgVGVzdCBDQSAxMR0wGwYJKoZIhvcNAQkBFg5pbmZvQHplcm9jLmNvbTAeFw0w
OTA5MjMxNTExMTZaFw0xOTA5MjExNTExMTZaMHYxCzAJBgNVBAYTAlVTMRAwDgYD
VQQIEwdGbG9yaWRhMRQwEgYDVQQKEwtaZXJvQywgSW5jLjEMMAoGA1UECxMDSWNl
MR0wGwYJKoZIhvcNAQkBFg5pbmZvQHplcm9jLmNvbTESMBAGA1UEAxMJMTI3LjAu
MC4xMIGfMA0GCSqGSIb3DQEBAQUAA4GNADCBiQKBgQDCkSVcCDJDUIKRSibZ662O
UJzrhWUtvEan+sJZJVOf0/Mo5mJPDIpEjqIPl76I2z9oilBD5qyvkCyZSjlvCV4m
BqNdJi1h8anZ1NqgA2H78RYs6z+askq2mDFfbdrJaB6XatLolyTv8MV/XquV7h8G
+7H9J62WVMRHGS/D4mo+xQIDAQABo4IBIjCCAR4wCQYDVR0TBAIwADAdBgNVHQ4E
FgQUKUodjU6V8K9HCt1qHm+HFBsP4+Iwgc4GA1UdIwSBxjCBw4AUKBGA/YhXY0dr
wLqmzjrHxH9zMSWhgZ+kgZwwgZkxCzAJBgNVBAYTAlVTMRAwDgYDVQQIEwdGbG9y
aWRhMRswGQYDVQQHExJQYWxtIEJlYWNoIEdhcmRlbnMxFDASBgNVBAoTC1plcm9D
LCBJbmMuMQwwCgYDVQQLEwNJY2UxGDAWBgNVBAMTD1plcm9DIFRlc3QgQ0EgMTEd
MBsGCSqGSIb3DQEJARYOaW5mb0B6ZXJvYy5jb22CCQDdJhVNTD+2ETAhBgNVHRIE
GjAYgRBpc3N1ZXJAemVyb2MuY29thwR/AAABMA0GCSqGSIb3DQEBBAUAA4GBAL7h
nJzgQGqw7cz7BoIXt22P6pLRDNpl6LAjNtW1Mm/4ePHCXUGj99i+yCXOilpMVmqo
KrZ1W3zweEYj4f+4x/eoKDx2oQf0WlrpXGhndd6+qVnNVU4vZCtflpYUTIoWqKLy
fKn2w5+u/PngEAXZ65zQlYrKUwtrL6FDDMzTk8UU
-----END CERTIFICATE-----
