Certificate:
    Data:
        Version: 3 (0x2)
        Serial Number: 1 (0x1)
        Signature Algorithm: sha1WithRSAEncryption
        Issuer: C=US, ST=Florida, L=Palm Beach Gardens, O=ZeroC, Inc., OU=Ice, CN=ZeroC Test CA 1/emailAddress=info@zeroc.com
        Validity
            Not Before: Mar 17 14:50:33 2010 GMT
            Not After : Mar 14 14:50:33 2020 GMT
        Subject: C=US, ST=Florida, O=ZeroC, Inc., OU=Ice/emailAddress=info@zeroc.com, CN=Server
        Subject Public Key Info:
            Public Key Algorithm: rsaEncryption
                Public-Key: (1024 bit)
                Modulus:
                    00:dd:ff:45:ed:21:09:d6:4b:91:3e:c3:71:28:0b:
                    5e:92:40:da:80:5c:c7:0f:7b:3c:65:cb:1a:06:16:
                    5b:71:0f:e4:83:2a:42:3b:6b:46:10:3c:77:18:96:
                    5a:7f:e2:f3:90:59:3d:d6:aa:4e:d6:e6:10:13:18:
                    10:be:97:99:8a:fc:dd:c5:6a:69:ff:c2:9b:8e:eb:
                    1f:48:ee:b1:d5:fa:90:aa:9a:b7:a7:73:9e:e0:c9:
                    1b:dc:f9:13:e4:67:8a:ae:ef:0f:00:4a:e8:85:09:
                    99:2e:75:ce:27:47:ea:bb:fe:0f:8b:d7:58:71:8a:
                    ab:61:84:64:75:8a:59:de:ed
                Exponent: 65537 (0x10001)
        X509v3 extensions:
            X509v3 Basic Constraints: 
                CA:FALSE
            X509v3 Subject Key Identifier: 
                6B:53:95:D2:AA:F0:D3:F7:22:D3:D1:39:CD:8A:8D:19:C7:11:84:5C
            X509v3 Authority Key Identifier: 
                keyid:A2:D9:80:2A:E4:91:8E:0B:85:B7:E4:D5:28:62:4F:C7:C9:8B:E8:D1
                DirName:/C=US/ST=Florida/L=Palm Beach Gardens/O=ZeroC, Inc./OU=Ice/CN=ZeroC Test CA 1/emailAddress=info@zeroc.com
                serial:94:31:70:AC:50:6A:15:99

            X509v3 Subject Alternative Name: 
                DNS:server, IP Address:127.0.0.1
            X509v3 Issuer Alternative Name: 
                email:issuer@zeroc.com, IP Address:127.0.0.1
    Signature Algorithm: sha1WithRSAEncryption
        14:35:61:b4:ac:49:96:67:a4:07:38:ba:16:6a:6a:bf:82:0b:
        c7:f3:2b:94:4b:24:a6:89:aa:c9:51:b9:d4:57:fd:3f:37:60:
        28:12:a7:15:b7:18:18:c0:55:b9:32:bd:f8:58:ca:7a:b6:45:
        28:73:00:a5:43:3a:7d:ee:6b:64:a8:c2:7c:ad:c9:24:31:0b:
        30:92:54:35:86:4b:3c:f5:8b:f2:50:87:77:52:1b:6a:d5:84:
        fa:d0:03:7e:5b:17:7d:27:17:1e:b2:6e:2c:47:07:7b:36:1c:
        50:5a:3b:bd:ae:2d:3b:c5:1d:11:84:d1:5d:f3:73:fc:be:a0:
        f9:a7
-----BEGIN CERTIFICATE-----
MIIDwDCCAymgAwIBAgIBATANBgkqhkiG9w0BAQUFADCBmTELMAkGA1UEBhMCVVMx
EDAOBgNVBAgTB0Zsb3JpZGExGzAZBgNVBAcTElBhbG0gQmVhY2ggR2FyZGVuczEU
MBIGA1UEChMLWmVyb0MsIEluYy4xDDAKBgNVBAsTA0ljZTEYMBYGA1UEAxMPWmVy
b0MgVGVzdCBDQSAxMR0wGwYJKoZIhvcNAQkBFg5pbmZvQHplcm9jLmNvbTAeFw0x
MDAzMTcxNDUwMzNaFw0yMDAzMTQxNDUwMzNaMHMxCzAJBgNVBAYTAlVTMRAwDgYD
VQQIEwdGbG9yaWRhMRQwEgYDVQQKEwtaZXJvQywgSW5jLjEMMAoGA1UECxMDSWNl
MR0wGwYJKoZIhvcNAQkBFg5pbmZvQHplcm9jLmNvbTEPMA0GA1UEAxMGU2VydmVy
MIGfMA0GCSqGSIb3DQEBAQUAA4GNADCBiQKBgQDd/0XtIQnWS5E+w3EoC16SQNqA
XMcPezxlyxoGFltxD+SDKkI7a0YQPHcYllp/4vOQWT3Wqk7W5hATGBC+l5mK/N3F
amn/wpuO6x9I7rHV+pCqmrenc57gyRvc+RPkZ4qu7w8ASuiFCZkudc4nR+q7/g+L
11hxiqthhGR1ilne7QIDAQABo4IBOzCCATcwCQYDVR0TBAIwADAdBgNVHQ4EFgQU
a1OV0qrw0/ci09E5zYqNGccRhFwwgc4GA1UdIwSBxjCBw4AUotmAKuSRjguFt+TV
KGJPx8mL6NGhgZ+kgZwwgZkxCzAJBgNVBAYTAlVTMRAwDgYDVQQIEwdGbG9yaWRh
MRswGQYDVQQHExJQYWxtIEJlYWNoIEdhcmRlbnMxFDASBgNVBAoTC1plcm9DLCBJ
bmMuMQwwCgYDVQQLEwNJY2UxGDAWBgNVBAMTD1plcm9DIFRlc3QgQ0EgMTEdMBsG
CSqGSIb3DQEJARYOaW5mb0B6ZXJvYy5jb22CCQCUMXCsUGoVmTAXBgNVHREEEDAO
ggZzZXJ2ZXKHBH8AAAEwIQYDVR0SBBowGIEQaXNzdWVyQHplcm9jLmNvbYcEfwAA
ATANBgkqhkiG9w0BAQUFAAOBgQAUNWG0rEmWZ6QHOLoWamq/ggvH8yuUSySmiarJ
UbnUV/0/N2AoEqcVtxgYwFW5Mr34WMp6tkUocwClQzp97mtkqMJ8rckkMQswklQ1
hks89YvyUId3Uhtq1YT60AN+Wxd9Jxcesm4sRwd7NhxQWju9ri07xR0RhNFd83P8
vqD5pw==
-----END CERTIFICATE-----
