Certificate:
    Data:
        Version: 3 (0x2)
        Serial Number: 1 (0x1)
        Signature Algorithm: md5WithRSAEncryption
        Issuer: C=US, ST=Florida, L=Palm Beach Gardens, O=ZeroC, Inc., OU=Ice, CN=ZeroC Test CA 1/emailAddress=info@zeroc.com
        Validity
            Not Before: Mar 31 16:55:15 2006 GMT
            Not After : Mar 28 16:55:15 2016 GMT
        Subject: C=US, ST=Florida, O=ZeroC, Inc., OU=Ice/emailAddress=info@zeroc.com, CN=Server
        Subject Public Key Info:
            Public Key Algorithm: rsaEncryption
            RSA Public Key: (1024 bit)
                Modulus (1024 bit):
                    00:cf:bf:3b:7f:e8:3f:63:fb:df:f1:d3:32:5d:ac:
                    df:e1:b4:5a:ff:24:ea:fd:44:0f:4f:80:84:41:79:
                    9d:41:d6:40:0a:c8:ae:dd:a3:e5:e9:e8:c6:f5:91:
                    0a:c2:1b:de:11:da:24:07:1b:2b:0b:4b:1e:bf:1e:
                    fb:4d:36:f3:5a:ff:ed:56:70:89:f9:e2:03:41:e2:
                    2d:da:ea:c9:98:dc:3d:76:56:32:9e:c0:71:95:11:
                    8d:14:2f:47:8b:26:b2:f0:ec:0f:48:e7:d9:0d:39:
                    87:95:d5:45:e2:2e:d3:d6:f2:0f:28:de:56:e4:6c:
                    47:2e:f0:e1:e9:43:a6:31:bb
                Exponent: 65537 (0x10001)
        X509v3 extensions:
            X509v3 Basic Constraints: 
            CA:FALSE
            X509v3 Subject Key Identifier: 
            14:03:2F:7E:8C:1F:85:45:97:FE:D0:CD:39:44:32:0F:BE:D9:2C:F8
            X509v3 Authority Key Identifier: 
            keyid:CB:05:05:F0:3E:A1:4A:A1:CB:07:6F:86:8B:AF:EE:A5:E4:CA:62:BD
            DirName:/C=US/ST=Florida/L=Palm Beach Gardens/O=ZeroC, Inc./OU=Ice/CN=ZeroC Test CA 1/emailAddress=info@zeroc.com
            serial:00

            X509v3 Subject Alternative Name: 
            DNS:server, IP Address:127.0.0.1
    Signature Algorithm: md5WithRSAEncryption
        52:4b:0b:77:3e:33:bb:c3:78:15:0f:de:3f:e1:51:16:b9:57:
        ff:c7:9d:d1:b8:fa:4e:1e:96:23:19:c4:e9:17:94:03:2a:a5:
        b4:c8:d2:41:13:07:9f:b0:66:40:68:69:90:dc:aa:86:8c:32:
        c4:1d:7c:54:e5:e0:d3:27:7e:94:a7:86:9c:39:ff:3c:48:56:
        ed:1b:75:5c:c9:d0:78:43:ba:0b:e9:14:6b:37:4a:9c:4e:ec:
        9a:fe:04:6a:d7:27:6c:9c:5f:bb:06:8f:e3:50:70:b1:ab:6d:
        47:56:aa:2f:0e:7d:c2:39:bf:19:e8:0d:cf:40:2d:2b:04:a9:
        d8:ce:18:98:7f:82:f6:da:2e:4a:83:04:ec:0e:2d:9c:fd:66:
        27:7c:0e:dd:47:05:1f:67:7d:ff:64:1d:03:61:01:6c:eb:7f:
        1a:4f:52:c6:da:94:f5:12:8a:f4:fa:9a:c7:73:06:d4:c3:8f:
        9a:d8:71:e4:22:d0:29:f0:18:7c:89:41:84:4d:3b:fb:dc:ca:
        46:a4:0b:6e:66:89:88:0d:c8:e4:7f:53:ae:19:f4:95:f4:2a:
        4d:7b:bf:28:87:3c:d6:5c:6f:60:07:66:c6:e7:09:ec:3d:e0:
        9d:d2:81:69:df:8a:05:90:d9:06:d2:e8:46:a8:73:1a:5d:95:
        fd:28:87:9d
-----BEGIN CERTIFICATE-----
MIIEFjCCAv6gAwIBAgIBATANBgkqhkiG9w0BAQQFADCBmTELMAkGA1UEBhMCVVMx
EDAOBgNVBAgTB0Zsb3JpZGExGzAZBgNVBAcTElBhbG0gQmVhY2ggR2FyZGVuczEU
MBIGA1UEChMLWmVyb0MsIEluYy4xDDAKBgNVBAsTA0ljZTEYMBYGA1UEAxMPWmVy
b0MgVGVzdCBDQSAxMR0wGwYJKoZIhvcNAQkBFg5pbmZvQHplcm9jLmNvbTAeFw0w
NjAzMzExNjU1MTVaFw0xNjAzMjgxNjU1MTVaMHMxCzAJBgNVBAYTAlVTMRAwDgYD
VQQIEwdGbG9yaWRhMRQwEgYDVQQKEwtaZXJvQywgSW5jLjEMMAoGA1UECxMDSWNl
MR0wGwYJKoZIhvcNAQkBFg5pbmZvQHplcm9jLmNvbTEPMA0GA1UEAxMGU2VydmVy
MIGfMA0GCSqGSIb3DQEBAQUAA4GNADCBiQKBgQDPvzt/6D9j+9/x0zJdrN/htFr/
JOr9RA9PgIRBeZ1B1kAKyK7do+Xp6Mb1kQrCG94R2iQHGysLSx6/HvtNNvNa/+1W
cIn54gNB4i3a6smY3D12VjKewHGVEY0UL0eLJrLw7A9I59kNOYeV1UXiLtPW8g8o
3lbkbEcu8OHpQ6YxuwIDAQABo4IBEDCCAQwwCQYDVR0TBAIwADAdBgNVHQ4EFgQU
FAMvfowfhUWX/tDNOUQyD77ZLPgwgcYGA1UdIwSBvjCBu4AUywUF8D6hSqHLB2+G
i6/upeTKYr2hgZ+kgZwwgZkxCzAJBgNVBAYTAlVTMRAwDgYDVQQIEwdGbG9yaWRh
MRswGQYDVQQHExJQYWxtIEJlYWNoIEdhcmRlbnMxFDASBgNVBAoTC1plcm9DLCBJ
bmMuMQwwCgYDVQQLEwNJY2UxGDAWBgNVBAMTD1plcm9DIFRlc3QgQ0EgMTEdMBsG
CSqGSIb3DQEJARYOaW5mb0B6ZXJvYy5jb22CAQAwFwYDVR0RBBAwDoIGc2VydmVy
hwR/AAABMA0GCSqGSIb3DQEBBAUAA4IBAQBSSwt3PjO7w3gVD94/4VEWuVf/x53R
uPpOHpYjGcTpF5QDKqW0yNJBEwefsGZAaGmQ3KqGjDLEHXxU5eDTJ36Up4acOf88
SFbtG3VcydB4Q7oL6RRrN0qcTuya/gRq1ydsnF+7Bo/jUHCxq21HVqovDn3COb8Z
6A3PQC0rBKnYzhiYf4L22i5KgwTsDi2c/WYnfA7dRwUfZ33/ZB0DYQFs638aT1LG
2pT1Eor0+prHcwbUw4+a2HHkItAp8Bh8iUGETTv73MpGpAtuZomIDcjkf1OuGfSV
9CpNe78ohzzWXG9gB2bG5wnsPeCd0oFp34oFkNkG0uhGqHMaXZX9KIed
-----END CERTIFICATE-----
