Certificate:
    Data:
        Version: 3 (0x2)
        Serial Number: 1 (0x1)
        Signature Algorithm: md5WithRSAEncryption
        Issuer: C=US, ST=Florida, L=Palm Beach Gardens, O=ZeroC, Inc., OU=Ice, CN=ZeroC Test CA 1/emailAddress=info@zeroc.com
        Validity
            Not Before: Mar 31 16:55:15 2006 GMT
            Not After : Mar 28 16:55:15 2016 GMT
        Subject: C=US, ST=Florida, O=ZeroC, Inc., OU=Ice/emailAddress=info@zeroc.com, CN=Server
        Subject Public Key Info:
            Public Key Algorithm: rsaEncryption
            RSA Public Key: (1024 bit)
                Modulus (1024 bit):
                    00:d0:e4:b2:1b:ef:57:df:d8:b5:c0:eb:27:98:eb:
                    91:81:0b:75:47:8f:1b:d0:b3:df:af:f8:28:c2:33:
                    5d:59:91:28:f7:09:8c:fb:70:65:f6:e4:16:a8:a1:
                    87:13:14:2c:c7:fc:03:34:3a:7b:f9:ea:fd:b6:eb:
                    81:d5:00:f7:e9:49:0b:bd:f9:e0:6c:a2:36:99:b4:
                    e1:55:06:71:b2:f7:4a:7a:1e:dd:71:81:75:fa:94:
                    e4:0d:ae:a0:a4:9e:dd:36:6c:58:50:0b:d7:b2:76:
                    b8:d2:43:29:a2:1c:83:36:28:e6:f9:d8:f0:75:b2:
                    5d:a7:6f:a0:5f:cb:d4:6d:cf
                Exponent: 65537 (0x10001)
        X509v3 extensions:
            X509v3 Basic Constraints: 
            CA:FALSE
            X509v3 Subject Key Identifier: 
            99:EE:A2:4D:9A:E3:E9:ED:F8:4E:9B:68:4D:B2:A8:EC:7A:3E:70:9F
            X509v3 Authority Key Identifier: 
            keyid:CB:05:05:F0:3E:A1:4A:A1:CB:07:6F:86:8B:AF:EE:A5:E4:CA:62:BD
            DirName:/C=US/ST=Florida/L=Palm Beach Gardens/O=ZeroC, Inc./OU=Ice/CN=ZeroC Test CA 1/emailAddress=info@zeroc.com
            serial:00

            X509v3 Subject Alternative Name: 
            DNS:server, IP Address:127.0.0.1
    Signature Algorithm: md5WithRSAEncryption
        71:92:a7:02:d2:09:50:ad:09:a3:20:df:ae:7e:d3:bf:ce:36:
        40:1b:56:77:ad:71:db:2c:10:65:a6:d2:d3:cc:8e:f1:03:cb:
        81:ce:fb:7b:7e:65:27:1f:6e:bd:3d:2f:49:81:d7:d7:08:72:
        df:57:bb:7a:99:3b:1b:de:b9:2b:6f:af:c6:a2:22:fc:b4:4b:
        97:e4:32:78:4c:df:eb:a8:ca:5c:6d:d1:0b:f8:dc:42:62:6a:
        16:a5:a9:e9:ce:9b:8e:12:de:e4:fc:53:e4:bc:02:69:37:a9:
        50:a2:24:04:ff:08:0f:bc:3d:0a:f5:ce:31:59:2b:1b:2b:e1:
        b0:be:75:1f:39:37:08:b8:b0:e0:de:77:20:36:be:35:da:e9:
        6a:9c:b5:8e:32:8a:fe:64:3e:55:60:b2:c1:b9:70:ee:25:14:
        2b:40:85:b2:c1:16:27:37:1b:d1:5e:be:25:a5:c4:8d:68:96:
        e1:db:5d:c5:6d:7e:54:d8:90:24:76:2d:6b:76:73:21:6a:ba:
        24:02:cc:de:90:8e:ae:7a:25:c4:4f:d2:33:26:d1:1b:a8:b4:
        2e:b4:54:2c:45:10:eb:96:74:20:ee:e2:e3:3b:45:f4:8e:8c:
        78:4d:1b:c3:b4:06:f1:0a:ad:53:1c:14:a6:1f:29:39:c9:97:
        09:d9:d1:d9
-----BEGIN CERTIFICATE-----
MIIEFjCCAv6gAwIBAgIBATANBgkqhkiG9w0BAQQFADCBmTELMAkGA1UEBhMCVVMx
EDAOBgNVBAgTB0Zsb3JpZGExGzAZBgNVBAcTElBhbG0gQmVhY2ggR2FyZGVuczEU
MBIGA1UEChMLWmVyb0MsIEluYy4xDDAKBgNVBAsTA0ljZTEYMBYGA1UEAxMPWmVy
b0MgVGVzdCBDQSAxMR0wGwYJKoZIhvcNAQkBFg5pbmZvQHplcm9jLmNvbTAeFw0w
NjAzMzExNjU1MTVaFw0xNjAzMjgxNjU1MTVaMHMxCzAJBgNVBAYTAlVTMRAwDgYD
VQQIEwdGbG9yaWRhMRQwEgYDVQQKEwtaZXJvQywgSW5jLjEMMAoGA1UECxMDSWNl
MR0wGwYJKoZIhvcNAQkBFg5pbmZvQHplcm9jLmNvbTEPMA0GA1UEAxMGU2VydmVy
MIGfMA0GCSqGSIb3DQEBAQUAA4GNADCBiQKBgQDQ5LIb71ff2LXA6yeY65GBC3VH
jxvQs9+v+CjCM11ZkSj3CYz7cGX25BaooYcTFCzH/AM0Onv56v2264HVAPfpSQu9
+eBsojaZtOFVBnGy90p6Ht1xgXX6lOQNrqCknt02bFhQC9eydrjSQymiHIM2KOb5
2PB1sl2nb6Bfy9RtzwIDAQABo4IBEDCCAQwwCQYDVR0TBAIwADAdBgNVHQ4EFgQU
me6iTZrj6e34TptoTbKo7Ho+cJ8wgcYGA1UdIwSBvjCBu4AUywUF8D6hSqHLB2+G
i6/upeTKYr2hgZ+kgZwwgZkxCzAJBgNVBAYTAlVTMRAwDgYDVQQIEwdGbG9yaWRh
MRswGQYDVQQHExJQYWxtIEJlYWNoIEdhcmRlbnMxFDASBgNVBAoTC1plcm9DLCBJ
bmMuMQwwCgYDVQQLEwNJY2UxGDAWBgNVBAMTD1plcm9DIFRlc3QgQ0EgMTEdMBsG
CSqGSIb3DQEJARYOaW5mb0B6ZXJvYy5jb22CAQAwFwYDVR0RBBAwDoIGc2VydmVy
hwR/AAABMA0GCSqGSIb3DQEBBAUAA4IBAQBxkqcC0glQrQmjIN+uftO/zjZAG1Z3
rXHbLBBlptLTzI7xA8uBzvt7fmUnH269PS9JgdfXCHLfV7t6mTsb3rkrb6/GoiL8
tEuX5DJ4TN/rqMpcbdEL+NxCYmoWpanpzpuOEt7k/FPkvAJpN6lQoiQE/wgPvD0K
9c4xWSsbK+GwvnUfOTcIuLDg3ncgNr412ulqnLWOMor+ZD5VYLLBuXDuJRQrQIWy
wRYnNxvRXr4lpcSNaJbh213FbX5U2JAkdi1rdnMharokAszekI6ueiXET9IzJtEb
qLQutFQsRRDrlnQg7uLjO0X0jox4TRvDtAbxCq1THBSmHyk5yZcJ2dHZ
-----END CERTIFICATE-----
