Certificate:
    Data:
        Version: 3 (0x2)
        Serial Number: 1 (0x1)
        Signature Algorithm: md5WithRSAEncryption
        Issuer: C=US, ST=Florida, L=Palm Beach Gardens, O=ZeroC, Inc., OU=Ice, CN=ZeroC Test CA 1/emailAddress=info@zeroc.com
        Validity
            Not Before: Sep 23 15:11:15 2009 GMT
            Not After : Sep 21 15:11:15 2019 GMT
        Subject: C=US, ST=Florida, O=ZeroC, Inc., OU=Ice/emailAddress=info@zeroc.com, CN=Server
        Subject Public Key Info:
            Public Key Algorithm: rsaEncryption
            RSA Public Key: (1024 bit)
                Modulus (1024 bit):
                    00:c9:27:46:07:6e:6b:81:a7:22:fc:07:39:b4:17:
                    8c:ea:9c:03:45:94:49:2d:f8:0c:b7:6d:3d:23:2e:
                    3c:c6:b8:2d:a7:88:30:f2:7c:81:db:a3:0a:d1:94:
                    62:ad:29:34:a5:36:af:02:dc:79:83:64:ad:18:aa:
                    58:3e:c2:9f:88:2d:d9:83:6a:42:8b:d8:7f:a5:2c:
                    37:fc:8d:67:b1:7f:15:d3:50:00:c7:4b:0e:2d:17:
                    02:ab:04:df:3a:f0:c9:b9:2e:9f:fb:c1:d6:41:0f:
                    97:99:d9:5f:c9:cf:fa:13:02:7a:ac:42:57:78:3b:
                    d7:d6:61:df:0e:53:9b:ca:ab
                Exponent: 65537 (0x10001)
        X509v3 extensions:
            X509v3 Basic Constraints: 
                CA:FALSE
            X509v3 Subject Key Identifier: 
                F6:FF:97:2A:4F:4A:FA:23:24:8C:1F:DD:1E:B5:82:35:C4:87:81:DC
            X509v3 Authority Key Identifier: 
                keyid:28:11:80:FD:88:57:63:47:6B:C0:BA:A6:CE:3A:C7:C4:7F:73:31:25
                DirName:/C=US/ST=Florida/L=Palm Beach Gardens/O=ZeroC, Inc./OU=Ice/CN=ZeroC Test CA 1/emailAddress=info@zeroc.com
                serial:DD:26:15:4D:4C:3F:B6:11

            X509v3 Subject Alternative Name: 
                DNS:server, IP Address:127.0.0.1
            X509v3 Issuer Alternative Name: 
                email:issuer@zeroc.com, IP Address:127.0.0.1
    Signature Algorithm: md5WithRSAEncryption
        93:f4:8c:82:bf:eb:57:38:6c:58:bd:16:6c:5d:fa:4c:7a:ad:
        5c:0c:f9:89:cb:f8:70:94:ae:72:c1:9d:14:a7:d2:43:2d:5c:
        df:5e:91:c6:fb:02:51:c0:46:fc:96:4d:5e:05:de:49:ef:56:
        5f:10:36:f2:4c:c8:e8:6a:f3:7f:4e:0a:9b:8d:be:df:c5:bb:
        a6:57:a4:c0:cf:ec:de:cc:c4:e8:87:af:3a:d4:b8:9b:99:db:
        b7:cc:f2:e8:a0:2b:b9:82:0e:a4:47:ff:14:e1:be:72:90:55:
        5c:b8:40:13:ec:38:98:0a:f1:0d:44:07:b4:c2:b7:67:a2:a1:
        fd:91
-----BEGIN CERTIFICATE-----
MIIDwDCCAymgAwIBAgIBATANBgkqhkiG9w0BAQQFADCBmTELMAkGA1UEBhMCVVMx
EDAOBgNVBAgTB0Zsb3JpZGExGzAZBgNVBAcTElBhbG0gQmVhY2ggR2FyZGVuczEU
MBIGA1UEChMLWmVyb0MsIEluYy4xDDAKBgNVBAsTA0ljZTEYMBYGA1UEAxMPWmVy
b0MgVGVzdCBDQSAxMR0wGwYJKoZIhvcNAQkBFg5pbmZvQHplcm9jLmNvbTAeFw0w
OTA5MjMxNTExMTVaFw0xOTA5MjExNTExMTVaMHMxCzAJBgNVBAYTAlVTMRAwDgYD
VQQIEwdGbG9yaWRhMRQwEgYDVQQKEwtaZXJvQywgSW5jLjEMMAoGA1UECxMDSWNl
MR0wGwYJKoZIhvcNAQkBFg5pbmZvQHplcm9jLmNvbTEPMA0GA1UEAxMGU2VydmVy
MIGfMA0GCSqGSIb3DQEBAQUAA4GNADCBiQKBgQDJJ0YHbmuBpyL8Bzm0F4zqnANF
lEkt+Ay3bT0jLjzGuC2niDDyfIHbowrRlGKtKTSlNq8C3HmDZK0Yqlg+wp+ILdmD
akKL2H+lLDf8jWexfxXTUADHSw4tFwKrBN868Mm5Lp/7wdZBD5eZ2V/Jz/oTAnqs
Qld4O9fWYd8OU5vKqwIDAQABo4IBOzCCATcwCQYDVR0TBAIwADAdBgNVHQ4EFgQU
9v+XKk9K+iMkjB/dHrWCNcSHgdwwgc4GA1UdIwSBxjCBw4AUKBGA/YhXY0drwLqm
zjrHxH9zMSWhgZ+kgZwwgZkxCzAJBgNVBAYTAlVTMRAwDgYDVQQIEwdGbG9yaWRh
MRswGQYDVQQHExJQYWxtIEJlYWNoIEdhcmRlbnMxFDASBgNVBAoTC1plcm9DLCBJ
bmMuMQwwCgYDVQQLEwNJY2UxGDAWBgNVBAMTD1plcm9DIFRlc3QgQ0EgMTEdMBsG
CSqGSIb3DQEJARYOaW5mb0B6ZXJvYy5jb22CCQDdJhVNTD+2ETAXBgNVHREEEDAO
ggZzZXJ2ZXKHBH8AAAEwIQYDVR0SBBowGIEQaXNzdWVyQHplcm9jLmNvbYcEfwAA
ATANBgkqhkiG9w0BAQQFAAOBgQCT9IyCv+tXOGxYvRZsXfpMeq1cDPmJy/hwlK5y
wZ0Up9JDLVzfXpHG+wJRwEb8lk1eBd5J71ZfEDbyTMjoavN/Tgqbjb7fxbumV6TA
z+zezMToh6861Libmdu3zPLooCu5gg6kR/8U4b5ykFVcuEAT7DiYCvENRAe0wrdn
oqH9kQ==
-----END CERTIFICATE-----
