Certificate:
    Data:
        Version: 3 (0x2)
        Serial Number: 1 (0x1)
    Signature Algorithm: sha256WithRSAEncryption
        Issuer: C=US, ST=Florida, L=Palm Beach Gardens, O=ZeroC, Inc., OU=Ice, CN=ZeroC Test CA 2/emailAddress=info@zeroc.com
        Validity
            Not Before: Aug 19 14:40:37 2014 GMT
            Not After : Aug 16 14:40:37 2024 GMT
        Subject: C=US, ST=Florida, O=ZeroC, Inc., OU=Ice/emailAddress=info@zeroc.com, CN=Server
        Subject Public Key Info:
            Public Key Algorithm: rsaEncryption
                Public-Key: (1024 bit)
                Modulus:
                    00:b9:9a:05:12:41:6c:18:1c:2d:1f:ca:98:3b:94:
                    8c:29:2c:57:e7:33:57:bf:ad:4c:12:ae:9c:08:50:
                    f2:df:fc:50:a8:73:85:e9:20:4d:5b:04:1f:28:35:
                    01:a5:6c:75:df:6f:af:8c:b4:2d:47:5e:16:b8:c1:
                    85:d7:e7:b5:d2:e0:3f:86:b9:2d:f1:5b:7a:e3:eb:
                    12:23:6d:62:3a:d7:58:a7:8b:a3:ed:e3:26:a7:42:
                    43:b0:4a:71:24:d6:f7:f1:fe:f6:dd:33:46:ff:ce:
                    c7:a5:8f:44:ca:db:7a:fa:47:a0:ae:ca:d6:08:bd:
                    78:01:79:4e:d5:2b:ab:ce:bf
                Exponent: 65537 (0x10001)
        X509v3 extensions:
            X509v3 Basic Constraints: 
                CA:FALSE
            X509v3 Subject Key Identifier: 
                82:FA:FD:3C:05:D4:B1:E8:57:D6:93:7C:E2:95:95:25:91:60:34:54
            X509v3 Authority Key Identifier: 
                keyid:71:61:73:01:D1:B6:AA:21:F5:90:E7:DA:55:93:FA:1B:1F:DD:AD:66
                DirName:/C=US/ST=Florida/L=Palm Beach Gardens/O=ZeroC, Inc./OU=Ice/CN=ZeroC Test CA 2/emailAddress=info@zeroc.com
                serial:C9:6F:11:B4:99:58:DA:C3

            X509v3 Subject Alternative Name: 
                DNS:server, IP Address:127.0.0.1
            X509v3 Issuer Alternative Name: 
                email:issuer@zeroc.com, IP Address:127.0.0.1
    Signature Algorithm: sha256WithRSAEncryption
         25:0b:d2:38:5e:0b:91:cb:9d:bf:f6:96:4d:0b:3e:c0:96:d4:
         98:1a:31:46:06:83:5f:2a:e4:25:80:a3:5f:57:08:2f:1c:5b:
         1c:1e:28:8b:97:0e:39:7c:55:9c:02:d0:fd:50:00:65:90:9d:
         e9:b5:ff:05:60:3e:e1:e3:a0:32:87:26:54:c5:78:2f:f7:f3:
         1a:25:77:8a:4b:68:a4:5a:d6:83:72:37:fa:74:4d:36:49:2f:
         ab:2b:36:55:f8:50:ce:48:61:22:97:a8:2a:9f:ff:07:e3:88:
         cc:43:77:1c:df:25:83:62:fe:75:a2:09:be:dd:67:1b:33:2f:
         42:a7
-----BEGIN CERTIFICATE-----
MIIDwDCCAymgAwIBAgIBATANBgkqhkiG9w0BAQsFADCBmTELMAkGA1UEBhMCVVMx
EDAOBgNVBAgTB0Zsb3JpZGExGzAZBgNVBAcTElBhbG0gQmVhY2ggR2FyZGVuczEU
MBIGA1UEChMLWmVyb0MsIEluYy4xDDAKBgNVBAsTA0ljZTEYMBYGA1UEAxMPWmVy
b0MgVGVzdCBDQSAyMR0wGwYJKoZIhvcNAQkBFg5pbmZvQHplcm9jLmNvbTAeFw0x
NDA4MTkxNDQwMzdaFw0yNDA4MTYxNDQwMzdaMHMxCzAJBgNVBAYTAlVTMRAwDgYD
VQQIEwdGbG9yaWRhMRQwEgYDVQQKEwtaZXJvQywgSW5jLjEMMAoGA1UECxMDSWNl
MR0wGwYJKoZIhvcNAQkBFg5pbmZvQHplcm9jLmNvbTEPMA0GA1UEAxMGU2VydmVy
MIGfMA0GCSqGSIb3DQEBAQUAA4GNADCBiQKBgQC5mgUSQWwYHC0fypg7lIwpLFfn
M1e/rUwSrpwIUPLf/FCoc4XpIE1bBB8oNQGlbHXfb6+MtC1HXha4wYXX57XS4D+G
uS3xW3rj6xIjbWI611ini6Pt4yanQkOwSnEk1vfx/vbdM0b/zselj0TK23r6R6Cu
ytYIvXgBeU7VK6vOvwIDAQABo4IBOzCCATcwCQYDVR0TBAIwADAdBgNVHQ4EFgQU
gvr9PAXUsehX1pN84pWVJZFgNFQwgc4GA1UdIwSBxjCBw4AUcWFzAdG2qiH1kOfa
VZP6Gx/drWahgZ+kgZwwgZkxCzAJBgNVBAYTAlVTMRAwDgYDVQQIEwdGbG9yaWRh
MRswGQYDVQQHExJQYWxtIEJlYWNoIEdhcmRlbnMxFDASBgNVBAoTC1plcm9DLCBJ
bmMuMQwwCgYDVQQLEwNJY2UxGDAWBgNVBAMTD1plcm9DIFRlc3QgQ0EgMjEdMBsG
CSqGSIb3DQEJARYOaW5mb0B6ZXJvYy5jb22CCQDJbxG0mVjawzAXBgNVHREEEDAO
ggZzZXJ2ZXKHBH8AAAEwIQYDVR0SBBowGIEQaXNzdWVyQHplcm9jLmNvbYcEfwAA
ATANBgkqhkiG9w0BAQsFAAOBgQAlC9I4XguRy52/9pZNCz7AltSYGjFGBoNfKuQl
gKNfVwgvHFscHiiLlw45fFWcAtD9UABlkJ3ptf8FYD7h46AyhyZUxXgv9/MaJXeK
S2ikWtaDcjf6dE02SS+rKzZV+FDOSGEil6gqn/8H44jMQ3cc3yWDYv51ogm+3Wcb
My9Cpw==
-----END CERTIFICATE-----
