Certificate:
    Data:
        Version: 3 (0x2)
        Serial Number: 1 (0x1)
    Signature Algorithm: sha256WithRSAEncryption
        Issuer: C=US, ST=Florida, L=Palm Beach Gardens, O=ZeroC, Inc., OU=Ice, CN=ZeroC Test CA 1/emailAddress=info@zeroc.com
        Validity
            Not Before: Aug 19 14:40:37 2014 GMT
            Not After : Aug 16 14:40:37 2024 GMT
        Subject: C=US, ST=Florida, O=ZeroC, Inc., OU=Ice/emailAddress=info@zeroc.com, CN=Server
        Subject Public Key Info:
            Public Key Algorithm: rsaEncryption
                Public-Key: (1024 bit)
                Modulus:
                    00:bf:c4:a6:35:13:7a:50:f3:3f:15:89:1f:2a:12:
                    47:d0:06:44:ac:e1:30:1f:3b:e9:9f:ee:77:cd:d8:
                    3a:a2:e3:e8:c5:f4:dd:67:ea:bc:05:d2:f2:a8:3f:
                    b6:0f:56:a6:96:de:03:33:a3:26:ce:fe:88:55:09:
                    3a:83:74:77:04:92:65:c3:e1:d6:c7:44:8a:60:36:
                    64:9c:51:21:ae:72:0a:d2:53:d9:58:97:a0:57:ef:
                    09:84:56:9e:99:1b:cf:25:ab:c8:c3:c2:77:e5:74:
                    f2:bd:4a:6a:39:28:c5:fb:b8:ca:20:92:14:77:7e:
                    c4:a1:fa:5e:a0:83:c7:67:cd
                Exponent: 65537 (0x10001)
        X509v3 extensions:
            X509v3 Basic Constraints: 
                CA:FALSE
            X509v3 Subject Key Identifier: 
                A6:42:AA:17:04:41:86:56:67:E4:04:64:59:34:30:C7:4C:6B:EF:A4
            X509v3 Authority Key Identifier: 
                keyid:13:FA:72:67:FE:34:05:9A:C9:3E:61:D2:91:D6:BA:03:65:1B:8A:9A
                DirName:/C=US/ST=Florida/L=Palm Beach Gardens/O=ZeroC, Inc./OU=Ice/CN=ZeroC Test CA 1/emailAddress=info@zeroc.com
                serial:CE:8A:67:ED:96:6F:7E:B6

            X509v3 Subject Alternative Name: 
                DNS:server, IP Address:127.0.0.1
            X509v3 Issuer Alternative Name: 
                email:issuer@zeroc.com, IP Address:127.0.0.1
    Signature Algorithm: sha256WithRSAEncryption
         64:f5:c1:2e:6c:fa:57:18:9b:e8:1f:44:0d:dc:f9:46:5b:08:
         b8:b2:e0:46:bf:b2:a7:3f:d0:d5:15:be:4c:1d:e2:72:85:25:
         2d:14:8e:c9:85:49:b9:b5:d6:db:f2:9f:fd:e9:8b:71:7b:47:
         9e:99:52:90:fc:42:c5:d2:25:2d:a8:7a:a0:5d:98:62:71:58:
         bf:4d:bb:25:ee:99:36:39:8c:c3:c8:fe:02:5b:4a:5c:63:65:
         ed:f0:88:53:a7:08:08:75:b2:37:3c:6b:27:6b:45:dc:be:8b:
         a1:46:05:fe:c1:b0:f2:86:73:a1:12:05:45:a1:cb:f8:9c:fa:
         ab:ef
-----BEGIN CERTIFICATE-----
MIIDwDCCAymgAwIBAgIBATANBgkqhkiG9w0BAQsFADCBmTELMAkGA1UEBhMCVVMx
EDAOBgNVBAgTB0Zsb3JpZGExGzAZBgNVBAcTElBhbG0gQmVhY2ggR2FyZGVuczEU
MBIGA1UEChMLWmVyb0MsIEluYy4xDDAKBgNVBAsTA0ljZTEYMBYGA1UEAxMPWmVy
b0MgVGVzdCBDQSAxMR0wGwYJKoZIhvcNAQkBFg5pbmZvQHplcm9jLmNvbTAeFw0x
NDA4MTkxNDQwMzdaFw0yNDA4MTYxNDQwMzdaMHMxCzAJBgNVBAYTAlVTMRAwDgYD
VQQIEwdGbG9yaWRhMRQwEgYDVQQKEwtaZXJvQywgSW5jLjEMMAoGA1UECxMDSWNl
MR0wGwYJKoZIhvcNAQkBFg5pbmZvQHplcm9jLmNvbTEPMA0GA1UEAxMGU2VydmVy
MIGfMA0GCSqGSIb3DQEBAQUAA4GNADCBiQKBgQC/xKY1E3pQ8z8ViR8qEkfQBkSs
4TAfO+mf7nfN2Dqi4+jF9N1n6rwF0vKoP7YPVqaW3gMzoybO/ohVCTqDdHcEkmXD
4dbHRIpgNmScUSGucgrSU9lYl6BX7wmEVp6ZG88lq8jDwnfldPK9Smo5KMX7uMog
khR3fsSh+l6gg8dnzQIDAQABo4IBOzCCATcwCQYDVR0TBAIwADAdBgNVHQ4EFgQU
pkKqFwRBhlZn5ARkWTQwx0xr76Qwgc4GA1UdIwSBxjCBw4AUE/pyZ/40BZrJPmHS
kda6A2UbipqhgZ+kgZwwgZkxCzAJBgNVBAYTAlVTMRAwDgYDVQQIEwdGbG9yaWRh
MRswGQYDVQQHExJQYWxtIEJlYWNoIEdhcmRlbnMxFDASBgNVBAoTC1plcm9DLCBJ
bmMuMQwwCgYDVQQLEwNJY2UxGDAWBgNVBAMTD1plcm9DIFRlc3QgQ0EgMTEdMBsG
CSqGSIb3DQEJARYOaW5mb0B6ZXJvYy5jb22CCQDOimftlm9+tjAXBgNVHREEEDAO
ggZzZXJ2ZXKHBH8AAAEwIQYDVR0SBBowGIEQaXNzdWVyQHplcm9jLmNvbYcEfwAA
ATANBgkqhkiG9w0BAQsFAAOBgQBk9cEubPpXGJvoH0QN3PlGWwi4suBGv7KnP9DV
Fb5MHeJyhSUtFI7JhUm5tdbb8p/96Ytxe0eemVKQ/ELF0iUtqHqgXZhicVi/Tbsl
7pk2OYzDyP4CW0pcY2Xt8IhTpwgIdbI3PGsna0XcvouhRgX+wbDyhnOhEgVFocv4
nPqr7w==
-----END CERTIFICATE-----
