Certificate:
    Data:
        Version: 3 (0x2)
        Serial Number: 1 (0x1)
        Signature Algorithm: md5WithRSAEncryption
        Issuer: C=US, ST=Florida, L=Palm Beach Gardens, O=ZeroC, Inc., OU=Ice, CN=ZeroC Test CA/emailAddress=info@zeroc.com
        Validity
            Not Before: Mar 31 16:19:55 2006 GMT
            Not After : Dec 31 00:00:00 2005 GMT
        Subject: C=US, ST=Florida, O=ZeroC, Inc., OU=Ice/emailAddress=info@zeroc.com, CN=Server
        Subject Public Key Info:
            Public Key Algorithm: rsaEncryption
            RSA Public Key: (1024 bit)
                Modulus (1024 bit):
                    00:be:0e:06:bc:9b:52:80:da:0e:fc:9d:0e:4a:b6:
                    03:f7:21:ce:10:c8:4d:3b:a6:73:61:7d:96:9a:0f:
                    59:44:87:49:a8:bf:57:7c:81:95:6b:47:0a:fa:2e:
                    30:14:90:87:30:0b:78:75:9c:57:77:6a:55:02:28:
                    00:d3:77:70:1a:e1:1a:de:dd:c7:31:bd:0d:84:ae:
                    d8:6d:f9:36:c9:a8:70:36:49:ac:3c:3a:5b:27:81:
                    82:f2:5d:e3:cf:ae:f7:ad:a9:23:63:df:f1:a1:3c:
                    26:fe:fc:11:c0:11:aa:4b:fe:87:90:a8:e1:bf:3f:
                    2b:e8:f0:58:3e:cf:e1:4f:3b
                Exponent: 65537 (0x10001)
        X509v3 extensions:
            X509v3 Basic Constraints: 
            CA:FALSE
            X509v3 Subject Key Identifier: 
            53:13:21:49:18:24:7F:57:DD:E9:84:6D:DE:74:CC:65:AA:3B:9C:B1
            X509v3 Authority Key Identifier: 
            keyid:5A:A7:44:4D:31:6D:4F:2F:BE:07:F4:C6:59:06:53:08:D7:0E:46:CE
            DirName:/C=US/ST=Florida/L=Palm Beach Gardens/O=ZeroC, Inc./OU=Ice/CN=ZeroC Test CA/emailAddress=info@zeroc.com
            serial:00

            X509v3 Subject Alternative Name: 
            DNS:server, IP Address:127.0.0.1
    Signature Algorithm: md5WithRSAEncryption
        92:56:e0:6c:4b:09:5e:53:89:2f:93:3e:3e:4d:c2:c2:9d:54:
        32:51:8c:f2:0a:87:1a:69:93:51:92:01:e7:e4:33:6a:f6:3e:
        b2:27:01:ce:fd:18:41:ec:f8:b3:10:ac:05:85:0a:8f:10:fc:
        ed:6c:22:7e:fc:79:0e:93:12:60:61:88:e4:a1:3d:71:44:2a:
        31:55:7b:5c:da:13:a1:d0:5e:f3:09:cb:0d:c1:08:66:11:c5:
        9d:35:b8:7b:1e:8d:af:90:24:b0:78:40:f4:49:26:6e:f1:20:
        1b:ab:5b:a9:84:31:7a:bb:13:3f:1a:44:e8:e4:0e:66:e1:9e:
        ee:07:50:37:d7:1b:71:79:65:85:1a:3c:6f:ec:fb:55:85:b2:
        c9:20:ab:ce:41:7f:a6:d7:9f:48:af:97:e8:5c:bd:31:99:84:
        8a:ea:56:87:ce:b1:18:ce:ba:7c:88:94:05:27:9c:c4:90:90:
        42:5e:19:39:05:9e:6e:73:8e:d9:28:2c:b9:b2:85:2d:fb:a6:
        b3:6e:a8:79:87:46:15:03:ef:7b:f0:11:ac:61:ec:3e:e0:ad:
        fc:55:0b:a5:47:bf:5a:1f:42:3d:4e:39:b7:03:39:30:ae:a9:
        d1:a3:0b:f7:3a:66:fc:b9:b9:67:e1:fd:8e:83:05:cd:79:3b:
        0c:0b:af:ae
-----BEGIN CERTIFICATE-----
MIIEEjCCAvqgAwIBAgIBATANBgkqhkiG9w0BAQQFADCBlzELMAkGA1UEBhMCVVMx
EDAOBgNVBAgTB0Zsb3JpZGExGzAZBgNVBAcTElBhbG0gQmVhY2ggR2FyZGVuczEU
MBIGA1UEChMLWmVyb0MsIEluYy4xDDAKBgNVBAsTA0ljZTEWMBQGA1UEAxMNWmVy
b0MgVGVzdCBDQTEdMBsGCSqGSIb3DQEJARYOaW5mb0B6ZXJvYy5jb20wHhcNMDYw
MzMxMTYxOTU1WhcNMDUxMjMxMDAwMDAwWjBzMQswCQYDVQQGEwJVUzEQMA4GA1UE
CBMHRmxvcmlkYTEUMBIGA1UEChMLWmVyb0MsIEluYy4xDDAKBgNVBAsTA0ljZTEd
MBsGCSqGSIb3DQEJARYOaW5mb0B6ZXJvYy5jb20xDzANBgNVBAMTBlNlcnZlcjCB
nzANBgkqhkiG9w0BAQEFAAOBjQAwgYkCgYEAvg4GvJtSgNoO/J0OSrYD9yHOEMhN
O6ZzYX2Wmg9ZRIdJqL9XfIGVa0cK+i4wFJCHMAt4dZxXd2pVAigA03dwGuEa3t3H
Mb0NhK7Ybfk2yahwNkmsPDpbJ4GC8l3jz673rakjY9/xoTwm/vwRwBGqS/6HkKjh
vz8r6PBYPs/hTzsCAwEAAaOCAQ4wggEKMAkGA1UdEwQCMAAwHQYDVR0OBBYEFFMT
IUkYJH9X3emEbd50zGWqO5yxMIHEBgNVHSMEgbwwgbmAFFqnRE0xbU8vvgf0xlkG
UwjXDkbOoYGdpIGaMIGXMQswCQYDVQQGEwJVUzEQMA4GA1UECBMHRmxvcmlkYTEb
MBkGA1UEBxMSUGFsbSBCZWFjaCBHYXJkZW5zMRQwEgYDVQQKEwtaZXJvQywgSW5j
LjEMMAoGA1UECxMDSWNlMRYwFAYDVQQDEw1aZXJvQyBUZXN0IENBMR0wGwYJKoZI
hvcNAQkBFg5pbmZvQHplcm9jLmNvbYIBADAXBgNVHREEEDAOggZzZXJ2ZXKHBH8A
AAEwDQYJKoZIhvcNAQEEBQADggEBAJJW4GxLCV5TiS+TPj5NwsKdVDJRjPIKhxpp
k1GSAefkM2r2PrInAc79GEHs+LMQrAWFCo8Q/O1sIn78eQ6TEmBhiOShPXFEKjFV
e1zaE6HQXvMJyw3BCGYRxZ01uHseja+QJLB4QPRJJm7xIBurW6mEMXq7Ez8aROjk
Dmbhnu4HUDfXG3F5ZYUaPG/s+1WFsskgq85Bf6bXn0ivl+hcvTGZhIrqVofOsRjO
unyIlAUnnMSQkEJeGTkFnm5zjtkoLLmyhS37prNuqHmHRhUD73vwEaxh7D7grfxV
C6VHv1ofQj1OObcDOTCuqdGjC/c6Zvy5uWfh/Y6DBc15OwwLr64=
-----END CERTIFICATE-----
