Certificate:
    Data:
        Version: 3 (0x2)
        Serial Number: 1 (0x1)
    Signature Algorithm: md5WithRSAEncryption
        Issuer: C=US, ST=Florida, L=Palm Beach Gardens, O=ZeroC, Inc., OU=Ice, CN=ZeroC WinRT Test CA/emailAddress=info@zeroc.com
        Validity
            Not Before: Sep  4 13:39:00 2013 GMT
            Not After : Sep  3 13:39:00 2018 GMT
        Subject: C=US, ST=Florida, O=ZeroC, Inc., OU=Ice/emailAddress=info@zeroc.com, CN=127.0.0.1
        Subject Public Key Info:
            Public Key Algorithm: rsaEncryption
                Public-Key: (1024 bit)
                Modulus:
                    00:d8:01:be:f7:45:6a:6c:a4:71:8d:5e:b0:52:6f:
                    88:50:74:aa:42:1c:6e:49:d1:f1:bf:f8:76:d3:82:
                    60:bd:99:44:b1:b6:c2:a8:89:3a:96:e3:89:7e:e0:
                    86:ab:34:e1:be:d8:ea:2e:03:2d:e7:e8:38:20:55:
                    c7:92:18:ed:f5:7b:1f:2d:5c:9b:0c:da:12:55:90:
                    5a:22:29:4b:25:6a:81:3a:e5:3a:82:86:be:50:b2:
                    34:60:5f:65:74:fe:7a:14:5a:55:e5:f0:db:86:dd:
                    89:28:34:25:5d:a6:0d:87:fc:9f:a9:22:80:47:d6:
                    7b:d3:21:f8:31:f2:8c:4b:41
                Exponent: 65537 (0x10001)
        X509v3 extensions:
            X509v3 Basic Constraints: 
                CA:FALSE
            X509v3 Subject Key Identifier: 
                F0:C8:1C:CE:A3:21:3D:4C:E8:B5:8F:5E:C9:B4:9B:00:3C:C9:5F:4C
            X509v3 Authority Key Identifier: 
                keyid:9C:61:BB:EF:12:63:E8:56:1E:3A:36:B3:DE:F7:87:13:E2:41:25:60
                DirName:/C=US/ST=Florida/L=Palm Beach Gardens/O=ZeroC, Inc./OU=Ice/CN=ZeroC WinRT Test CA/emailAddress=info@zeroc.com
                serial:E3:59:2C:C6:1C:93:DF:1D

            X509v3 Subject Alternative Name: 
                DNS:127.0.0.1, IP Address:127.0.0.1
    Signature Algorithm: md5WithRSAEncryption
         87:6b:25:11:83:d4:4d:b3:7e:d1:e2:ef:4c:38:15:24:33:47:
         12:8a:d9:a6:ec:a8:3c:60:31:6b:b8:ad:5b:38:68:ba:c9:dd:
         8a:04:50:50:8f:00:6e:17:bb:31:dd:1e:fb:42:28:3d:9b:ef:
         1e:2c:8d:a4:80:f0:88:90:96:40:be:89:80:a1:1b:ac:c3:15:
         be:b0:1d:c0:88:6d:99:25:cc:c4:de:0e:33:f6:ae:95:1b:ea:
         bf:93:c3:ef:72:1a:0b:4f:cf:50:02:17:b7:58:46:4d:e7:f9:
         04:41:5d:57:4f:fc:cc:af:6c:29:d3:1b:4e:61:93:2d:36:48:
         e4:6b
-----BEGIN CERTIFICATE-----
MIIDqzCCAxSgAwIBAgIBATANBgkqhkiG9w0BAQQFADCBnTELMAkGA1UEBhMCVVMx
EDAOBgNVBAgTB0Zsb3JpZGExGzAZBgNVBAcTElBhbG0gQmVhY2ggR2FyZGVuczEU
MBIGA1UEChMLWmVyb0MsIEluYy4xDDAKBgNVBAsTA0ljZTEcMBoGA1UEAxMTWmVy
b0MgV2luUlQgVGVzdCBDQTEdMBsGCSqGSIb3DQEJARYOaW5mb0B6ZXJvYy5jb20w
HhcNMTMwOTA0MTMzOTAwWhcNMTgwOTAzMTMzOTAwWjB2MQswCQYDVQQGEwJVUzEQ
MA4GA1UECBMHRmxvcmlkYTEUMBIGA1UEChMLWmVyb0MsIEluYy4xDDAKBgNVBAsT
A0ljZTEdMBsGCSqGSIb3DQEJARYOaW5mb0B6ZXJvYy5jb20xEjAQBgNVBAMTCTEy
Ny4wLjAuMTCBnzANBgkqhkiG9w0BAQEFAAOBjQAwgYkCgYEA2AG+90VqbKRxjV6w
Um+IUHSqQhxuSdHxv/h204JgvZlEsbbCqIk6luOJfuCGqzThvtjqLgMt5+g4IFXH
khjt9XsfLVybDNoSVZBaIilLJWqBOuU6goa+ULI0YF9ldP56FFpV5fDbht2JKDQl
XaYNh/yfqSKAR9Z70yH4MfKMS0ECAwEAAaOCAR8wggEbMAkGA1UdEwQCMAAwHQYD
VR0OBBYEFPDIHM6jIT1M6LWPXsm0mwA8yV9MMIHSBgNVHSMEgcowgceAFJxhu+8S
Y+hWHjo2s973hxPiQSVgoYGjpIGgMIGdMQswCQYDVQQGEwJVUzEQMA4GA1UECBMH
RmxvcmlkYTEbMBkGA1UEBxMSUGFsbSBCZWFjaCBHYXJkZW5zMRQwEgYDVQQKEwta
ZXJvQywgSW5jLjEMMAoGA1UECxMDSWNlMRwwGgYDVQQDExNaZXJvQyBXaW5SVCBU
ZXN0IENBMR0wGwYJKoZIhvcNAQkBFg5pbmZvQHplcm9jLmNvbYIJAONZLMYck98d
MBoGA1UdEQQTMBGCCTEyNy4wLjAuMYcEfwAAATANBgkqhkiG9w0BAQQFAAOBgQCH
ayURg9RNs37R4u9MOBUkM0cSitmm7Kg8YDFruK1bOGi6yd2KBFBQjwBuF7sx3R77
Qig9m+8eLI2kgPCIkJZAvomAoRuswxW+sB3AiG2ZJczE3g4z9q6VG+q/k8PvchoL
T89QAhe3WEZN5/kEQV1XT/zMr2wp0xtOYZMtNkjkaw==
-----END CERTIFICATE-----
