Certificate:
    Data:
        Version: 3 (0x2)
        Serial Number: 1 (0x1)
        Signature Algorithm: md5WithRSAEncryption
        Issuer: C=US, ST=Florida, L=Palm Beach Gardens, O=ZeroC, Inc., OU=Ice, CN=ZeroC WinRT Test CA/emailAddress=info@zeroc.com
        Validity
            Not Before: Feb  5 13:38:32 2013 GMT
            Not After : Feb  4 13:38:32 2018 GMT
        Subject: C=US, ST=Florida, O=ZeroC, Inc., OU=Ice/emailAddress=info@zeroc.com, CN=127.0.0.1
        Subject Public Key Info:
            Public Key Algorithm: rsaEncryption
            RSA Public Key: (1024 bit)
                Modulus (1024 bit):
                    00:fa:8e:0d:c4:fa:4a:8c:ff:33:a6:cc:65:ee:59:
                    44:e0:d8:8f:82:85:bd:fd:52:c0:c1:7c:99:5c:ed:
                    10:82:ef:32:22:35:92:28:3a:4d:a3:b1:54:cf:22:
                    d4:e6:55:ab:15:b1:5c:ad:a5:8f:ee:29:1d:06:a7:
                    18:54:22:1b:6e:a0:1f:0a:78:b8:0d:8d:fa:54:cd:
                    10:4b:9a:54:d7:2f:ba:b3:7e:59:b0:1b:6d:24:2b:
                    15:b8:8b:53:05:1c:b0:ac:91:6e:a2:87:a9:41:5a:
                    6a:15:41:89:89:cc:1a:6d:1d:3f:41:fa:7a:e9:fa:
                    3a:33:8b:9a:bb:56:d7:01:e7
                Exponent: 65537 (0x10001)
        X509v3 extensions:
            X509v3 Basic Constraints: 
                CA:FALSE
            X509v3 Subject Key Identifier: 
                11:6B:F5:B0:EE:2F:D4:46:E6:8F:BB:05:C1:0B:AA:E9:28:B8:B6:B4
            X509v3 Authority Key Identifier: 
                keyid:8C:0F:87:98:77:E1:31:48:27:FB:77:BB:0A:62:3C:F1:00:37:F5:EA
                DirName:/C=US/ST=Florida/L=Palm Beach Gardens/O=ZeroC, Inc./OU=Ice/CN=ZeroC WinRT Test CA/emailAddress=info@zeroc.com
                serial:B5:23:9D:1D:A5:12:CD:5B

            X509v3 Subject Alternative Name: 
                DNS:127.0.0.1, IP Address:127.0.0.1
    Signature Algorithm: md5WithRSAEncryption
        51:67:2e:0e:f1:b6:b2:cf:d3:83:d5:67:cf:1b:a4:5c:7e:4a:
        73:03:ce:36:4a:fa:29:b5:f3:32:cb:e5:9d:48:00:b4:a9:e7:
        85:ca:7e:9d:82:51:86:f5:85:6b:cd:6a:17:db:41:92:75:ee:
        93:d0:48:ec:15:63:15:7c:b4:13:8d:c7:f8:35:24:2c:76:f5:
        c5:2b:ab:37:c8:53:df:54:48:59:fd:c2:16:70:80:35:93:86:
        f9:c9:3f:5b:95:35:d9:59:31:8c:17:f8:2e:bb:2d:c2:eb:fa:
        79:46:5c:e7:91:28:37:ec:97:d8:a0:02:76:90:37:70:07:4f:
        48:04
-----BEGIN CERTIFICATE-----
MIIDqzCCAxSgAwIBAgIBATANBgkqhkiG9w0BAQQFADCBnTELMAkGA1UEBhMCVVMx
EDAOBgNVBAgTB0Zsb3JpZGExGzAZBgNVBAcTElBhbG0gQmVhY2ggR2FyZGVuczEU
MBIGA1UEChMLWmVyb0MsIEluYy4xDDAKBgNVBAsTA0ljZTEcMBoGA1UEAxMTWmVy
b0MgV2luUlQgVGVzdCBDQTEdMBsGCSqGSIb3DQEJARYOaW5mb0B6ZXJvYy5jb20w
HhcNMTMwMjA1MTMzODMyWhcNMTgwMjA0MTMzODMyWjB2MQswCQYDVQQGEwJVUzEQ
MA4GA1UECBMHRmxvcmlkYTEUMBIGA1UEChMLWmVyb0MsIEluYy4xDDAKBgNVBAsT
A0ljZTEdMBsGCSqGSIb3DQEJARYOaW5mb0B6ZXJvYy5jb20xEjAQBgNVBAMTCTEy
Ny4wLjAuMTCBnzANBgkqhkiG9w0BAQEFAAOBjQAwgYkCgYEA+o4NxPpKjP8zpsxl
7llE4NiPgoW9/VLAwXyZXO0Qgu8yIjWSKDpNo7FUzyLU5lWrFbFcraWP7ikdBqcY
VCIbbqAfCni4DY36VM0QS5pU1y+6s35ZsBttJCsVuItTBRywrJFuooepQVpqFUGJ
icwabR0/Qfp66fo6M4uau1bXAecCAwEAAaOCAR8wggEbMAkGA1UdEwQCMAAwHQYD
VR0OBBYEFBFr9bDuL9RG5o+7BcELqukouLa0MIHSBgNVHSMEgcowgceAFIwPh5h3
4TFIJ/t3uwpiPPEAN/XqoYGjpIGgMIGdMQswCQYDVQQGEwJVUzEQMA4GA1UECBMH
RmxvcmlkYTEbMBkGA1UEBxMSUGFsbSBCZWFjaCBHYXJkZW5zMRQwEgYDVQQKEwta
ZXJvQywgSW5jLjEMMAoGA1UECxMDSWNlMRwwGgYDVQQDExNaZXJvQyBXaW5SVCBU
ZXN0IENBMR0wGwYJKoZIhvcNAQkBFg5pbmZvQHplcm9jLmNvbYIJALUjnR2lEs1b
MBoGA1UdEQQTMBGCCTEyNy4wLjAuMYcEfwAAATANBgkqhkiG9w0BAQQFAAOBgQBR
Zy4O8bayz9OD1WfPG6RcfkpzA842SvoptfMyy+WdSAC0qeeFyn6dglGG9YVrzWoX
20GSde6T0EjsFWMVfLQTjcf4NSQsdvXFK6s3yFPfVEhZ/cIWcIA1k4b5yT9blTXZ
WTGMF/guuy3C6/p5RlznkSg37JfYoAJ2kDdwB09IBA==
-----END CERTIFICATE-----
