Certificate:
    Data:
        Version: 3 (0x2)
        Serial Number: 2 (0x2)
        Signature Algorithm: md5WithRSAEncryption
        Issuer: C=US, ST=Some State, L=Somewhere, O=Your Company, OU=Development, CN=Your Certificate Authority/Email=you@some.net
        Validity
            Not Before: Feb 23 19:57:38 2003 GMT
            Not After : Feb 23 19:57:38 2004 GMT
        Subject: C=US, ST=Some State, O=Your Company, OU=Development/Email=iceclient@@some.net, CN=Ice Client
        Subject Public Key Info:
            Public Key Algorithm: rsaEncryption
            RSA Public Key: (1024 bit)
                Modulus (1024 bit):
                    00:c1:55:f8:bc:8c:93:55:3c:5c:f7:64:61:33:12:
                    19:5e:3a:0d:2f:cd:a7:bf:d9:72:84:18:89:ec:a6:
                    74:43:44:63:5e:58:1d:e3:4a:4f:3b:cb:24:d0:60:
                    e9:1b:e8:d7:ee:60:4c:e3:4e:b8:70:cf:b2:91:f9:
                    dd:f6:d7:bc:fa:c5:ac:a0:71:5e:bf:c4:78:3c:b2:
                    5f:bc:91:1e:9c:45:04:7d:48:e6:42:04:a0:d2:51:
                    2f:7f:11:0c:97:5c:fb:64:b7:f9:17:03:41:6e:18:
                    37:44:72:5c:a9:fb:9f:a9:55:7d:4c:76:f7:3f:6a:
                    e5:58:2b:07:a3:ee:4c:14:3d
                Exponent: 65537 (0x10001)
        X509v3 extensions:
            X509v3 Basic Constraints: 
                CA:FALSE
            X509v3 Subject Key Identifier: 
                A1:15:B5:A5:0A:17:FB:81:16:E6:EF:10:05:C2:99:6D:AE:3C:CA:C4
            X509v3 Authority Key Identifier: 
                keyid:A3:62:E2:93:71:FF:B6:5E:05:97:1A:1B:72:88:6D:2B:69:09:71:64
                DirName:/C=US/ST=Some State/L=Somewhere/O=Your Company/OU=Development/CN=Your Certificate Authority/Email=you@some.net
                serial:00

    Signature Algorithm: md5WithRSAEncryption
        aa:01:ca:82:ae:63:16:ef:7c:99:6f:52:86:89:93:35:a0:50:
        c9:fc:96:7b:ec:41:81:7a:73:3c:88:e6:14:b0:e4:f1:0c:36:
        f1:ea:2f:3e:29:5d:8f:d6:7a:43:e0:3d:10:ec:97:ff:f9:ed:
        0a:5c:a5:d9:71:32:97:7b:03:81:8b:1e:a4:ea:c3:ee:ac:ad:
        ff:b2:61:ef:60:e5:83:b6:c9:62:83:5e:14:18:e9:81:74:f5:
        ec:e4:ba:4f:94:48:b1:77:2e:66:48:b8:92:22:ce:a3:14:40:
        c3:83:78:a4:af:24:04:55:19:95:70:80:38:ae:ca:1c:ef:31:
        ad:a4:e8:16:86:fa:76:aa:33:85:0a:41:55:16:d4:33:6c:8c:
        bd:d7:64:cd:cd:7d:e5:23:fa:fe:f6:73:fb:e6:1d:79:16:4a:
        c3:ab:40:00:0e:56:cf:1e:ac:9b:34:71:ec:b5:4e:2f:70:4f:
        b6:fb:d0:09:a7:d7:14:f0:7e:5f:9e:7f:0c:e4:69:98:4d:03:
        ed:6b:eb:de:87:82:a8:7d:17:28:30:f2:45:ee:86:ac:fc:aa:
        7e:1b:5b:0c:e8:67:3f:e6:90:d6:c1:a8:d1:b4:68:13:82:52:
        e6:b2:cd:57:cb:63:a8:3b:d6:6e:b0:7d:02:12:2d:90:52:88:
        88:4d:8e:dc
-----BEGIN CERTIFICATE-----
MIIEKjCCAxKgAwIBAgIBAjANBgkqhkiG9w0BAQQFADCBpTELMAkGA1UEBhMCVVMx
EzARBgNVBAgTClNvbWUgU3RhdGUxEjAQBgNVBAcTCVNvbWV3aGVyZTEVMBMGA1UE
ChMMWW91ciBDb21wYW55MRQwEgYDVQQLEwtEZXZlbG9wbWVudDEjMCEGA1UEAxMa
WW91ciBDZXJ0aWZpY2F0ZSBBdXRob3JpdHkxGzAZBgkqhkiG9w0BCQEWDHlvdUBz
b21lLm5ldDAeFw0wMzAyMjMxOTU3MzhaFw0wNDAyMjMxOTU3MzhaMIGIMQswCQYD
VQQGEwJVUzETMBEGA1UECBMKU29tZSBTdGF0ZTEVMBMGA1UEChMMWW91ciBDb21w
YW55MRQwEgYDVQQLEwtEZXZlbG9wbWVudDEiMCAGCSqGSIb3DQEJARYTaWNlY2xp
ZW50QEBzb21lLm5ldDETMBEGA1UEAxMKSWNlIENsaWVudDCBnzANBgkqhkiG9w0B
AQEFAAOBjQAwgYkCgYEAwVX4vIyTVTxc92RhMxIZXjoNL82nv9lyhBiJ7KZ0Q0Rj
Xlgd40pPO8sk0GDpG+jX7mBM4064cM+ykfnd9te8+sWsoHFev8R4PLJfvJEenEUE
fUjmQgSg0lEvfxEMl1z7ZLf5FwNBbhg3RHJcqfufqVV9THb3P2rlWCsHo+5MFD0C
AwEAAaOCAQIwgf8wCQYDVR0TBAIwADAdBgNVHQ4EFgQUoRW1pQoX+4EW5u8QBcKZ
ba48ysQwgdIGA1UdIwSByjCBx4AUo2Lik3H/tl4FlxobcohtK2kJcWShgaukgagw
gaUxCzAJBgNVBAYTAlVTMRMwEQYDVQQIEwpTb21lIFN0YXRlMRIwEAYDVQQHEwlT
b21ld2hlcmUxFTATBgNVBAoTDFlvdXIgQ29tcGFueTEUMBIGA1UECxMLRGV2ZWxv
cG1lbnQxIzAhBgNVBAMTGllvdXIgQ2VydGlmaWNhdGUgQXV0aG9yaXR5MRswGQYJ
KoZIhvcNAQkBFgx5b3VAc29tZS5uZXSCAQAwDQYJKoZIhvcNAQEEBQADggEBAKoB
yoKuYxbvfJlvUoaJkzWgUMn8lnvsQYF6czyI5hSw5PEMNvHqLz4pXY/WekPgPRDs
l//57QpcpdlxMpd7A4GLHqTqw+6srf+yYe9g5YO2yWKDXhQY6YF09ezkuk+USLF3
LmZIuJIizqMUQMODeKSvJARVGZVwgDiuyhzvMa2k6BaG+naqM4UKQVUW1DNsjL3X
ZM3NfeUj+v72c/vmHXkWSsOrQAAOVs8erJs0cey1Ti9wT7b70Amn1xTwfl+efwzk
aZhNA+1r696Hgqh9Fygw8kXuhqz8qn4bWwzoZz/mkNbBqNG0aBOCUuayzVfLY6g7
1m6wfQISLZBSiIhNjtw=
-----END CERTIFICATE-----
