Certificate:
    Data:
        Version: 1 (0x0)
        Serial Number: 2 (0x2)
        Signature Algorithm: md5WithRSAEncryption
        Issuer: C=CA, ST=Nova Scotia, L=Dartmouth, O=Mutable Realms, OU=Server Group, CN=Mutable Realms CA/Email=ssl_admin@mutablerealms.com
        Validity
            Not Before: Oct 26 17:28:19 2001 GMT
            Not After : Oct 26 17:28:19 2002 GMT
        Subject: C=CA, ST=Nova Scotia, O=Mutable Realms, OU=Server Group, CN=ASN Client RSA 1024/Email=aneal@mutablerealms.com
        Subject Public Key Info:
            Public Key Algorithm: rsaEncryption
            RSA Public Key: (1024 bit)
                Modulus (1024 bit):
                    00:b8:4a:73:b2:f5:fe:fe:c8:99:8b:ff:52:f6:7a:
                    02:19:65:87:45:1a:6e:ca:54:9f:6f:90:cf:11:77:
                    a8:88:ba:d1:51:27:b6:44:99:ce:5e:35:d3:4c:4e:
                    9b:e5:28:02:1e:f7:0d:75:7b:da:21:c3:3a:7f:70:
                    5f:5c:00:bb:88:f6:29:07:6a:c0:e1:b0:3b:ff:1e:
                    43:cb:bf:1e:30:f6:63:ac:1c:6b:20:b7:03:9c:56:
                    98:d8:1c:6f:87:d0:0c:4e:f0:3f:3e:63:6a:38:cf:
                    d5:ab:93:7d:37:4e:d2:26:14:3d:3b:03:7d:1f:81:
                    2e:21:03:9b:62:7f:16:6a:57
                Exponent: 65537 (0x10001)
    Signature Algorithm: md5WithRSAEncryption
        ae:24:8f:58:db:9f:e2:3d:84:4c:aa:6b:39:77:1b:5f:e2:d2:
        3a:4c:43:f1:5e:b6:40:1b:ba:5a:c4:9e:66:6f:6a:51:56:37:
        22:2f:05:15:a9:a5:80:bf:91:e9:f5:ea:58:42:a9:6e:e4:7b:
        65:34:c6:9b:55:d5:1d:27:6d:74:31:99:9d:0e:2c:64:6d:95:
        9f:80:87:58:b5:d1:ac:d8:9f:3f:f7:05:d6:a3:4a:3e:be:ea:
        8a:2b:29:48:38:ef:6e:49:2d:06:88:ba:ab:79:38:5d:49:73:
        fe:92:2a:f6:76:1f:88:9a:f6:5e:d2:ae:b8:71:10:19:6a:08:
        2e:f5
-----BEGIN CERTIFICATE-----
MIICuTCCAiICAQIwDQYJKoZIhvcNAQEEBQAwga8xCzAJBgNVBAYTAkNBMRQwEgYD
VQQIEwtOb3ZhIFNjb3RpYTESMBAGA1UEBxMJRGFydG1vdXRoMRcwFQYDVQQKEw5N
dXRhYmxlIFJlYWxtczEVMBMGA1UECxMMU2VydmVyIEdyb3VwMRowGAYDVQQDExFN
dXRhYmxlIFJlYWxtcyBDQTEqMCgGCSqGSIb3DQEJARYbc3NsX2FkbWluQG11dGFi
bGVyZWFsbXMuY29tMB4XDTAxMTAyNjE3MjgxOVoXDTAyMTAyNjE3MjgxOVowgZkx
CzAJBgNVBAYTAkNBMRQwEgYDVQQIEwtOb3ZhIFNjb3RpYTEXMBUGA1UEChMOTXV0
YWJsZSBSZWFsbXMxFTATBgNVBAsTDFNlcnZlciBHcm91cDEcMBoGA1UEAxMTQVNO
IENsaWVudCBSU0EgMTAyNDEmMCQGCSqGSIb3DQEJARYXYW5lYWxAbXV0YWJsZXJl
YWxtcy5jb20wgZ8wDQYJKoZIhvcNAQEBBQADgY0AMIGJAoGBALhKc7L1/v7ImYv/
UvZ6Ahllh0UabspUn2+QzxF3qIi60VEntkSZzl4100xOm+UoAh73DXV72iHDOn9w
X1wAu4j2KQdqwOGwO/8eQ8u/HjD2Y6wcayC3A5xWmNgcb4fQDE7wPz5jajjP1auT
fTdO0iYUPTsDfR+BLiEDm2J/FmpXAgMBAAEwDQYJKoZIhvcNAQEEBQADgYEAriSP
WNuf4j2ETKprOXcbX+LSOkxD8V62QBu6WsSeZm9qUVY3Ii8FFamlgL+R6fXqWEKp
buR7ZTTGm1XVHSdtdDGZnQ4sZG2Vn4CHWLXRrNifP/cF1qNKPr7qiispSDjvbkkt
Boi6q3k4XUlz/pIq9nYfiJr2XtKuuHEQGWoILvU=
-----END CERTIFICATE-----
