Certificate:
    Data:
        Version: 3 (0x2)
        Serial Number: 292 (0x124)
        Signature Algorithm: md5WithRSAEncryption
        Issuer: C=AU, ST=QLD, O=Mincom Pty. Ltd., OU=CS, CN=SSLeay demo server
        Validity
            Not Before: Oct 10 15:52:44 2001 GMT
            Not After : Oct 10 15:52:44 2002 GMT
        Subject: C=AU, ST=QLD, O=Mincom Pty. Ltd., CN=Marc Laukien/Email=mlaukien@mutablerealms.com
        Subject Public Key Info:
            Public Key Algorithm: rsaEncryption
            RSA Public Key: (1024 bit)
                Modulus (1024 bit):
                    00:be:43:72:46:7f:85:dc:a8:3b:b8:6a:5e:bf:72:
                    84:ce:a7:85:f9:a6:89:96:ab:c8:2b:66:9d:9f:78:
                    6e:72:75:85:30:44:f4:4f:9d:f5:3e:e7:74:bb:b1:
                    c8:cc:d0:74:8b:11:01:6d:4f:79:85:8c:4c:ef:9e:
                    68:c4:f2:d0:23:c0:25:6b:18:bb:2c:da:e8:5c:7c:
                    82:69:14:6e:a1:17:05:45:b9:b2:87:10:cb:e2:34:
                    8c:a7:62:bb:19:e9:29:81:82:c3:88:1f:15:66:45:
                    13:64:89:9f:8a:85:5b:f3:f4:fa:83:b4:58:1c:1c:
                    07:9c:ca:8e:46:42:ac:e8:93
                Exponent: 65537 (0x10001)
        X509v3 extensions:
            X509v3 Basic Constraints: 
                CA:FALSE
            Netscape Comment: 
                OpenSSL Generated Certificate
            X509v3 Subject Key Identifier: 
                EA:EA:67:FC:CB:8F:16:13:AD:5B:C7:81:81:07:CC:85:6C:2B:A1:C8
            X509v3 Authority Key Identifier: 
                DirName:/C=AU/ST=QLD/CN=SSLeay/rsa test CA
                serial:04

    Signature Algorithm: md5WithRSAEncryption
        9b:f6:ba:3e:77:03:a3:0a:c1:82:0a:8f:5a:f7:2c:69:36:73:
        9b:b1:17:7b:77:41:ab:5b:e7:7e:e2:25:71:5d:08:58:14:c4:
        2d:1e:88:16:e0:fc:d5:03:48:52:ca:74:4c:d8:83:ee:8f:6b:
        b5:de:a3:15:e4:fa:54:c7:01:6b
-----BEGIN CERTIFICATE-----
MIICtjCCAmCgAwIBAgICASQwDQYJKoZIhvcNAQEEBQAwYDELMAkGA1UEBhMCQVUx
DDAKBgNVBAgTA1FMRDEZMBcGA1UEChMQTWluY29tIFB0eS4gTHRkLjELMAkGA1UE
CxMCQ1MxGzAZBgNVBAMTElNTTGVheSBkZW1vIHNlcnZlcjAeFw0wMTEwMTAxNTUy
NDRaFw0wMjEwMTAxNTUyNDRaMHgxCzAJBgNVBAYTAkFVMQwwCgYDVQQIEwNRTEQx
GTAXBgNVBAoTEE1pbmNvbSBQdHkuIEx0ZC4xFTATBgNVBAMTDE1hcmMgTGF1a2ll
bjEpMCcGCSqGSIb3DQEJARYabWxhdWtpZW5AbXV0YWJsZXJlYWxtcy5jb20wgZ8w
DQYJKoZIhvcNAQEBBQADgY0AMIGJAoGBAL5DckZ/hdyoO7hqXr9yhM6nhfmmiZar
yCtmnZ94bnJ1hTBE9E+d9T7ndLuxyMzQdIsRAW1PeYWMTO+eaMTy0CPAJWsYuyza
6Fx8gmkUbqEXBUW5socQy+I0jKdiuxnpKYGCw4gfFWZFE2SJn4qFW/P0+oO0WBwc
B5zKjkZCrOiTAgMBAAGjgacwgaQwCQYDVR0TBAIwADAsBglghkgBhvhCAQ0EHxYd
T3BlblNTTCBHZW5lcmF0ZWQgQ2VydGlmaWNhdGUwHQYDVR0OBBYEFOrqZ/zLjxYT
rVvHgYEHzIVsK6HIMEoGA1UdIwRDMEGhPKQ6MDgxCzAJBgNVBAYTAkFVMQwwCgYD
VQQIEwNRTEQxGzAZBgNVBAMTElNTTGVheS9yc2EgdGVzdCBDQYIBBDANBgkqhkiG
9w0BAQQFAANBAJv2uj53A6MKwYIKj1r3LGk2c5uxF3t3Qatb537iJXFdCFgUxC0e
iBbg/NUDSFLKdEzYg+6Pa7XeoxXk+lTHAWs=
-----END CERTIFICATE-----
