Certificate:
    Data:
        Version: 3 (0x2)
        Serial Number: 2 (0x2)
        Signature Algorithm: md5WithRSAEncryption
        Issuer: C=US, ST=Some State, L=Somewhere, O=Your Company, OU=Development, CN=Your Certificate Authority/emailAddress=you@some.net
        Validity
            Not Before: Dec 31 03:17:27 2005 GMT
            Not After : Dec 30 03:17:27 2010 GMT
        Subject: C=US, ST=Some State, O=Your Company, OU=Development/emailAddress=iceclient@@some.net, CN=Ice Client
        Subject Public Key Info:
            Public Key Algorithm: rsaEncryption
            RSA Public Key: (1024 bit)
                Modulus (1024 bit):
                    00:c0:fd:a4:01:41:22:56:83:a3:a3:4a:de:b2:20:
                    65:a4:61:46:25:d5:5b:a3:a2:bf:1b:54:99:f6:5e:
                    ba:72:af:78:0a:ba:f1:97:cf:21:61:9a:5f:78:e2:
                    77:1b:9a:5d:1e:24:23:60:b9:ba:d3:0a:bb:01:28:
                    9b:a9:72:11:51:ce:ac:70:82:ec:54:fc:08:6e:33:
                    14:b1:73:45:53:c3:66:12:aa:cd:e6:3d:ec:4b:2f:
                    18:5c:64:7d:d7:86:d7:50:44:ff:1b:01:88:72:46:
                    74:cb:d4:b7:0d:dd:99:44:f1:79:ba:eb:a6:8c:30:
                    ec:04:14:f1:18:a9:82:e0:1b
                Exponent: 65537 (0x10001)
        X509v3 extensions:
            X509v3 Basic Constraints: 
            CA:FALSE
            X509v3 Subject Key Identifier: 
            72:60:52:AA:96:10:55:23:8A:6A:71:91:0D:EA:CB:79:06:FA:55:C0
            X509v3 Authority Key Identifier: 
            keyid:38:C1:34:BF:4C:FA:EE:37:71:B7:EF:F6:16:21:15:22:10:69:15:C2
            DirName:/C=US/ST=Some State/L=Somewhere/O=Your Company/OU=Development/CN=Your Certificate Authority/emailAddress=you@some.net
            serial:00

    Signature Algorithm: md5WithRSAEncryption
        0d:0a:ec:0e:27:ab:f6:e4:e4:47:73:6d:72:ed:aa:ff:ea:fc:
        15:df:31:fb:8d:bd:bf:ba:b3:fd:68:1f:bc:68:9b:e0:75:88:
        6c:bc:4a:a8:db:f3:ae:4a:88:35:d3:eb:34:99:14:66:31:b9:
        53:4e:6b:74:e0:93:54:c0:ce:2a:39:47:2d:06:23:4f:82:10:
        6e:14:0a:00:24:98:db:19:a4:2b:ad:65:63:d3:a6:8c:31:32:
        fc:2d:5f:34:f2:be:98:62:77:c5:a5:10:f1:4b:23:ab:bb:8c:
        c4:3d:34:70:f6:1f:9a:6e:19:59:26:47:b3:a7:6c:d7:f9:6a:
        c8:7a:1c:7e:eb:ba:14:72:e5:1d:44:8f:77:87:11:bf:c0:85:
        7c:ca:cb:0a:12:b7:d1:b5:b9:6f:5f:b1:ee:73:65:aa:5e:2c:
        ec:1b:1f:77:0b:53:fe:e5:77:76:52:e7:00:44:50:98:8a:cd:
        09:0f:98:78:7a:b2:6f:7d:70:df:0d:af:f5:08:e0:f8:74:36:
        14:a3:57:fd:50:0d:10:a3:50:14:19:a6:08:7e:69:11:aa:70:
        81:69:0d:51:66:7d:8a:b4:ec:6e:fb:d8:4f:50:0a:a3:fc:e6:
        89:6e:33:b5:10:de:e0:ba:80:05:98:d4:cc:ab:6e:b8:31:ad:
        29:6f:15:95
-----BEGIN CERTIFICATE-----
MIIEKjCCAxKgAwIBAgIBAjANBgkqhkiG9w0BAQQFADCBpTELMAkGA1UEBhMCVVMx
EzARBgNVBAgTClNvbWUgU3RhdGUxEjAQBgNVBAcTCVNvbWV3aGVyZTEVMBMGA1UE
ChMMWW91ciBDb21wYW55MRQwEgYDVQQLEwtEZXZlbG9wbWVudDEjMCEGA1UEAxMa
WW91ciBDZXJ0aWZpY2F0ZSBBdXRob3JpdHkxGzAZBgkqhkiG9w0BCQEWDHlvdUBz
b21lLm5ldDAeFw0wNTEyMzEwMzE3MjdaFw0xMDEyMzAwMzE3MjdaMIGIMQswCQYD
VQQGEwJVUzETMBEGA1UECBMKU29tZSBTdGF0ZTEVMBMGA1UEChMMWW91ciBDb21w
YW55MRQwEgYDVQQLEwtEZXZlbG9wbWVudDEiMCAGCSqGSIb3DQEJARYTaWNlY2xp
ZW50QEBzb21lLm5ldDETMBEGA1UEAxMKSWNlIENsaWVudDCBnzANBgkqhkiG9w0B
AQEFAAOBjQAwgYkCgYEAwP2kAUEiVoOjo0resiBlpGFGJdVbo6K/G1SZ9l66cq94
Crrxl88hYZpfeOJ3G5pdHiQjYLm60wq7ASibqXIRUc6scILsVPwIbjMUsXNFU8Nm
EqrN5j3sSy8YXGR914bXUET/GwGIckZ0y9S3Dd2ZRPF5uuumjDDsBBTxGKmC4BsC
AwEAAaOCAQIwgf8wCQYDVR0TBAIwADAdBgNVHQ4EFgQUcmBSqpYQVSOKanGRDerL
eQb6VcAwgdIGA1UdIwSByjCBx4AUOME0v0z67jdxt+/2FiEVIhBpFcKhgaukgagw
gaUxCzAJBgNVBAYTAlVTMRMwEQYDVQQIEwpTb21lIFN0YXRlMRIwEAYDVQQHEwlT
b21ld2hlcmUxFTATBgNVBAoTDFlvdXIgQ29tcGFueTEUMBIGA1UECxMLRGV2ZWxv
cG1lbnQxIzAhBgNVBAMTGllvdXIgQ2VydGlmaWNhdGUgQXV0aG9yaXR5MRswGQYJ
KoZIhvcNAQkBFgx5b3VAc29tZS5uZXSCAQAwDQYJKoZIhvcNAQEEBQADggEBAA0K
7A4nq/bk5EdzbXLtqv/q/BXfMfuNvb+6s/1oH7xom+B1iGy8Sqjb865KiDXT6zSZ
FGYxuVNOa3Tgk1TAzio5Ry0GI0+CEG4UCgAkmNsZpCutZWPTpowxMvwtXzTyvphi
d8WlEPFLI6u7jMQ9NHD2H5puGVkmR7OnbNf5ash6HH7ruhRy5R1Ej3eHEb/AhXzK
ywoSt9G1uW9fse5zZapeLOwbH3cLU/7ld3ZS5wBEUJiKzQkPmHh6sm99cN8Nr/UI
4Ph0NhSjV/1QDRCjUBQZpgh+aRGqcIFpDVFmfYq07G772E9QCqP85oluM7UQ3uC6
gAWY1MyrbrgxrSlvFZU=
-----END CERTIFICATE-----
