Certificate:
    Data:
        Version: 3 (0x2)
        Serial Number: 2 (0x2)
        Signature Algorithm: md5WithRSAEncryption
        Issuer: C=US, ST=Some State, L=Somewhere, O=Your Company, OU=Development, CN=Your Certificate Authority/emailAddress=you@some.net
        Validity
            Not Before: Feb 23 23:28:18 2004 GMT
            Not After : Feb 22 23:28:18 2005 GMT
        Subject: C=US, ST=Some State, O=Your Company, OU=Development/emailAddress=iceclient@@some.net, CN=Ice Client
        Subject Public Key Info:
            Public Key Algorithm: rsaEncryption
            RSA Public Key: (1024 bit)
                Modulus (1024 bit):
                    00:d1:6e:22:61:22:bf:a4:af:13:ff:eb:40:75:80:
                    e1:3f:85:cd:40:69:34:72:27:46:c6:9f:00:20:d9:
                    d2:5c:1e:f9:e9:f9:3b:e5:0c:d8:8c:b5:5c:17:8f:
                    70:35:e3:66:73:01:80:f2:0e:54:6b:54:f3:40:ee:
                    27:24:9f:7d:9b:f1:e0:0e:12:fe:56:06:d2:08:ee:
                    67:c6:3e:b7:97:79:2e:84:33:ab:c1:fe:7a:ab:61:
                    e8:0c:21:de:b4:dd:07:4a:ff:e6:e3:ba:44:c3:d0:
                    84:70:9f:b2:f1:ef:84:12:d1:bf:ba:62:f8:58:1b:
                    da:0a:1c:3c:cb:8c:f4:55:4f
                Exponent: 65537 (0x10001)
        X509v3 extensions:
            X509v3 Basic Constraints: 
            CA:FALSE
            X509v3 Subject Key Identifier: 
            0F:CC:C5:BD:B6:B2:CC:6C:06:60:0F:59:2A:9E:EF:55:6B:A1:89:C7
            X509v3 Authority Key Identifier: 
            keyid:D2:56:3D:94:01:2F:92:7F:07:BC:C7:18:EB:41:4E:75:3F:56:00:F1
            DirName:/C=US/ST=Some State/L=Somewhere/O=Your Company/OU=Development/CN=Your Certificate Authority/emailAddress=you@some.net
            serial:00

    Signature Algorithm: md5WithRSAEncryption
        2a:3a:62:b5:aa:34:8e:b6:f9:0b:de:9b:db:31:b2:14:37:bc:
        39:44:74:c4:fd:96:0c:73:32:ba:4c:56:7f:dc:16:91:19:90:
        37:1b:20:2e:79:4e:40:1c:79:e1:2c:33:e4:80:a9:ee:ba:45:
        85:1e:e4:6c:1a:95:24:e0:62:cd:a6:63:c8:41:5d:77:90:59:
        c9:c3:e7:53:7d:e2:25:ac:9e:1d:13:0f:05:d7:7e:c9:bb:5a:
        28:7d:e9:90:6d:a7:ab:9a:39:3a:68:ba:ac:b6:d4:f8:a5:ab:
        4c:05:b4:eb:ff:a4:80:1c:96:e3:e6:6c:6a:d4:fb:98:c1:2b:
        42:ef:a7:33:33:48:14:25:d5:73:28:41:e6:31:5f:94:53:cd:
        a1:9b:ea:61:4b:93:81:4a:f5:cf:bc:0d:42:25:e8:2d:a4:df:
        81:5c:d6:26:d3:65:df:e3:5e:b9:a0:d9:39:c5:e3:ba:01:f0:
        d8:d7:64:d7:ff:84:d6:dc:79:4d:4a:8c:a3:c2:7d:4c:40:41:
        6d:fd:a1:6c:49:df:d9:19:23:90:26:e3:74:54:8c:29:7a:26:
        03:c1:01:07:4c:2a:bc:fe:a1:5d:a0:67:5d:58:32:9a:50:fa:
        0a:ac:25:a4:00:3b:f6:74:44:f7:c3:1d:ad:33:07:2b:c3:1d:
        59:f5:ef:ce
-----BEGIN CERTIFICATE-----
MIIEKjCCAxKgAwIBAgIBAjANBgkqhkiG9w0BAQQFADCBpTELMAkGA1UEBhMCVVMx
EzARBgNVBAgTClNvbWUgU3RhdGUxEjAQBgNVBAcTCVNvbWV3aGVyZTEVMBMGA1UE
ChMMWW91ciBDb21wYW55MRQwEgYDVQQLEwtEZXZlbG9wbWVudDEjMCEGA1UEAxMa
WW91ciBDZXJ0aWZpY2F0ZSBBdXRob3JpdHkxGzAZBgkqhkiG9w0BCQEWDHlvdUBz
b21lLm5ldDAeFw0wNDAyMjMyMzI4MThaFw0wNTAyMjIyMzI4MThaMIGIMQswCQYD
VQQGEwJVUzETMBEGA1UECBMKU29tZSBTdGF0ZTEVMBMGA1UEChMMWW91ciBDb21w
YW55MRQwEgYDVQQLEwtEZXZlbG9wbWVudDEiMCAGCSqGSIb3DQEJARYTaWNlY2xp
ZW50QEBzb21lLm5ldDETMBEGA1UEAxMKSWNlIENsaWVudDCBnzANBgkqhkiG9w0B
AQEFAAOBjQAwgYkCgYEA0W4iYSK/pK8T/+tAdYDhP4XNQGk0cidGxp8AINnSXB75
6fk75QzYjLVcF49wNeNmcwGA8g5Ua1TzQO4nJJ99m/HgDhL+VgbSCO5nxj63l3ku
hDOrwf56q2HoDCHetN0HSv/m47pEw9CEcJ+y8e+EEtG/umL4WBvaChw8y4z0VU8C
AwEAAaOCAQIwgf8wCQYDVR0TBAIwADAdBgNVHQ4EFgQUD8zFvbayzGwGYA9ZKp7v
VWuhiccwgdIGA1UdIwSByjCBx4AU0lY9lAEvkn8HvMcY60FOdT9WAPGhgaukgagw
gaUxCzAJBgNVBAYTAlVTMRMwEQYDVQQIEwpTb21lIFN0YXRlMRIwEAYDVQQHEwlT
b21ld2hlcmUxFTATBgNVBAoTDFlvdXIgQ29tcGFueTEUMBIGA1UECxMLRGV2ZWxv
cG1lbnQxIzAhBgNVBAMTGllvdXIgQ2VydGlmaWNhdGUgQXV0aG9yaXR5MRswGQYJ
KoZIhvcNAQkBFgx5b3VAc29tZS5uZXSCAQAwDQYJKoZIhvcNAQEEBQADggEBACo6
YrWqNI62+Qvem9sxshQ3vDlEdMT9lgxzMrpMVn/cFpEZkDcbIC55TkAceeEsM+SA
qe66RYUe5GwalSTgYs2mY8hBXXeQWcnD51N94iWsnh0TDwXXfsm7Wih96ZBtp6ua
OTpouqy21Pilq0wFtOv/pIAcluPmbGrU+5jBK0LvpzMzSBQl1XMoQeYxX5RTzaGb
6mFLk4FK9c+8DUIl6C2k34Fc1ibTZd/jXrmg2TnF47oB8NjXZNf/hNbceU1KjKPC
fUxAQW39oWxJ39kZI5Am43RUjCl6JgPBAQdMKrz+oV2gZ11YMppQ+gqsJaQAO/Z0
RPfDHa0zByvDHVn1784=
-----END CERTIFICATE-----
