Certificate:
    Data:
        Version: 3 (0x2)
        Serial Number: 2 (0x2)
        Signature Algorithm: md5WithRSAEncryption
        Issuer: C=US, ST=Alabama, L=Huntsville, O=Mutable Realms, OU=Ice Age, CN=Mutable CA
        Validity
            Not Before: Feb 22 16:13:18 2002 GMT
            Not After : Feb 22 16:13:18 2003 GMT
        Subject: C=US, ST=Alabama, O=Mutable Realms, OU=Ice Age, CN=MR RSA 1024 Client Test Cert/Email=mrclirsa1024@some.net
        Subject Public Key Info:
            Public Key Algorithm: rsaEncryption
            RSA Public Key: (1024 bit)
                Modulus (1024 bit):
                    00:b0:98:c9:20:6e:11:0f:39:47:86:33:2c:67:a9:
                    4c:3d:eb:9d:19:a7:12:66:c5:e3:18:55:9c:53:97:
                    67:ba:db:bd:86:e3:b8:20:0c:3d:58:aa:ed:da:91:
                    7a:29:10:3a:61:9c:5e:22:38:62:ea:af:ab:39:ec:
                    f4:94:51:4e:e3:05:d2:d4:91:6b:70:97:28:c9:75:
                    78:18:e3:da:85:d9:08:01:d0:95:29:bc:da:79:90:
                    37:b9:76:ba:e1:e1:f5:d2:0c:b1:e7:d9:b8:55:72:
                    f3:28:f8:ba:29:8b:58:8b:b2:f3:0e:a7:ac:b3:99:
                    0e:88:9a:59:83:fc:d2:09:51
                Exponent: 65537 (0x10001)
        X509v3 extensions:
            X509v3 Subject Key Identifier: 
                0A:73:7A:10:E0:C1:CC:25:64:21:49:53:FC:3E:8D:23:72:B0:38:51
            X509v3 Authority Key Identifier: 
                keyid:14:95:39:7B:05:F0:9B:88:EC:B7:0D:66:4C:8F:F0:09:70:CF:63:D9
                DirName:/C=US/ST=Alabama/L=Huntsville/O=Mutable Realms/OU=Ice Age/CN=Mutable CA
                serial:00

            X509v3 Basic Constraints: 
                CA:TRUE
    Signature Algorithm: md5WithRSAEncryption
        59:a7:7a:e0:2a:bc:8b:6c:61:b2:e0:93:d2:5e:7e:82:76:1f:
        2a:71:c7:b7:0f:ff:53:63:1f:0e:b4:d0:91:33:88:8e:05:00:
        ee:1a:db:48:2d:6e:15:b5:f0:73:a9:b6:c5:ea:26:76:8d:7b:
        19:f5:bf:9e:26:d8:64:96:a0:c8:f4:eb:a8:75:b7:5d:42:77:
        99:43:21:39:6d:cf:22:02:6b:64:f6:46:47:4d:f7:42:dc:83:
        a8:8c:a4:e6:bf:58:ed:f2:bd:9a:f9:67:8c:6c:28:3d:2a:21:
        0d:64:5e:59:23:b5:3f:b8:a0:03:62:d5:b4:01:8e:95:ff:2e:
        5d:56
-----BEGIN CERTIFICATE-----
MIIDVDCCAr2gAwIBAgIBAjANBgkqhkiG9w0BAQQFADB0MQswCQYDVQQGEwJVUzEQ
MA4GA1UECBMHQWxhYmFtYTETMBEGA1UEBxMKSHVudHN2aWxsZTEXMBUGA1UEChMO
TXV0YWJsZSBSZWFsbXMxEDAOBgNVBAsTB0ljZSBBZ2UxEzARBgNVBAMTCk11dGFi
bGUgQ0EwHhcNMDIwMjIyMTYxMzE4WhcNMDMwMjIyMTYxMzE4WjCBlzELMAkGA1UE
BhMCVVMxEDAOBgNVBAgTB0FsYWJhbWExFzAVBgNVBAoTDk11dGFibGUgUmVhbG1z
MRAwDgYDVQQLEwdJY2UgQWdlMSUwIwYDVQQDExxNUiBSU0EgMTAyNCBDbGllbnQg
VGVzdCBDZXJ0MSQwIgYJKoZIhvcNAQkBFhVtcmNsaXJzYTEwMjRAc29tZS5uZXQw
gZ8wDQYJKoZIhvcNAQEBBQADgY0AMIGJAoGBALCYySBuEQ85R4YzLGepTD3rnRmn
EmbF4xhVnFOXZ7rbvYbjuCAMPViq7dqReikQOmGcXiI4Yuqvqzns9JRRTuMF0tSR
a3CXKMl1eBjj2oXZCAHQlSm82nmQN7l2uuHh9dIMsefZuFVy8yj4uimLWIuy8w6n
rLOZDoiaWYP80glRAgMBAAGjgdEwgc4wHQYDVR0OBBYEFApzehDgwcwlZCFJU/w+
jSNysDhRMIGeBgNVHSMEgZYwgZOAFBSVOXsF8JuI7LcNZkyP8Alwz2PZoXikdjB0
MQswCQYDVQQGEwJVUzEQMA4GA1UECBMHQWxhYmFtYTETMBEGA1UEBxMKSHVudHN2
aWxsZTEXMBUGA1UEChMOTXV0YWJsZSBSZWFsbXMxEDAOBgNVBAsTB0ljZSBBZ2Ux
EzARBgNVBAMTCk11dGFibGUgQ0GCAQAwDAYDVR0TBAUwAwEB/zANBgkqhkiG9w0B
AQQFAAOBgQBZp3rgKryLbGGy4JPSXn6Cdh8qcce3D/9TYx8OtNCRM4iOBQDuGttI
LW4VtfBzqbbF6iZ2jXsZ9b+eJthklqDI9OuodbddQneZQyE5bc8iAmtk9kZHTfdC
3IOojKTmv1jt8r2a+WeMbCg9KiENZF5ZI7U/uKADYtW0AY6V/y5dVg==
-----END CERTIFICATE-----
