Certificate:
    Data:
        Version: 3 (0x2)
        Serial Number: 2 (0x2)
        Signature Algorithm: md5WithRSAEncryption
        Issuer: C=CA, ST=Nova Scotia, L=Dartmouth, O=Mutable Realms North, OU=Development, CN=Mutable Realms North CA/Email=mrnorth@some.net
        Validity
            Not Before: Dec  3 15:45:51 2001 GMT
            Not After : Dec  3 15:45:51 2002 GMT
        Subject: C=CA, ST=Nova Scotia, O=Mutable Realms North, OU=Development, CN=Darius Khalior/Email=dkhalior@some.net
        Subject Public Key Info:
            Public Key Algorithm: rsaEncryption
            RSA Public Key: (1024 bit)
                Modulus (1024 bit):
                    00:d8:e8:77:de:a2:08:40:2b:ee:18:7e:ca:5a:c8:
                    4d:59:c8:2e:04:d8:ce:86:5e:8a:c8:66:ab:34:89:
                    4a:7b:d4:2d:73:89:65:32:be:fa:ab:7c:a4:74:08:
                    b7:94:15:4c:b8:3d:9f:d6:58:9a:85:bc:69:9c:ea:
                    f3:99:76:01:80:9d:be:cb:c1:9a:48:3b:97:90:4e:
                    c9:26:19:ca:f9:18:f8:3f:e5:48:ad:be:cb:8c:f8:
                    3c:f4:71:13:64:27:ae:7d:1d:e1:97:37:37:73:35:
                    d5:19:67:03:66:f0:bf:8e:c3:00:54:b5:38:6f:d5:
                    f2:cd:c6:39:46:16:a1:5f:3d
                Exponent: 65537 (0x10001)
        X509v3 extensions:
            X509v3 Basic Constraints: 
                CA:FALSE
            Netscape Comment: 
                OpenSSL Generated Certificate
            X509v3 Subject Key Identifier: 
                ED:FD:50:DD:2B:FA:D2:23:CF:B8:DD:D6:C5:0C:AE:59:6C:07:AF:AA
            X509v3 Authority Key Identifier: 
                keyid:CB:BD:73:45:FA:96:09:73:AC:BF:BE:5E:70:1B:32:D0:DD:6C:6F:02
                DirName:/C=CA/ST=Nova Scotia/L=Dartmouth/O=Mutable Realms North/OU=Development/CN=Mutable Realms North CA/Email=mrnorth@some.net
                serial:00

    Signature Algorithm: md5WithRSAEncryption
        54:2c:bc:7c:88:9b:21:e4:79:04:91:d3:05:02:63:29:20:84:
        e4:c1:39:30:2a:31:b9:d5:bc:26:6f:42:e1:95:b3:44:74:c6:
        25:15:6d:32:68:96:67:49:ca:97:76:8e:f2:3b:76:26:17:67:
        d7:c7:db:7d:8c:ed:54:4f:43:54:b9:08:f6:70:15:ff:9f:59:
        19:30:d7:cf:57:39:3e:47:cb:1c:44:b5:4c:8e:46:de:44:04:
        c8:b1:5f:27:70:1f:2c:10:bf:dd:4f:a0:5b:ec:89:94:08:09:
        45:2d:6d:9f:72:d4:49:51:27:a3:8b:b9:6c:fa:ae:a1:4c:f7:
        8c:d5
-----BEGIN CERTIFICATE-----
MIID9zCCA2CgAwIBAgIBAjANBgkqhkiG9w0BAQQFADCBrzELMAkGA1UEBhMCQ0Ex
FDASBgNVBAgTC05vdmEgU2NvdGlhMRIwEAYDVQQHEwlEYXJ0bW91dGgxHTAbBgNV
BAoTFE11dGFibGUgUmVhbG1zIE5vcnRoMRQwEgYDVQQLEwtEZXZlbG9wbWVudDEg
MB4GA1UEAxMXTXV0YWJsZSBSZWFsbXMgTm9ydGggQ0ExHzAdBgkqhkiG9w0BCQEW
EG1ybm9ydGhAc29tZS5uZXQwHhcNMDExMjAzMTU0NTUxWhcNMDIxMjAzMTU0NTUx
WjCBkzELMAkGA1UEBhMCQ0ExFDASBgNVBAgTC05vdmEgU2NvdGlhMR0wGwYDVQQK
ExRNdXRhYmxlIFJlYWxtcyBOb3J0aDEUMBIGA1UECxMLRGV2ZWxvcG1lbnQxFzAV
BgNVBAMTDkRhcml1cyBLaGFsaW9yMSAwHgYJKoZIhvcNAQkBFhFka2hhbGlvckBz
b21lLm5ldDCBnzANBgkqhkiG9w0BAQEFAAOBjQAwgYkCgYEA2Oh33qIIQCvuGH7K
WshNWcguBNjOhl6KyGarNIlKe9Qtc4llMr76q3ykdAi3lBVMuD2f1liahbxpnOrz
mXYBgJ2+y8GaSDuXkE7JJhnK+Rj4P+VIrb7LjPg89HETZCeufR3hlzc3czXVGWcD
ZvC/jsMAVLU4b9XyzcY5RhahXz0CAwEAAaOCATswggE3MAkGA1UdEwQCMAAwLAYJ
YIZIAYb4QgENBB8WHU9wZW5TU0wgR2VuZXJhdGVkIENlcnRpZmljYXRlMB0GA1Ud
DgQWBBTt/VDdK/rSI8+43dbFDK5ZbAevqjCB3AYDVR0jBIHUMIHRgBTLvXNF+pYJ
c6y/vl5wGzLQ3WxvAqGBtaSBsjCBrzELMAkGA1UEBhMCQ0ExFDASBgNVBAgTC05v
dmEgU2NvdGlhMRIwEAYDVQQHEwlEYXJ0bW91dGgxHTAbBgNVBAoTFE11dGFibGUg
UmVhbG1zIE5vcnRoMRQwEgYDVQQLEwtEZXZlbG9wbWVudDEgMB4GA1UEAxMXTXV0
YWJsZSBSZWFsbXMgTm9ydGggQ0ExHzAdBgkqhkiG9w0BCQEWEG1ybm9ydGhAc29t
ZS5uZXSCAQAwDQYJKoZIhvcNAQEEBQADgYEAVCy8fIibIeR5BJHTBQJjKSCE5ME5
MCoxudW8Jm9C4ZWzRHTGJRVtMmiWZ0nKl3aO8jt2Jhdn18fbfYztVE9DVLkI9nAV
/59ZGTDXz1c5PkfLHES1TI5G3kQEyLFfJ3AfLBC/3U+gW+yJlAgJRS1tn3LUSVEn
o4u5bPquoUz3jNU=
-----END CERTIFICATE-----
