Certificate:
    Data:
        Version: 3 (0x2)
        Serial Number: 1 (0x1)
        Signature Algorithm: md5WithRSAEncryption
        Issuer: C=US, ST=Massachusetts, L=Billerica, O=ZeroC, OU=Ice, CN=ZeroC US
        Validity
            Not Before: Feb 22 16:12:18 2002 GMT
            Not After : Feb 22 16:12:18 2003 GMT
        Subject: C=US, ST=Massachusetts, O=ZeroC, OU=Ice, CN=MR RSA 1024 Server Test Cert/Email=srvrsa1024@some.net
        Subject Public Key Info:
            Public Key Algorithm: rsaEncryption
            RSA Public Key: (1024 bit)
                Modulus (1024 bit):
                    00:bb:12:55:41:d5:09:97:ee:8f:65:9f:17:ed:14:
                    4e:fe:2b:14:75:5a:96:47:47:fb:4b:9b:a7:0a:7c:
                    89:d2:a3:b0:2a:ab:ef:ab:a7:82:24:d1:29:c1:29:
                    6b:c0:14:85:5d:05:dd:04:c1:b4:4a:ac:a9:bf:ce:
                    e6:72:36:8d:6c:8c:f2:c0:e9:ce:2b:c0:68:8c:9e:
                    48:6f:61:6a:f5:a4:36:e1:6b:a2:f8:2b:bd:6f:cb:
                    0f:54:d6:43:a5:7b:7a:fd:d2:43:02:c2:38:a4:76:
                    d9:94:1d:7d:7c:d7:fe:9e:93:3e:60:d3:2d:5d:41:
                    b7:9a:ed:18:08:a6:bd:6f:65
                Exponent: 65537 (0x10001)
        X509v3 extensions:
            X509v3 Subject Key Identifier: 
                11:09:FF:EC:47:C0:B9:4F:3D:D1:39:A7:0A:45:BE:1A:F0:25:13:9D
            X509v3 Authority Key Identifier: 
                keyid:14:95:39:7B:05:F0:9B:88:EC:B7:0D:66:4C:8F:F0:09:70:CF:63:D9
                DirName:/C=US/ST=Massachusetts/L=Billerica/O=ZeroC/OU=Ice/CN=ZeroC US
                serial:00

            X509v3 Basic Constraints: 
                CA:TRUE
    Signature Algorithm: md5WithRSAEncryption
        6a:d4:8c:b0:3d:4f:4c:e2:b7:42:4c:bd:64:fc:e2:bb:68:06:
        06:d8:ca:d0:cd:c5:83:d0:b3:69:d9:fd:db:8f:5c:ec:ad:19:
        8e:ab:c3:02:7c:92:d3:3f:61:13:76:c5:78:b5:05:1e:c4:a8:
        39:ff:c0:02:ee:d4:75:f8:ba:e1:f6:bc:a6:ae:07:75:68:34:
        08:99:c5:53:bf:30:8e:da:8a:2b:71:08:40:81:f8:dc:82:3b:
        d6:30:c8:15:cb:70:78:1e:bb:03:1d:d3:21:3c:be:d3:c6:0b:
        8d:9f:43:b1:37:1b:f0:fb:a5:67:df:76:13:62:36:fa:0f:47:
        6c:04
-----BEGIN CERTIFICATE-----
MIIDVDCCAr2gAwIBAgIBATANBgkqhkiG9w0BAQQFADB0MQswCQYDVQQGEwJVUzEQ
MA4GA1UECBMHQWxhYmFtYTETMBEGA1UEBxMKSHVudHN2aWxsZTEXMBUGA1UEChMO
TXV0YWJsZSBSZWFsbXMxEDAOBgNVBAsTB0ljZSBBZ2UxEzARBgNVBAMTCk11dGFi
bGUgQ0EwHhcNMDIwMjIyMTYxMjE4WhcNMDMwMjIyMTYxMjE4WjCBlzELMAkGA1UE
BhMCVVMxEDAOBgNVBAgTB0FsYWJhbWExFzAVBgNVBAoTDk11dGFibGUgUmVhbG1z
MRAwDgYDVQQLEwdJY2UgQWdlMSUwIwYDVQQDExxNUiBSU0EgMTAyNCBTZXJ2ZXIg
VGVzdCBDZXJ0MSQwIgYJKoZIhvcNAQkBFhVtcnNydnJzYTEwMjRAc29tZS5uZXQw
gZ8wDQYJKoZIhvcNAQEBBQADgY0AMIGJAoGBALsSVUHVCZfuj2WfF+0UTv4rFHVa
lkdH+0ubpwp8idKjsCqr76ungiTRKcEpa8AUhV0F3QTBtEqsqb/O5nI2jWyM8sDp
zivAaIyeSG9havWkNuFrovgrvW/LD1TWQ6V7ev3SQwLCOKR22ZQdfXzX/p6TPmDT
LV1Bt5rtGAimvW9lAgMBAAGjgdEwgc4wHQYDVR0OBBYEFBEJ/+xHwLlPPdE5pwpF
vhrwJROdMIGeBgNVHSMEgZYwgZOAFBSVOXsF8JuI7LcNZkyP8Alwz2PZoXikdjB0
MQswCQYDVQQGEwJVUzEQMA4GA1UECBMHQWxhYmFtYTETMBEGA1UEBxMKSHVudHN2
aWxsZTEXMBUGA1UEChMOTXV0YWJsZSBSZWFsbXMxEDAOBgNVBAsTB0ljZSBBZ2Ux
EzARBgNVBAMTCk11dGFibGUgQ0GCAQAwDAYDVR0TBAUwAwEB/zANBgkqhkiG9w0B
AQQFAAOBgQBq1IywPU9M4rdCTL1k/OK7aAYG2MrQzcWD0LNp2f3bj1zsrRmOq8MC
fJLTP2ETdsV4tQUexKg5/8AC7tR1+Lrh9rymrgd1aDQImcVTvzCO2oorcQhAgfjc
gjvWMMgVy3B4HrsDHdMhPL7TxguNn0OxNxvw+6Vn33YTYjb6D0dsBA==
-----END CERTIFICATE-----
