Certificate:
    Data:
        Version: 3 (0x2)
        Serial Number: 1 (0x1)
        Signature Algorithm: md5WithRSAEncryption
        Issuer: C=US, ST=Some State, L=Somewhere, O=Your Company, OU=Development, CN=Your Certificate Authority/Email=you@some.net
        Validity
            Not Before: Feb 23 19:57:36 2003 GMT
            Not After : Feb 23 19:57:36 2004 GMT
        Subject: C=US, ST=Some State, O=Your Company, OU=Development/Email=iceserver@some.net, CN=Ice Server
        Subject Public Key Info:
            Public Key Algorithm: rsaEncryption
            RSA Public Key: (1024 bit)
                Modulus (1024 bit):
                    00:ed:ab:c5:1a:d2:cd:33:ce:cb:0b:3d:29:12:00:
                    20:f1:f4:d7:bd:12:81:c3:fa:13:ce:81:28:2c:e8:
                    f6:06:89:79:45:92:f2:a2:e1:4e:48:6e:b5:0a:6c:
                    f1:b4:2c:28:43:cc:6c:3a:24:e3:29:9d:8b:ad:bb:
                    8e:90:41:49:0a:d0:84:e3:7b:19:3b:15:79:cd:a0:
                    36:cc:c5:63:10:60:19:de:c7:c4:02:e1:63:7d:13:
                    3b:68:0a:de:7e:2a:37:b1:aa:90:04:90:a9:59:cc:
                    eb:f2:9f:b2:18:fa:b0:a7:7f:74:49:a9:6a:07:cb:
                    35:a0:92:ad:35:97:7d:e2:b9
                Exponent: 65537 (0x10001)
        X509v3 extensions:
            X509v3 Basic Constraints: 
                CA:FALSE
            X509v3 Subject Key Identifier: 
                83:2C:38:C9:55:7D:FD:08:6C:08:24:A9:03:38:F1:00:95:B0:34:F4
            X509v3 Authority Key Identifier: 
                keyid:A3:62:E2:93:71:FF:B6:5E:05:97:1A:1B:72:88:6D:2B:69:09:71:64
                DirName:/C=US/ST=Some State/L=Somewhere/O=Your Company/OU=Development/CN=Your Certificate Authority/Email=you@some.net
                serial:00

    Signature Algorithm: md5WithRSAEncryption
        77:f1:c5:39:81:aa:e0:89:1b:15:1f:c7:98:34:56:25:a4:d1:
        57:8e:fd:dc:be:12:67:53:9c:e9:2e:e7:da:57:4c:d9:7c:5c:
        d6:4c:01:b6:1e:53:3d:4a:a1:ff:91:fb:cd:e9:43:5a:4b:b6:
        1a:0f:ce:c1:8e:25:b7:1e:62:24:b7:54:0e:e6:1e:9f:3f:b4:
        59:38:74:36:1d:71:1d:91:b7:38:1b:f6:ef:54:7e:53:63:bb:
        a2:68:19:f0:28:87:99:8c:97:98:94:d1:d7:31:d6:3f:3d:f2:
        b3:d2:70:d3:8c:76:7c:f5:23:64:31:bc:ea:1a:b1:35:d8:f5:
        d1:49:f8:d9:cf:41:b9:98:a9:c3:79:18:da:8d:f1:cc:36:8e:
        08:d3:b8:6f:d1:e3:80:80:91:3f:9b:a5:97:6e:f0:10:d9:cc:
        58:86:fb:c2:5f:c1:05:a3:17:1b:83:e5:14:70:e6:62:cc:37:
        59:7d:f0:fe:1e:06:22:f9:72:a5:cc:8a:93:48:c3:79:07:d6:
        a9:e8:e0:4a:f1:2a:9b:77:b5:91:8e:ef:c1:32:74:64:bb:0f:
        1e:9c:51:50:1d:c2:52:02:1e:af:8b:6a:4d:bf:f1:5d:58:32:
        61:a3:29:02:28:78:a4:fe:8a:28:31:c4:85:2e:f1:fd:54:48:
        8c:9e:d9:83
-----BEGIN CERTIFICATE-----
MIIEKTCCAxGgAwIBAgIBATANBgkqhkiG9w0BAQQFADCBpTELMAkGA1UEBhMCVVMx
EzARBgNVBAgTClNvbWUgU3RhdGUxEjAQBgNVBAcTCVNvbWV3aGVyZTEVMBMGA1UE
ChMMWW91ciBDb21wYW55MRQwEgYDVQQLEwtEZXZlbG9wbWVudDEjMCEGA1UEAxMa
WW91ciBDZXJ0aWZpY2F0ZSBBdXRob3JpdHkxGzAZBgkqhkiG9w0BCQEWDHlvdUBz
b21lLm5ldDAeFw0wMzAyMjMxOTU3MzZaFw0wNDAyMjMxOTU3MzZaMIGHMQswCQYD
VQQGEwJVUzETMBEGA1UECBMKU29tZSBTdGF0ZTEVMBMGA1UEChMMWW91ciBDb21w
YW55MRQwEgYDVQQLEwtEZXZlbG9wbWVudDEhMB8GCSqGSIb3DQEJARYSaWNlc2Vy
dmVyQHNvbWUubmV0MRMwEQYDVQQDEwpJY2UgU2VydmVyMIGfMA0GCSqGSIb3DQEB
AQUAA4GNADCBiQKBgQDtq8Ua0s0zzssLPSkSACDx9Ne9EoHD+hPOgSgs6PYGiXlF
kvKi4U5IbrUKbPG0LChDzGw6JOMpnYutu46QQUkK0ITjexk7FXnNoDbMxWMQYBne
x8QC4WN9EztoCt5+KjexqpAEkKlZzOvyn7IY+rCnf3RJqWoHyzWgkq01l33iuQID
AQABo4IBAjCB/zAJBgNVHRMEAjAAMB0GA1UdDgQWBBSDLDjJVX39CGwIJKkDOPEA
lbA09DCB0gYDVR0jBIHKMIHHgBSjYuKTcf+2XgWXGhtyiG0raQlxZKGBq6SBqDCB
pTELMAkGA1UEBhMCVVMxEzARBgNVBAgTClNvbWUgU3RhdGUxEjAQBgNVBAcTCVNv
bWV3aGVyZTEVMBMGA1UEChMMWW91ciBDb21wYW55MRQwEgYDVQQLEwtEZXZlbG9w
bWVudDEjMCEGA1UEAxMaWW91ciBDZXJ0aWZpY2F0ZSBBdXRob3JpdHkxGzAZBgkq
hkiG9w0BCQEWDHlvdUBzb21lLm5ldIIBADANBgkqhkiG9w0BAQQFAAOCAQEAd/HF
OYGq4IkbFR/HmDRWJaTRV4793L4SZ1Oc6S7n2ldM2Xxc1kwBth5TPUqh/5H7zelD
Wku2Gg/OwY4ltx5iJLdUDuYenz+0WTh0Nh1xHZG3OBv271R+U2O7omgZ8CiHmYyX
mJTR1zHWPz3ys9Jw04x2fPUjZDG86hqxNdj10Un42c9BuZipw3kY2o3xzDaOCNO4
b9HjgICRP5ull27wENnMWIb7wl/BBaMXG4PlFHDmYsw3WX3w/h4GIvlypcyKk0jD
eQfWqejgSvEqm3e1kY7vwTJ0ZLsPHpxRUB3CUgIer4tqTb/xXVgyYaMpAih4pP6K
KDHEhS7x/VRIjJ7Zgw==
-----END CERTIFICATE-----
