Certificate:
    Data:
        Version: 3 (0x2)
        Serial Number: 1 (0x1)
        Signature Algorithm: md5WithRSAEncryption
        Issuer: C=US, ST=Some State, L=Somewhere, O=Your Company, OU=Development, CN=Your Certificate Authority/Email=you@some.net
        Validity
            Not Before: Feb 23 20:44:59 2003 GMT
            Not After : Feb 23 20:44:59 2004 GMT
        Subject: C=US, ST=Some State, O=Your Company, OU=Development/Email=iceserver@some.net, CN=Ice Server
        Subject Public Key Info:
            Public Key Algorithm: rsaEncryption
            RSA Public Key: (1024 bit)
                Modulus (1024 bit):
                    00:e1:cd:67:f9:63:60:0e:75:f0:55:fb:ac:7f:5b:
                    55:3a:0e:fc:93:9a:3a:22:39:9e:5e:23:80:e8:a8:
                    a1:39:ba:12:01:ed:e4:ff:95:41:9d:3a:13:71:b7:
                    a2:9c:dc:a1:2d:6d:2f:95:1e:00:3c:72:77:a9:3e:
                    de:6b:52:63:d6:8e:24:eb:ff:30:21:21:a2:4f:25:
                    95:04:eb:29:b7:15:23:27:7b:a7:7d:8a:d8:99:2f:
                    9c:f7:8e:ec:10:37:1c:83:6d:56:67:47:1f:fc:2d:
                    f2:12:5c:87:c0:ce:64:66:cb:a2:14:77:c2:f6:a7:
                    97:ed:34:74:61:06:6b:77:a9
                Exponent: 65537 (0x10001)
        X509v3 extensions:
            X509v3 Basic Constraints: 
                CA:FALSE
            X509v3 Subject Key Identifier: 
                31:DA:B5:13:E7:28:CF:42:58:20:CF:FD:D9:C9:95:F7:33:E7:FD:7B
            X509v3 Authority Key Identifier: 
                keyid:29:E9:30:30:E9:07:C9:6D:A8:51:6C:7D:30:51:40:D3:0A:C4:24:80
                DirName:/C=US/ST=Some State/L=Somewhere/O=Your Company/OU=Development/CN=Your Certificate Authority/Email=you@some.net
                serial:00

    Signature Algorithm: md5WithRSAEncryption
        47:24:0d:fa:8c:e5:ec:b5:f9:10:1b:99:48:e0:b8:5f:fd:53:
        0e:5c:6f:62:5f:17:39:8c:f2:b8:08:e5:b6:eb:75:2d:dc:50:
        62:42:f7:98:33:25:ee:4d:b8:b3:7b:2e:b9:af:e0:f3:97:b6:
        69:3b:57:da:54:9a:65:0e:2f:35:c4:c2:39:6b:3d:67:38:8d:
        65:ba:29:6d:b0:d2:fd:7e:d0:e5:c5:0a:95:28:cd:5c:f9:c3:
        29:43:9e:53:14:88:f1:3f:2b:31:1f:29:eb:2b:65:ed:65:66:
        d7:c7:1b:3b:ed:50:14:c3:ca:68:b5:6c:8b:39:f4:c0:86:93:
        49:bb:cf:de:f9:70:4a:e5:1c:29:a2:85:b3:30:54:af:22:c1:
        ab:99:4e:c3:5a:d3:97:39:eb:53:5b:10:ea:ea:dc:f8:94:ae:
        64:04:44:a1:c4:f5:ad:75:61:0d:29:b3:ab:07:43:a3:11:9c:
        86:49:6f:c4:e1:84:b1:43:2d:cc:67:c8:1e:81:43:31:df:ef:
        74:9e:d0:e4:d1:2d:e4:77:ef:13:45:01:71:7f:24:ba:76:53:
        65:6e:4b:dd:aa:c6:74:b2:c0:1d:d9:c3:9e:28:9a:c8:1e:d7:
        58:b3:e5:3b:61:7c:40:28:9d:df:9c:8a:5f:f2:c8:2e:f9:53:
        1b:fc:2e:98
-----BEGIN CERTIFICATE-----
MIIEKTCCAxGgAwIBAgIBATANBgkqhkiG9w0BAQQFADCBpTELMAkGA1UEBhMCVVMx
EzARBgNVBAgTClNvbWUgU3RhdGUxEjAQBgNVBAcTCVNvbWV3aGVyZTEVMBMGA1UE
ChMMWW91ciBDb21wYW55MRQwEgYDVQQLEwtEZXZlbG9wbWVudDEjMCEGA1UEAxMa
WW91ciBDZXJ0aWZpY2F0ZSBBdXRob3JpdHkxGzAZBgkqhkiG9w0BCQEWDHlvdUBz
b21lLm5ldDAeFw0wMzAyMjMyMDQ0NTlaFw0wNDAyMjMyMDQ0NTlaMIGHMQswCQYD
VQQGEwJVUzETMBEGA1UECBMKU29tZSBTdGF0ZTEVMBMGA1UEChMMWW91ciBDb21w
YW55MRQwEgYDVQQLEwtEZXZlbG9wbWVudDEhMB8GCSqGSIb3DQEJARYSaWNlc2Vy
dmVyQHNvbWUubmV0MRMwEQYDVQQDEwpJY2UgU2VydmVyMIGfMA0GCSqGSIb3DQEB
AQUAA4GNADCBiQKBgQDhzWf5Y2AOdfBV+6x/W1U6DvyTmjoiOZ5eI4DoqKE5uhIB
7eT/lUGdOhNxt6Kc3KEtbS+VHgA8cnepPt5rUmPWjiTr/zAhIaJPJZUE6ym3FSMn
e6d9itiZL5z3juwQNxyDbVZnRx/8LfISXIfAzmRmy6IUd8L2p5ftNHRhBmt3qQID
AQABo4IBAjCB/zAJBgNVHRMEAjAAMB0GA1UdDgQWBBQx2rUT5yjPQlggz/3ZyZX3
M+f9ezCB0gYDVR0jBIHKMIHHgBQp6TAw6QfJbahRbH0wUUDTCsQkgKGBq6SBqDCB
pTELMAkGA1UEBhMCVVMxEzARBgNVBAgTClNvbWUgU3RhdGUxEjAQBgNVBAcTCVNv
bWV3aGVyZTEVMBMGA1UEChMMWW91ciBDb21wYW55MRQwEgYDVQQLEwtEZXZlbG9w
bWVudDEjMCEGA1UEAxMaWW91ciBDZXJ0aWZpY2F0ZSBBdXRob3JpdHkxGzAZBgkq
hkiG9w0BCQEWDHlvdUBzb21lLm5ldIIBADANBgkqhkiG9w0BAQQFAAOCAQEARyQN
+ozl7LX5EBuZSOC4X/1TDlxvYl8XOYzyuAjltut1LdxQYkL3mDMl7k24s3suua/g
85e2aTtX2lSaZQ4vNcTCOWs9ZziNZbopbbDS/X7Q5cUKlSjNXPnDKUOeUxSI8T8r
MR8p6ytl7WVm18cbO+1QFMPKaLVsizn0wIaTSbvP3vlwSuUcKaKFszBUryLBq5lO
w1rTlznrU1sQ6urc+JSuZAREocT1rXVhDSmzqwdDoxGchklvxOGEsUMtzGfIHoFD
Md/vdJ7Q5NEt5HfvE0UBcX8kunZTZW5L3arGdLLAHdnDniiayB7XWLPlO2F8QCid
35yKX/LILvlTG/wumA==
-----END CERTIFICATE-----
