Certificate:
    Data:
        Version: 3 (0x2)
        Serial Number: 1 (0x1)
        Signature Algorithm: md5WithRSAEncryption
        Issuer: C=US, ST=Some State, L=Somewhere, O=Your Company, OU=Development, CN=Your Certificate Authority/emailAddress=you@some.net
        Validity
            Not Before: Feb 23 23:28:15 2004 GMT
            Not After : Feb 22 23:28:15 2005 GMT
        Subject: C=US, ST=Some State, O=Your Company, OU=Development/emailAddress=iceserver@some.net, CN=Ice Server
        Subject Public Key Info:
            Public Key Algorithm: rsaEncryption
            RSA Public Key: (1024 bit)
                Modulus (1024 bit):
                    00:d7:f0:f1:b3:3b:00:be:2a:39:89:16:dd:32:42:
                    4b:56:86:82:c9:38:61:a6:eb:70:78:26:4e:31:8f:
                    3b:e6:77:20:c7:e6:3f:c9:be:65:9c:13:42:12:3e:
                    98:46:f4:dc:f2:c8:fc:25:e1:a8:ff:1e:76:f2:5b:
                    d2:3e:70:30:f0:09:62:f6:b6:3b:c4:1d:d3:06:a9:
                    85:6c:96:20:68:3c:3c:ad:a6:1b:8a:f8:a4:49:e5:
                    30:e6:f5:21:9f:9c:66:80:0e:00:5b:44:b4:e0:32:
                    3e:39:da:9d:b3:f5:06:84:8d:44:55:91:89:c8:2a:
                    d1:1a:f5:0a:c9:59:74:d0:0b
                Exponent: 65537 (0x10001)
        X509v3 extensions:
            X509v3 Basic Constraints: 
            CA:FALSE
            X509v3 Subject Key Identifier: 
            B0:5E:F0:82:88:56:64:03:74:7F:A5:94:99:69:01:E6:0B:9A:71:D2
            X509v3 Authority Key Identifier: 
            keyid:D2:56:3D:94:01:2F:92:7F:07:BC:C7:18:EB:41:4E:75:3F:56:00:F1
            DirName:/C=US/ST=Some State/L=Somewhere/O=Your Company/OU=Development/CN=Your Certificate Authority/emailAddress=you@some.net
            serial:00

    Signature Algorithm: md5WithRSAEncryption
        2c:15:86:b0:e7:e5:db:bc:17:76:53:1e:53:f2:95:68:4f:56:
        bd:19:38:10:1c:59:b7:e5:11:3d:d2:61:59:b7:8f:15:a2:2c:
        86:64:bb:02:10:7b:a1:62:f6:28:8f:78:f0:0c:0c:52:75:65:
        3d:00:0f:29:42:75:62:06:9d:6e:b1:93:66:36:c0:09:99:f1:
        94:e1:0e:3e:99:20:ab:c7:23:0a:cf:6a:d2:87:db:66:c5:cc:
        23:b6:da:26:72:91:39:9e:98:33:01:4e:e2:0b:f8:60:03:16:
        d2:04:3a:eb:99:eb:de:b9:d2:5e:f7:ad:b1:71:36:85:c5:18:
        c5:cd:f2:67:74:ee:b0:21:ed:06:e8:7a:39:65:25:ad:df:bf:
        c3:8f:d9:fc:c2:ab:dd:c9:4e:5c:fa:cf:d9:ce:6f:b4:ae:33:
        0f:02:aa:61:44:ed:de:2c:0d:f1:97:05:be:90:64:8c:8f:a8:
        be:6f:f5:75:0c:0b:a7:f5:27:e1:89:37:b7:97:ae:f1:87:cc:
        1b:f9:76:f3:b9:68:27:e9:5a:37:50:73:08:61:21:cd:34:a2:
        75:eb:bd:34:1f:c5:45:04:9b:e1:d7:04:f1:67:0c:d1:da:a8:
        09:1c:4a:7d:c6:2e:00:8e:70:70:89:b8:ab:56:3d:4b:18:07:
        d1:cd:f1:15
-----BEGIN CERTIFICATE-----
MIIEKTCCAxGgAwIBAgIBATANBgkqhkiG9w0BAQQFADCBpTELMAkGA1UEBhMCVVMx
EzARBgNVBAgTClNvbWUgU3RhdGUxEjAQBgNVBAcTCVNvbWV3aGVyZTEVMBMGA1UE
ChMMWW91ciBDb21wYW55MRQwEgYDVQQLEwtEZXZlbG9wbWVudDEjMCEGA1UEAxMa
WW91ciBDZXJ0aWZpY2F0ZSBBdXRob3JpdHkxGzAZBgkqhkiG9w0BCQEWDHlvdUBz
b21lLm5ldDAeFw0wNDAyMjMyMzI4MTVaFw0wNTAyMjIyMzI4MTVaMIGHMQswCQYD
VQQGEwJVUzETMBEGA1UECBMKU29tZSBTdGF0ZTEVMBMGA1UEChMMWW91ciBDb21w
YW55MRQwEgYDVQQLEwtEZXZlbG9wbWVudDEhMB8GCSqGSIb3DQEJARYSaWNlc2Vy
dmVyQHNvbWUubmV0MRMwEQYDVQQDEwpJY2UgU2VydmVyMIGfMA0GCSqGSIb3DQEB
AQUAA4GNADCBiQKBgQDX8PGzOwC+KjmJFt0yQktWhoLJOGGm63B4Jk4xjzvmdyDH
5j/JvmWcE0ISPphG9NzyyPwl4aj/HnbyW9I+cDDwCWL2tjvEHdMGqYVsliBoPDyt
phuK+KRJ5TDm9SGfnGaADgBbRLTgMj452p2z9QaEjURVkYnIKtEa9QrJWXTQCwID
AQABo4IBAjCB/zAJBgNVHRMEAjAAMB0GA1UdDgQWBBSwXvCCiFZkA3R/pZSZaQHm
C5px0jCB0gYDVR0jBIHKMIHHgBTSVj2UAS+Sfwe8xxjrQU51P1YA8aGBq6SBqDCB
pTELMAkGA1UEBhMCVVMxEzARBgNVBAgTClNvbWUgU3RhdGUxEjAQBgNVBAcTCVNv
bWV3aGVyZTEVMBMGA1UEChMMWW91ciBDb21wYW55MRQwEgYDVQQLEwtEZXZlbG9w
bWVudDEjMCEGA1UEAxMaWW91ciBDZXJ0aWZpY2F0ZSBBdXRob3JpdHkxGzAZBgkq
hkiG9w0BCQEWDHlvdUBzb21lLm5ldIIBADANBgkqhkiG9w0BAQQFAAOCAQEALBWG
sOfl27wXdlMeU/KVaE9WvRk4EBxZt+URPdJhWbePFaIshmS7AhB7oWL2KI948AwM
UnVlPQAPKUJ1YgadbrGTZjbACZnxlOEOPpkgq8cjCs9q0ofbZsXMI7baJnKROZ6Y
MwFO4gv4YAMW0gQ665nr3rnSXvetsXE2hcUYxc3yZ3TusCHtBuh6OWUlrd+/w4/Z
/MKr3clOXPrP2c5vtK4zDwKqYUTt3iwN8ZcFvpBkjI+ovm/1dQwLp/Un4Yk3t5eu
8YfMG/l287loJ+laN1BzCGEhzTSideu9NB/FRQSb4dcE8WcM0dqoCRxKfcYuAI5w
cIm4q1Y9SxgH0c3xFQ==
-----END CERTIFICATE-----
