Certificate:
    Data:
        Version: 3 (0x2)
        Serial Number: 291 (0x123)
        Signature Algorithm: md5WithRSAEncryption
        Issuer: C=AU, ST=QLD, O=Mincom Pty. Ltd., OU=CS, CN=SSLeay demo server
        Validity
            Not Before: Oct 10 15:52:22 2001 GMT
            Not After : Oct 10 15:52:22 2002 GMT
        Subject: C=AU, ST=QLD, O=Mincom Pty. Ltd., CN=Anthony Neal/Email=aneal@mutablerealms.com
        Subject Public Key Info:
            Public Key Algorithm: rsaEncryption
            RSA Public Key: (1024 bit)
                Modulus (1024 bit):
                    00:b2:0e:13:2f:9c:0a:7e:a6:82:12:8e:4f:42:b7:
                    df:c4:4d:2c:69:71:55:b6:66:04:07:fc:2b:0c:77:
                    c7:21:8d:8f:9f:9c:ec:ec:03:c4:7f:db:2f:3c:09:
                    15:4f:15:08:f4:3a:f4:b9:9e:72:a8:54:d5:30:58:
                    f1:4a:a6:d7:c3:0f:a7:cb:1b:08:de:86:c8:e5:1e:
                    1b:74:6a:2f:33:03:3d:c6:92:c5:ea:62:b0:f7:9c:
                    7f:9d:93:2b:b5:49:49:76:8a:f7:41:fd:c3:84:2a:
                    e1:9c:4f:96:67:8a:2e:97:f3:78:de:15:c7:36:0a:
                    28:05:b5:5a:5f:3a:8a:22:d5
                Exponent: 65537 (0x10001)
        X509v3 extensions:
            X509v3 Basic Constraints: 
                CA:FALSE
            Netscape Comment: 
                OpenSSL Generated Certificate
            X509v3 Subject Key Identifier: 
                9D:CD:3E:B1:D8:9C:E0:31:91:E3:61:BF:10:97:F0:A0:3C:FF:50:3D
            X509v3 Authority Key Identifier: 
                DirName:/C=AU/ST=QLD/CN=SSLeay/rsa test CA
                serial:04

    Signature Algorithm: md5WithRSAEncryption
        01:82:37:e5:37:43:5f:21:3f:2d:82:20:20:61:30:cb:d1:9b:
        44:72:c9:23:d0:c6:90:64:1b:85:2b:88:76:16:b1:e6:25:84:
        85:ac:bd:bd:15:c7:72:92:b0:12:8c:4a:93:0c:39:46:85:47:
        ee:d2:6e:f0:fe:64:35:a8:0c:dd
-----BEGIN CERTIFICATE-----
MIICszCCAl2gAwIBAgICASMwDQYJKoZIhvcNAQEEBQAwYDELMAkGA1UEBhMCQVUx
DDAKBgNVBAgTA1FMRDEZMBcGA1UEChMQTWluY29tIFB0eS4gTHRkLjELMAkGA1UE
CxMCQ1MxGzAZBgNVBAMTElNTTGVheSBkZW1vIHNlcnZlcjAeFw0wMTEwMTAxNTUy
MjJaFw0wMjEwMTAxNTUyMjJaMHUxCzAJBgNVBAYTAkFVMQwwCgYDVQQIEwNRTEQx
GTAXBgNVBAoTEE1pbmNvbSBQdHkuIEx0ZC4xFTATBgNVBAMTDEFudGhvbnkgTmVh
bDEmMCQGCSqGSIb3DQEJARYXYW5lYWxAbXV0YWJsZXJlYWxtcy5jb20wgZ8wDQYJ
KoZIhvcNAQEBBQADgY0AMIGJAoGBALIOEy+cCn6mghKOT0K338RNLGlxVbZmBAf8
Kwx3xyGNj5+c7OwDxH/bLzwJFU8VCPQ69LmecqhU1TBY8Uqm18MPp8sbCN6GyOUe
G3RqLzMDPcaSxepisPecf52TK7VJSXaK90H9w4Qq4ZxPlmeKLpfzeN4VxzYKKAW1
Wl86iiLVAgMBAAGjgacwgaQwCQYDVR0TBAIwADAsBglghkgBhvhCAQ0EHxYdT3Bl
blNTTCBHZW5lcmF0ZWQgQ2VydGlmaWNhdGUwHQYDVR0OBBYEFJ3NPrHYnOAxkeNh
vxCX8KA8/1A9MEoGA1UdIwRDMEGhPKQ6MDgxCzAJBgNVBAYTAkFVMQwwCgYDVQQI
EwNRTEQxGzAZBgNVBAMTElNTTGVheS9yc2EgdGVzdCBDQYIBBDANBgkqhkiG9w0B
AQQFAANBAAGCN+U3Q18hPy2CICBhMMvRm0RyySPQxpBkG4UriHYWseYlhIWsvb0V
x3KSsBKMSpMMOUaFR+7SbvD+ZDWoDN0=
-----END CERTIFICATE-----
