Certificate:
    Data:
        Version: 1 (0x0)
        Serial Number: 1 (0x1)
        Signature Algorithm: md5WithRSAEncryption
        Issuer: C=CA, ST=Nova Scotia, L=Dartmouth, O=Mutable Realms, OU=Server Group, CN=Mutable Realms CA/Email=ssl_admin@mutablerealms.com
        Validity
            Not Before: Oct 26 17:24:43 2001 GMT
            Not After : Oct 26 17:24:43 2002 GMT
        Subject: C=CA, ST=Nova Scotia, O=Mutable Realms, OU=Server Group, CN=ASN RSA 1024 Server/Email=aneal@mutablerealms.com
        Subject Public Key Info:
            Public Key Algorithm: rsaEncryption
            RSA Public Key: (1024 bit)
                Modulus (1024 bit):
                    00:d4:99:62:b1:30:cc:42:13:a7:e0:43:00:00:50:
                    a5:70:ce:5a:de:03:fb:27:e5:67:23:0c:92:2e:08:
                    fb:bb:c1:e1:d9:c0:c6:e7:aa:8b:ba:31:c2:80:27:
                    79:aa:34:64:f1:f5:67:f8:59:a1:51:e1:2d:06:c8:
                    4b:15:b4:34:82:57:f8:c9:ad:93:bb:f9:5d:84:6f:
                    2e:31:4a:83:6b:8b:15:c2:dd:ac:51:83:60:61:4c:
                    db:16:2c:56:b2:75:bf:9c:0c:78:5f:15:cf:51:c8:
                    b6:8b:2e:8e:19:ce:42:fb:eb:f1:20:43:7e:7a:0d:
                    0e:1c:da:1d:4c:f2:1d:4a:4d
                Exponent: 65537 (0x10001)
    Signature Algorithm: md5WithRSAEncryption
        a2:95:e9:86:e4:9b:a5:f8:05:6e:1b:b7:38:71:c7:c8:ff:69:
        0f:73:b1:82:a6:8c:4d:ce:7f:26:01:da:f9:ac:ff:3d:c6:4c:
        04:79:d1:59:66:57:ee:3b:3c:7f:12:d3:b8:06:23:e8:e5:65:
        f7:20:11:34:a7:49:80:0c:c8:9c:6b:d1:21:ed:72:17:ed:13:
        d6:92:7a:b8:1b:4d:bc:72:ee:17:cc:b1:83:2c:47:a9:dc:1d:
        5f:2c:56:3b:82:f9:6e:9f:bd:ad:5c:fe:e6:92:5a:7f:90:63:
        0a:55:a5:28:f6:cc:88:93:53:4e:d0:e3:67:6a:0c:ac:53:57:
        58:cf
-----BEGIN CERTIFICATE-----
MIICuTCCAiICAQEwDQYJKoZIhvcNAQEEBQAwga8xCzAJBgNVBAYTAkNBMRQwEgYD
VQQIEwtOb3ZhIFNjb3RpYTESMBAGA1UEBxMJRGFydG1vdXRoMRcwFQYDVQQKEw5N
dXRhYmxlIFJlYWxtczEVMBMGA1UECxMMU2VydmVyIEdyb3VwMRowGAYDVQQDExFN
dXRhYmxlIFJlYWxtcyBDQTEqMCgGCSqGSIb3DQEJARYbc3NsX2FkbWluQG11dGFi
bGVyZWFsbXMuY29tMB4XDTAxMTAyNjE3MjQ0M1oXDTAyMTAyNjE3MjQ0M1owgZkx
CzAJBgNVBAYTAkNBMRQwEgYDVQQIEwtOb3ZhIFNjb3RpYTEXMBUGA1UEChMOTXV0
YWJsZSBSZWFsbXMxFTATBgNVBAsTDFNlcnZlciBHcm91cDEcMBoGA1UEAxMTQVNO
IFJTQSAxMDI0IFNlcnZlcjEmMCQGCSqGSIb3DQEJARYXYW5lYWxAbXV0YWJsZXJl
YWxtcy5jb20wgZ8wDQYJKoZIhvcNAQEBBQADgY0AMIGJAoGBANSZYrEwzEITp+BD
AABQpXDOWt4D+yflZyMMki4I+7vB4dnAxueqi7oxwoAneao0ZPH1Z/hZoVHhLQbI
SxW0NIJX+Mmtk7v5XYRvLjFKg2uLFcLdrFGDYGFM2xYsVrJ1v5wMeF8Vz1HItosu
jhnOQvvr8SBDfnoNDhzaHUzyHUpNAgMBAAEwDQYJKoZIhvcNAQEEBQADgYEAopXp
huSbpfgFbhu3OHHHyP9pD3OxgqaMTc5/JgHa+az/PcZMBHnRWWZX7js8fxLTuAYj
6OVl9yARNKdJgAzInGvRIe1yF+0T1pJ6uBtNvHLuF8yxgyxHqdwdXyxWO4L5bp+9
rVz+5pJaf5BjClWlKPbMiJNTTtDjZ2oMrFNXWM8=
-----END CERTIFICATE-----
