Certificate:
    Data:
        Version: 3 (0x2)
        Serial Number: 1 (0x1)
        Signature Algorithm: md5WithRSAEncryption
        Issuer: C=US, ST=Some State, L=Somewhere, O=Your Company, OU=Development, CN=Your Certificate Authority/emailAddress=you@some.net
        Validity
            Not Before: Dec 31 03:17:26 2005 GMT
            Not After : Dec 30 03:17:26 2010 GMT
        Subject: C=US, ST=Some State, O=Your Company, OU=Development/emailAddress=iceserver@some.net, CN=Ice Server
        Subject Public Key Info:
            Public Key Algorithm: rsaEncryption
            RSA Public Key: (1024 bit)
                Modulus (1024 bit):
                    00:d1:bc:4b:b8:ce:17:49:b0:c9:ab:29:57:84:57:
                    b8:47:bd:7b:90:0b:3e:9f:d4:1b:14:c3:49:7c:96:
                    6f:70:73:ec:81:e6:3e:64:c5:fa:01:4d:67:8d:f1:
                    9b:66:1f:2f:f5:a1:6a:31:54:6d:f9:04:d3:22:8f:
                    87:6c:f2:07:86:f3:c0:26:1b:f8:24:80:2e:f9:c9:
                    8b:1d:78:cc:cc:c2:3e:9f:38:2c:52:c9:2e:05:7d:
                    91:1c:08:fc:ed:4e:1a:24:38:9b:fe:e0:3f:71:97:
                    09:61:d8:c7:f1:e2:f4:fb:1b:e6:b4:0e:8b:cf:be:
                    21:a4:36:07:0f:ad:f4:0c:4f
                Exponent: 65537 (0x10001)
        X509v3 extensions:
            X509v3 Basic Constraints: 
            CA:FALSE
            X509v3 Subject Key Identifier: 
            AD:91:E7:7C:32:22:34:B7:A7:91:EA:86:29:9E:CC:95:55:61:9A:3A
            X509v3 Authority Key Identifier: 
            keyid:38:C1:34:BF:4C:FA:EE:37:71:B7:EF:F6:16:21:15:22:10:69:15:C2
            DirName:/C=US/ST=Some State/L=Somewhere/O=Your Company/OU=Development/CN=Your Certificate Authority/emailAddress=you@some.net
            serial:00

    Signature Algorithm: md5WithRSAEncryption
        5b:a9:0a:22:0b:7f:9b:10:d3:1f:1f:c2:83:ea:e5:59:27:c8:
        f3:5e:4a:ba:9f:fb:80:6d:de:99:da:8d:dc:da:40:f0:83:35:
        98:b9:93:bb:f8:3f:c8:94:a0:eb:d7:06:47:5f:ae:9e:fe:5e:
        06:07:81:7f:4c:64:05:fb:02:f6:54:eb:e2:fc:cf:17:0c:a5:
        2a:43:76:2d:b3:e6:40:58:01:b5:2f:8c:46:97:08:0a:6b:b2:
        56:29:b5:e2:5f:bf:24:b8:f2:fa:9b:a7:f0:fa:c5:99:54:7d:
        79:1d:15:d4:93:f7:00:9e:18:13:3b:9f:b1:b5:fe:4d:00:68:
        3f:39:14:a9:aa:7b:74:4e:2f:bf:42:b7:40:ff:a0:5f:d2:64:
        9a:01:b1:74:45:ff:55:32:b0:b1:e4:41:e4:c9:9c:e2:26:c4:
        99:28:0c:31:10:cf:da:41:c6:89:3e:71:18:94:c6:4f:68:35:
        eb:96:c8:d0:89:83:5a:42:b3:6c:e7:fb:8a:07:85:bc:44:45:
        df:5e:0b:9f:a7:d2:8f:69:c6:a9:84:9e:9f:4e:2a:da:bd:da:
        90:71:08:32:ee:eb:d1:2a:ce:a0:3e:d0:e2:40:ee:0a:33:36:
        38:4a:2a:de:ae:95:ef:64:0d:ba:1c:0b:4e:38:48:8d:99:8a:
        b3:22:d5:d4
-----BEGIN CERTIFICATE-----
MIIEKTCCAxGgAwIBAgIBATANBgkqhkiG9w0BAQQFADCBpTELMAkGA1UEBhMCVVMx
EzARBgNVBAgTClNvbWUgU3RhdGUxEjAQBgNVBAcTCVNvbWV3aGVyZTEVMBMGA1UE
ChMMWW91ciBDb21wYW55MRQwEgYDVQQLEwtEZXZlbG9wbWVudDEjMCEGA1UEAxMa
WW91ciBDZXJ0aWZpY2F0ZSBBdXRob3JpdHkxGzAZBgkqhkiG9w0BCQEWDHlvdUBz
b21lLm5ldDAeFw0wNTEyMzEwMzE3MjZaFw0xMDEyMzAwMzE3MjZaMIGHMQswCQYD
VQQGEwJVUzETMBEGA1UECBMKU29tZSBTdGF0ZTEVMBMGA1UEChMMWW91ciBDb21w
YW55MRQwEgYDVQQLEwtEZXZlbG9wbWVudDEhMB8GCSqGSIb3DQEJARYSaWNlc2Vy
dmVyQHNvbWUubmV0MRMwEQYDVQQDEwpJY2UgU2VydmVyMIGfMA0GCSqGSIb3DQEB
AQUAA4GNADCBiQKBgQDRvEu4zhdJsMmrKVeEV7hHvXuQCz6f1BsUw0l8lm9wc+yB
5j5kxfoBTWeN8ZtmHy/1oWoxVG35BNMij4ds8geG88AmG/gkgC75yYsdeMzMwj6f
OCxSyS4FfZEcCPztThokOJv+4D9xlwlh2Mfx4vT7G+a0DovPviGkNgcPrfQMTwID
AQABo4IBAjCB/zAJBgNVHRMEAjAAMB0GA1UdDgQWBBStked8MiI0t6eR6oYpnsyV
VWGaOjCB0gYDVR0jBIHKMIHHgBQ4wTS/TPruN3G37/YWIRUiEGkVwqGBq6SBqDCB
pTELMAkGA1UEBhMCVVMxEzARBgNVBAgTClNvbWUgU3RhdGUxEjAQBgNVBAcTCVNv
bWV3aGVyZTEVMBMGA1UEChMMWW91ciBDb21wYW55MRQwEgYDVQQLEwtEZXZlbG9w
bWVudDEjMCEGA1UEAxMaWW91ciBDZXJ0aWZpY2F0ZSBBdXRob3JpdHkxGzAZBgkq
hkiG9w0BCQEWDHlvdUBzb21lLm5ldIIBADANBgkqhkiG9w0BAQQFAAOCAQEAW6kK
Igt/mxDTHx/Cg+rlWSfI815Kup/7gG3emdqN3NpA8IM1mLmTu/g/yJSg69cGR1+u
nv5eBgeBf0xkBfsC9lTr4vzPFwylKkN2LbPmQFgBtS+MRpcICmuyVim14l+/JLjy
+pun8PrFmVR9eR0V1JP3AJ4YEzufsbX+TQBoPzkUqap7dE4vv0K3QP+gX9JkmgGx
dEX/VTKwseRB5Mmc4ibEmSgMMRDP2kHGiT5xGJTGT2g165bI0ImDWkKzbOf7igeF
vERF314Ln6fSj2nGqYSen04q2r3akHEIMu7r0SrOoD7Q4kDuCjM2OEoq3q6V72QN
uhwLTjhIjZmKsyLV1A==
-----END CERTIFICATE-----
