Certificate:
    Data:
        Version: 3 (0x2)
        Serial Number: 1 (0x1)
        Signature Algorithm: md5WithRSAEncryption
        Issuer: C=US, ST=Florida, L=Palm Beach Gardens, O=ZeroC, Inc., OU=Ice, CN=ZeroC Test CA/emailAddress=info@zeroc.com
        Validity
            Not Before: Mar 15 17:51:49 2006 GMT
            Not After : Mar 14 17:51:49 2011 GMT
        Subject: C=US, ST=Florida, O=ZeroC, Inc., OU=Ice/emailAddress=info@zeroc.com, CN=Server
        Subject Public Key Info:
            Public Key Algorithm: rsaEncryption
            RSA Public Key: (1024 bit)
                Modulus (1024 bit):
                    00:e1:6b:89:02:6f:57:9f:91:36:2f:79:18:f6:77:
                    40:22:65:81:6c:87:f7:f8:5f:7d:ce:79:74:e1:da:
                    f8:e9:85:59:ca:41:4b:5f:4a:bb:05:0b:93:64:0e:
                    54:64:10:ec:b4:a9:a0:16:94:4f:6b:3c:89:b8:4a:
                    af:4c:7d:2d:27:a8:29:09:72:1b:8d:e8:6f:4c:29:
                    0d:07:68:76:4f:df:5b:0f:7b:59:79:d7:b2:89:ea:
                    63:49:b4:76:ab:27:88:44:6b:34:10:e3:25:cd:b0:
                    4b:c9:dc:5b:84:1b:52:63:9f:a7:ae:b8:4a:6f:df:
                    f2:b0:e8:c1:fc:ec:3e:e0:51
                Exponent: 65537 (0x10001)
        X509v3 extensions:
            X509v3 Basic Constraints: 
            CA:FALSE
            X509v3 Subject Key Identifier: 
            40:C5:B7:F0:4D:C4:C2:27:02:AD:7E:A9:1B:7C:86:62:F6:21:68:55
            X509v3 Authority Key Identifier: 
            keyid:F6:04:02:42:46:5A:F1:21:FD:71:42:D6:7B:C4:79:65:7E:1D:1E:86
            DirName:/C=US/ST=Florida/L=Palm Beach Gardens/O=ZeroC, Inc./OU=Ice/CN=ZeroC Test CA/emailAddress=info@zeroc.com
            serial:00

    Signature Algorithm: md5WithRSAEncryption
        4f:2a:7f:f8:ec:16:74:33:ed:cd:1a:98:8a:4b:e7:50:06:d9:
        23:96:25:f0:92:bd:1b:67:38:a4:50:0e:1b:04:40:7b:bc:82:
        a2:bd:e1:97:3e:74:6e:d5:e9:2a:e7:24:de:7f:1d:47:04:47:
        7f:ac:d1:f8:c2:9e:f7:df:18:bb:8a:cd:ee:ac:1d:81:1a:5d:
        5e:1f:b3:71:25:00:cd:15:1b:a6:9a:11:9f:02:3c:c5:b1:40:
        5f:51:35:b1:8c:79:95:69:5a:07:99:86:61:bf:a7:21:c0:4a:
        d1:77:4a:71:b9:61:6d:48:48:5f:98:83:93:3e:a9:3a:3b:a8:
        08:84:f9:d8:56:12:bb:29:31:72:57:40:af:eb:da:de:c3:e9:
        3b:f8:d9:7f:b8:77:d0:a0:0b:da:07:c0:53:05:0b:bb:34:3d:
        da:04:30:0d:b7:9e:8c:77:6c:ea:cc:ba:bb:51:1d:90:95:d5:
        00:d2:c3:f0:e4:e4:52:6e:17:18:30:2d:7d:94:1c:93:8d:5d:
        4a:d9:7c:bc:ad:d9:f2:4c:8e:37:73:8d:d4:b0:eb:cd:f1:8b:
        53:03:19:88:40:6f:6b:1d:34:98:a7:6e:f6:8d:0d:72:ce:57:
        1b:b5:99:4c:92:ce:44:95:3d:d2:86:c6:9f:79:4f:df:54:56:
        f8:bd:e8:4d
-----BEGIN CERTIFICATE-----
MIID9zCCAt+gAwIBAgIBATANBgkqhkiG9w0BAQQFADCBlzELMAkGA1UEBhMCVVMx
EDAOBgNVBAgTB0Zsb3JpZGExGzAZBgNVBAcTElBhbG0gQmVhY2ggR2FyZGVuczEU
MBIGA1UEChMLWmVyb0MsIEluYy4xDDAKBgNVBAsTA0ljZTEWMBQGA1UEAxMNWmVy
b0MgVGVzdCBDQTEdMBsGCSqGSIb3DQEJARYOaW5mb0B6ZXJvYy5jb20wHhcNMDYw
MzE1MTc1MTQ5WhcNMTEwMzE0MTc1MTQ5WjBzMQswCQYDVQQGEwJVUzEQMA4GA1UE
CBMHRmxvcmlkYTEUMBIGA1UEChMLWmVyb0MsIEluYy4xDDAKBgNVBAsTA0ljZTEd
MBsGCSqGSIb3DQEJARYOaW5mb0B6ZXJvYy5jb20xDzANBgNVBAMTBlNlcnZlcjCB
nzANBgkqhkiG9w0BAQEFAAOBjQAwgYkCgYEA4WuJAm9Xn5E2L3kY9ndAImWBbIf3
+F99znl04dr46YVZykFLX0q7BQuTZA5UZBDstKmgFpRPazyJuEqvTH0tJ6gpCXIb
jehvTCkNB2h2T99bD3tZedeyiepjSbR2qyeIRGs0EOMlzbBLydxbhBtSY5+nrrhK
b9/ysOjB/Ow+4FECAwEAAaOB9DCB8TAJBgNVHRMEAjAAMB0GA1UdDgQWBBRAxbfw
TcTCJwKtfqkbfIZi9iFoVTCBxAYDVR0jBIG8MIG5gBT2BAJCRlrxIf1xQtZ7xHll
fh0ehqGBnaSBmjCBlzELMAkGA1UEBhMCVVMxEDAOBgNVBAgTB0Zsb3JpZGExGzAZ
BgNVBAcTElBhbG0gQmVhY2ggR2FyZGVuczEUMBIGA1UEChMLWmVyb0MsIEluYy4x
DDAKBgNVBAsTA0ljZTEWMBQGA1UEAxMNWmVyb0MgVGVzdCBDQTEdMBsGCSqGSIb3
DQEJARYOaW5mb0B6ZXJvYy5jb22CAQAwDQYJKoZIhvcNAQEEBQADggEBAE8qf/js
FnQz7c0amIpL51AG2SOWJfCSvRtnOKRQDhsEQHu8gqK94Zc+dG7V6SrnJN5/HUcE
R3+s0fjCnvffGLuKze6sHYEaXV4fs3ElAM0VG6aaEZ8CPMWxQF9RNbGMeZVpWgeZ
hmG/pyHAStF3SnG5YW1ISF+Yg5M+qTo7qAiE+dhWErspMXJXQK/r2t7D6Tv42X+4
d9CgC9oHwFMFC7s0PdoEMA23nox3bOrMurtRHZCV1QDSw/Dk5FJuFxgwLX2UHJON
XUrZfLyt2fJMjjdzjdSw683xi1MDGYhAb2sdNJinbvaNDXLOVxu1mUySzkSVPdKG
xp95T99UVvi96E0=
-----END CERTIFICATE-----
