Certificate:
    Data:
        Version: 3 (0x2)
        Serial Number: 1 (0x1)
        Signature Algorithm: md5WithRSAEncryption
        Issuer: C=CA, ST=Nova Scotia, L=Dartmouth, O=Mutable Realms North, OU=Development, CN=Mutable Realms North CA/Email=mrnorth@some.net
        Validity
            Not Before: Dec  3 15:44:59 2001 GMT
            Not After : Dec  3 15:44:59 2002 GMT
        Subject: C=CA, ST=Nova Scotia, O=Mutable Realms North, OU=Development, CN=Dorian Grey/Email=dgrey@some.net
        Subject Public Key Info:
            Public Key Algorithm: rsaEncryption
            RSA Public Key: (1024 bit)
                Modulus (1024 bit):
                    00:aa:fc:1c:97:f5:fd:fb:18:2f:fe:53:9e:63:23:
                    8e:3b:11:3b:38:1a:65:fa:36:1d:63:69:43:d8:dc:
                    3c:d8:b4:9d:54:57:54:0d:93:58:4e:0b:39:ba:d3:
                    9c:9c:41:f4:e5:f0:af:ec:56:9c:08:bb:29:6f:3c:
                    61:81:e8:f0:14:ba:f5:7f:01:46:46:5e:cc:d2:3e:
                    06:91:0d:87:a1:b4:74:04:c0:a9:88:9c:26:c2:50:
                    3c:0e:75:fb:1d:80:0e:de:26:ec:65:c4:71:ce:c9:
                    76:3b:5d:c6:c7:6a:7b:ca:f4:e2:fa:c7:78:f0:b4:
                    2e:4b:22:9a:11:85:09:e2:b5
                Exponent: 65537 (0x10001)
        X509v3 extensions:
            X509v3 Basic Constraints: 
                CA:FALSE
            Netscape Comment: 
                OpenSSL Generated Certificate
            X509v3 Subject Key Identifier: 
                B1:64:89:12:14:FA:FA:0A:CC:B1:8D:FC:75:D6:31:DE:4E:AD:35:87
            X509v3 Authority Key Identifier: 
                keyid:CB:BD:73:45:FA:96:09:73:AC:BF:BE:5E:70:1B:32:D0:DD:6C:6F:02
                DirName:/C=CA/ST=Nova Scotia/L=Dartmouth/O=Mutable Realms North/OU=Development/CN=Mutable Realms North CA/Email=mrnorth@some.net
                serial:00

    Signature Algorithm: md5WithRSAEncryption
        6e:8f:37:39:77:76:b2:dd:e1:45:0f:f5:be:d8:76:af:68:aa:
        81:ee:50:f0:2a:79:14:e5:f2:b7:31:01:70:ef:23:dc:dc:8e:
        87:13:51:90:21:36:9f:c1:d0:41:ae:49:9e:92:ef:e7:e5:33:
        40:4c:41:28:f7:db:e5:a7:60:2c:ec:7b:bd:b0:1f:fd:1e:85:
        b0:00:7d:1f:8b:6f:11:e5:18:7f:f4:c3:c8:ec:e9:d9:6f:78:
        14:9e:32:7a:ca:f6:1c:1a:56:1e:8f:90:30:39:71:03:c5:41:
        a4:75:60:36:a8:d0:8b:bc:a3:e5:95:5f:7e:bd:57:28:ea:55:
        c5:88
-----BEGIN CERTIFICATE-----
MIID8TCCA1qgAwIBAgIBATANBgkqhkiG9w0BAQQFADCBrzELMAkGA1UEBhMCQ0Ex
FDASBgNVBAgTC05vdmEgU2NvdGlhMRIwEAYDVQQHEwlEYXJ0bW91dGgxHTAbBgNV
BAoTFE11dGFibGUgUmVhbG1zIE5vcnRoMRQwEgYDVQQLEwtEZXZlbG9wbWVudDEg
MB4GA1UEAxMXTXV0YWJsZSBSZWFsbXMgTm9ydGggQ0ExHzAdBgkqhkiG9w0BCQEW
EG1ybm9ydGhAc29tZS5uZXQwHhcNMDExMjAzMTU0NDU5WhcNMDIxMjAzMTU0NDU5
WjCBjTELMAkGA1UEBhMCQ0ExFDASBgNVBAgTC05vdmEgU2NvdGlhMR0wGwYDVQQK
ExRNdXRhYmxlIFJlYWxtcyBOb3J0aDEUMBIGA1UECxMLRGV2ZWxvcG1lbnQxFDAS
BgNVBAMTC0RvcmlhbiBHcmV5MR0wGwYJKoZIhvcNAQkBFg5kZ3JleUBzb21lLm5l
dDCBnzANBgkqhkiG9w0BAQEFAAOBjQAwgYkCgYEAqvwcl/X9+xgv/lOeYyOOOxE7
OBpl+jYdY2lD2Nw82LSdVFdUDZNYTgs5utOcnEH05fCv7FacCLspbzxhgejwFLr1
fwFGRl7M0j4GkQ2HobR0BMCpiJwmwlA8DnX7HYAO3ibsZcRxzsl2O13Gx2p7yvTi
+sd48LQuSyKaEYUJ4rUCAwEAAaOCATswggE3MAkGA1UdEwQCMAAwLAYJYIZIAYb4
QgENBB8WHU9wZW5TU0wgR2VuZXJhdGVkIENlcnRpZmljYXRlMB0GA1UdDgQWBBSx
ZIkSFPr6Csyxjfx11jHeTq01hzCB3AYDVR0jBIHUMIHRgBTLvXNF+pYJc6y/vl5w
GzLQ3WxvAqGBtaSBsjCBrzELMAkGA1UEBhMCQ0ExFDASBgNVBAgTC05vdmEgU2Nv
dGlhMRIwEAYDVQQHEwlEYXJ0bW91dGgxHTAbBgNVBAoTFE11dGFibGUgUmVhbG1z
IE5vcnRoMRQwEgYDVQQLEwtEZXZlbG9wbWVudDEgMB4GA1UEAxMXTXV0YWJsZSBS
ZWFsbXMgTm9ydGggQ0ExHzAdBgkqhkiG9w0BCQEWEG1ybm9ydGhAc29tZS5uZXSC
AQAwDQYJKoZIhvcNAQEEBQADgYEAbo83OXd2st3hRQ/1vth2r2iqge5Q8Cp5FOXy
tzEBcO8j3NyOhxNRkCE2n8HQQa5JnpLv5+UzQExBKPfb5adgLOx7vbAf/R6FsAB9
H4tvEeUYf/TDyOzp2W94FJ4yesr2HBpWHo+QMDlxA8VBpHVgNqjQi7yj5ZVffr1X
KOpVxYg=
-----END CERTIFICATE-----
