Certificate:
    Data:
        Version: 3 (0x2)
        Serial Number: 2 (0x2)
        Signature Algorithm: md5WithRSAEncryption
        Issuer: C=US, ST=Some State, L=Somewhere, O=Your Company, OU=Development, CN=Your Certificate Authority/emailAddress=you@some.net
        Validity
            Not Before: Dec 29 22:03:48 2004 GMT
            Not After : Dec 29 22:03:48 2005 GMT
        Subject: C=US, ST=Some State, O=Your Company, OU=Development/emailAddress=iceclient@@some.net, CN=Ice Client
        Subject Public Key Info:
            Public Key Algorithm: rsaEncryption
            RSA Public Key: (1024 bit)
                Modulus (1024 bit):
                    00:a7:60:43:ae:8a:f5:96:46:4e:0c:8e:8d:59:ba:
                    a2:a2:c7:82:ce:95:a0:6a:b1:f0:3c:67:e0:86:ed:
                    92:b6:07:2c:d7:cd:81:04:33:5a:4e:e2:a0:ca:40:
                    9f:c9:e6:99:f5:35:54:80:c6:2f:ee:55:0f:8d:90:
                    73:05:d0:d2:01:84:e4:11:cc:56:12:3e:eb:aa:73:
                    e8:ae:a6:5c:10:db:52:97:48:13:11:7b:5c:14:58:
                    e1:da:b3:bf:fb:02:62:26:9d:2f:f5:c4:f6:eb:a2:
                    d4:76:be:24:18:8f:11:bc:2b:dc:ed:6d:2b:b7:80:
                    d9:8e:b1:38:f9:b8:3f:e1:69
                Exponent: 65537 (0x10001)
        X509v3 extensions:
            X509v3 Basic Constraints: 
            CA:FALSE
            X509v3 Subject Key Identifier: 
            CE:1D:95:F9:30:2E:57:25:FD:BE:66:65:A8:76:4B:BF:08:F1:68:23
            X509v3 Authority Key Identifier: 
            keyid:55:0C:8A:3B:A7:A4:5B:49:3C:0B:5D:1B:39:44:C9:BB:79:C3:5F:82
            DirName:/C=US/ST=Some State/L=Somewhere/O=Your Company/OU=Development/CN=Your Certificate Authority/emailAddress=you@some.net
            serial:00

    Signature Algorithm: md5WithRSAEncryption
        14:7a:c9:c1:30:aa:71:4f:5d:00:b5:73:82:2d:6c:84:90:24:
        67:06:a5:87:06:9d:0d:a9:bb:56:0d:fe:d5:0c:5d:24:6c:8f:
        3c:9f:8f:5f:85:69:2a:e5:de:22:4e:b5:06:73:f3:88:f3:87:
        ac:f0:67:5c:8a:62:ce:c6:39:62:64:5e:ea:fb:8b:94:56:e9:
        2c:1f:9e:dc:d4:8e:f4:42:c0:d9:35:e5:4a:56:dd:25:a1:41:
        d2:e2:ca:18:44:c7:01:3f:8f:ee:3a:67:b5:37:6e:bd:8f:3c:
        5d:20:52:95:c5:07:c2:c4:08:27:28:3d:97:10:e5:b5:96:ef:
        78:04:f5:6b:12:45:2f:fe:47:47:69:72:d8:ef:39:03:09:c5:
        68:d1:2a:b2:82:46:78:ad:55:fd:ba:86:25:53:35:ba:a6:c4:
        30:2a:bb:01:c4:da:45:e9:cd:d4:3c:1d:c4:7c:b3:fb:cd:d5:
        92:d0:ce:83:29:11:98:c8:08:13:9f:2f:f4:b3:f8:ee:cf:7b:
        85:a9:28:33:07:54:99:50:92:06:8b:88:58:ee:7a:ff:7e:ff:
        ca:f9:c0:ed:2f:9f:26:8f:0f:7b:67:55:1b:ec:e9:2f:bc:54:
        44:b4:a8:46:fe:7c:98:5d:e8:30:c8:37:d4:82:d8:aa:33:32:
        cf:df:96:b4
-----BEGIN CERTIFICATE-----
MIIEKjCCAxKgAwIBAgIBAjANBgkqhkiG9w0BAQQFADCBpTELMAkGA1UEBhMCVVMx
EzARBgNVBAgTClNvbWUgU3RhdGUxEjAQBgNVBAcTCVNvbWV3aGVyZTEVMBMGA1UE
ChMMWW91ciBDb21wYW55MRQwEgYDVQQLEwtEZXZlbG9wbWVudDEjMCEGA1UEAxMa
WW91ciBDZXJ0aWZpY2F0ZSBBdXRob3JpdHkxGzAZBgkqhkiG9w0BCQEWDHlvdUBz
b21lLm5ldDAeFw0wNDEyMjkyMjAzNDhaFw0wNTEyMjkyMjAzNDhaMIGIMQswCQYD
VQQGEwJVUzETMBEGA1UECBMKU29tZSBTdGF0ZTEVMBMGA1UEChMMWW91ciBDb21w
YW55MRQwEgYDVQQLEwtEZXZlbG9wbWVudDEiMCAGCSqGSIb3DQEJARYTaWNlY2xp
ZW50QEBzb21lLm5ldDETMBEGA1UEAxMKSWNlIENsaWVudDCBnzANBgkqhkiG9w0B
AQEFAAOBjQAwgYkCgYEAp2BDror1lkZODI6NWbqioseCzpWgarHwPGfghu2Stgcs
182BBDNaTuKgykCfyeaZ9TVUgMYv7lUPjZBzBdDSAYTkEcxWEj7rqnPorqZcENtS
l0gTEXtcFFjh2rO/+wJiJp0v9cT266LUdr4kGI8RvCvc7W0rt4DZjrE4+bg/4WkC
AwEAAaOCAQIwgf8wCQYDVR0TBAIwADAdBgNVHQ4EFgQUzh2V+TAuVyX9vmZlqHZL
vwjxaCMwgdIGA1UdIwSByjCBx4AUVQyKO6ekW0k8C10bOUTJu3nDX4Khgaukgagw
gaUxCzAJBgNVBAYTAlVTMRMwEQYDVQQIEwpTb21lIFN0YXRlMRIwEAYDVQQHEwlT
b21ld2hlcmUxFTATBgNVBAoTDFlvdXIgQ29tcGFueTEUMBIGA1UECxMLRGV2ZWxv
cG1lbnQxIzAhBgNVBAMTGllvdXIgQ2VydGlmaWNhdGUgQXV0aG9yaXR5MRswGQYJ
KoZIhvcNAQkBFgx5b3VAc29tZS5uZXSCAQAwDQYJKoZIhvcNAQEEBQADggEBABR6
ycEwqnFPXQC1c4ItbISQJGcGpYcGnQ2pu1YN/tUMXSRsjzyfj1+FaSrl3iJOtQZz
84jzh6zwZ1yKYs7GOWJkXur7i5RW6SwfntzUjvRCwNk15UpW3SWhQdLiyhhExwE/
j+46Z7U3br2PPF0gUpXFB8LECCcoPZcQ5bWW73gE9WsSRS/+R0dpctjvOQMJxWjR
KrKCRnitVf26hiVTNbqmxDAquwHE2kXpzdQ8HcR8s/vN1ZLQzoMpEZjICBOfL/Sz
+O7Pe4WpKDMHVJlQkgaLiFjuev9+/8r5wO0vnyaPD3tnVRvs6S+8VES0qEb+fJhd
6DDIN9SC2KozMs/flrQ=
-----END CERTIFICATE-----
