Certificate:
    Data:
        Version: 3 (0x2)
        Serial Number: 1 (0x1)
        Signature Algorithm: md5WithRSAEncryption
        Issuer: C=US, ST=Some State, L=Somewhere, O=Your Company, OU=Development, CN=Your Certificate Authority/emailAddress=you@some.net
        Validity
            Not Before: Dec 29 22:03:47 2004 GMT
            Not After : Dec 29 22:03:47 2005 GMT
        Subject: C=US, ST=Some State, O=Your Company, OU=Development/emailAddress=iceserver@some.net, CN=Ice Server
        Subject Public Key Info:
            Public Key Algorithm: rsaEncryption
            RSA Public Key: (1024 bit)
                Modulus (1024 bit):
                    00:b1:0b:72:02:e8:9a:d2:42:4e:e6:b6:17:4c:c7:
                    80:5b:e2:eb:5b:c6:9a:68:c3:87:5c:16:d5:9c:de:
                    5f:df:94:3a:fc:4c:8b:0e:63:4b:8d:aa:e7:81:58:
                    2f:a8:a0:d8:00:57:c2:b6:15:e1:fa:2c:96:5b:ba:
                    f2:1a:82:e3:f3:60:86:a4:fd:d0:b3:60:06:c7:14:
                    b6:13:c9:c9:71:3a:4b:7f:12:10:4b:ae:77:e1:17:
                    8f:b9:a3:99:79:de:90:c7:96:74:48:a0:ff:e8:82:
                    4a:7d:74:7b:f2:ed:9c:d4:ee:1c:b5:12:87:00:6b:
                    86:e4:45:f0:04:58:b0:3f:9f
                Exponent: 65537 (0x10001)
        X509v3 extensions:
            X509v3 Basic Constraints: 
            CA:FALSE
            X509v3 Subject Key Identifier: 
            0C:78:0B:9A:5E:E9:19:03:D8:CC:43:B9:D6:76:95:14:86:06:97:4A
            X509v3 Authority Key Identifier: 
            keyid:55:0C:8A:3B:A7:A4:5B:49:3C:0B:5D:1B:39:44:C9:BB:79:C3:5F:82
            DirName:/C=US/ST=Some State/L=Somewhere/O=Your Company/OU=Development/CN=Your Certificate Authority/emailAddress=you@some.net
            serial:00

    Signature Algorithm: md5WithRSAEncryption
        b3:04:97:2a:b8:20:0a:8d:ed:53:81:d8:64:8e:cf:c7:f4:30:
        b4:8e:9d:34:bb:c7:5a:5d:52:07:75:37:9a:96:8d:ed:e8:26:
        ad:f3:47:4b:97:dd:73:cb:98:c0:56:b9:13:73:bb:06:5b:f8:
        03:17:2d:e7:70:48:e4:57:f4:4f:f3:7b:b8:66:ec:ac:21:50:
        e9:69:55:9a:d2:62:06:12:5c:e1:0d:c2:5d:eb:f5:65:14:18:
        c7:82:aa:ec:db:80:c4:dc:f4:60:56:da:fa:74:be:f4:0d:22:
        2e:16:10:08:2a:4a:7e:a5:c4:ec:a4:ed:46:88:09:ba:24:33:
        62:ba:e4:83:cb:d5:18:51:6f:32:5e:d0:60:7d:ae:78:0b:db:
        a8:9e:c8:81:ba:ed:42:c4:37:c6:d6:56:cf:28:e8:55:e3:b9:
        7d:3c:c8:ee:d4:2c:1f:2c:36:4a:5d:a2:c3:a1:d5:c1:d9:6b:
        05:85:90:7b:06:3a:7b:88:b9:9a:34:a8:67:83:d0:27:9f:15:
        3b:7a:30:19:10:10:52:d5:46:a3:8f:15:cf:2a:bd:69:cb:bf:
        9a:e9:5e:a1:41:9a:6c:4c:32:b8:4b:a2:1e:70:14:00:8e:18:
        3b:10:94:c9:3c:dd:1e:d2:ef:0b:a7:94:5a:00:df:e8:b6:4a:
        84:0b:6c:b5
-----BEGIN CERTIFICATE-----
MIIEKTCCAxGgAwIBAgIBATANBgkqhkiG9w0BAQQFADCBpTELMAkGA1UEBhMCVVMx
EzARBgNVBAgTClNvbWUgU3RhdGUxEjAQBgNVBAcTCVNvbWV3aGVyZTEVMBMGA1UE
ChMMWW91ciBDb21wYW55MRQwEgYDVQQLEwtEZXZlbG9wbWVudDEjMCEGA1UEAxMa
WW91ciBDZXJ0aWZpY2F0ZSBBdXRob3JpdHkxGzAZBgkqhkiG9w0BCQEWDHlvdUBz
b21lLm5ldDAeFw0wNDEyMjkyMjAzNDdaFw0wNTEyMjkyMjAzNDdaMIGHMQswCQYD
VQQGEwJVUzETMBEGA1UECBMKU29tZSBTdGF0ZTEVMBMGA1UEChMMWW91ciBDb21w
YW55MRQwEgYDVQQLEwtEZXZlbG9wbWVudDEhMB8GCSqGSIb3DQEJARYSaWNlc2Vy
dmVyQHNvbWUubmV0MRMwEQYDVQQDEwpJY2UgU2VydmVyMIGfMA0GCSqGSIb3DQEB
AQUAA4GNADCBiQKBgQCxC3IC6JrSQk7mthdMx4Bb4utbxppow4dcFtWc3l/flDr8
TIsOY0uNqueBWC+ooNgAV8K2FeH6LJZbuvIaguPzYIak/dCzYAbHFLYTyclxOkt/
EhBLrnfhF4+5o5l53pDHlnRIoP/ogkp9dHvy7ZzU7hy1EocAa4bkRfAEWLA/nwID
AQABo4IBAjCB/zAJBgNVHRMEAjAAMB0GA1UdDgQWBBQMeAuaXukZA9jMQ7nWdpUU
hgaXSjCB0gYDVR0jBIHKMIHHgBRVDIo7p6RbSTwLXRs5RMm7ecNfgqGBq6SBqDCB
pTELMAkGA1UEBhMCVVMxEzARBgNVBAgTClNvbWUgU3RhdGUxEjAQBgNVBAcTCVNv
bWV3aGVyZTEVMBMGA1UEChMMWW91ciBDb21wYW55MRQwEgYDVQQLEwtEZXZlbG9w
bWVudDEjMCEGA1UEAxMaWW91ciBDZXJ0aWZpY2F0ZSBBdXRob3JpdHkxGzAZBgkq
hkiG9w0BCQEWDHlvdUBzb21lLm5ldIIBADANBgkqhkiG9w0BAQQFAAOCAQEAswSX
KrggCo3tU4HYZI7Px/QwtI6dNLvHWl1SB3U3mpaN7egmrfNHS5fdc8uYwFa5E3O7
Blv4Axct53BI5Ff0T/N7uGbsrCFQ6WlVmtJiBhJc4Q3CXev1ZRQYx4Kq7NuAxNz0
YFba+nS+9A0iLhYQCCpKfqXE7KTtRogJuiQzYrrkg8vVGFFvMl7QYH2ueAvbqJ7I
gbrtQsQ3xtZWzyjoVeO5fTzI7tQsHyw2Sl2iw6HVwdlrBYWQewY6e4i5mjSoZ4PQ
J58VO3owGRAQUtVGo48Vzyq9acu/muleoUGabEwyuEuiHnAUAI4YOxCUyTzdHtLv
C6eUWgDf6LZKhAtstQ==
-----END CERTIFICATE-----
