Certificate:
    Data:
        Version: 3 (0x2)
        Serial Number: 2 (0x2)
        Signature Algorithm: md5WithRSAEncryption
        Issuer: C=US, ST=Some State, L=Somewhere, O=Your Company, OU=Development, CN=Your Certificate Authority/emailAddress=you@some.net
        Validity
            Not Before: Dec 31 03:36:55 2005 GMT
            Not After : Dec 30 03:36:55 2010 GMT
        Subject: C=US, ST=Some State, O=Your Company, OU=Development/emailAddress=iceclient@@some.net, CN=Ice Client
        Subject Public Key Info:
            Public Key Algorithm: rsaEncryption
            RSA Public Key: (1024 bit)
                Modulus (1024 bit):
                    00:cb:04:62:64:e3:65:56:2a:07:72:c1:5c:9b:e4:
                    32:59:46:8e:e3:2b:ce:6d:ab:80:c0:06:04:ca:c9:
                    f1:c3:83:dd:b0:86:6d:2b:42:7b:b6:46:c5:92:81:
                    59:4e:3a:0d:48:25:77:6d:96:d2:9f:3b:cc:a1:b7:
                    05:85:93:b7:3a:16:ab:af:6f:1f:85:c2:cf:83:28:
                    38:0e:96:73:4e:3c:4f:d6:ee:3e:fb:2b:44:2d:03:
                    58:09:7d:82:12:7a:df:a4:f8:a8:fb:16:42:07:90:
                    a2:cb:88:fa:a9:50:3b:72:ff:eb:4a:d8:1d:45:b7:
                    3f:00:c9:de:ff:2e:8f:22:59
                Exponent: 65537 (0x10001)
        X509v3 extensions:
            X509v3 Basic Constraints: 
            CA:FALSE
            X509v3 Subject Key Identifier: 
            E1:81:03:43:D3:BB:62:8A:AC:55:30:31:62:5B:FE:F3:88:53:4D:72
            X509v3 Authority Key Identifier: 
            keyid:5D:AB:9C:15:8E:87:F7:67:EE:CE:93:66:AF:AA:79:4D:8E:D8:E7:CC
            DirName:/C=US/ST=Some State/L=Somewhere/O=Your Company/OU=Development/CN=Your Certificate Authority/emailAddress=you@some.net
            serial:00

    Signature Algorithm: md5WithRSAEncryption
        7f:33:3d:f0:4c:95:0d:3c:dd:4d:0c:d1:7f:46:7f:ff:e3:57:
        9a:4b:3f:15:96:06:47:5e:a0:df:cf:7a:c9:a2:a2:d8:e0:be:
        ec:62:cd:40:1d:b1:58:66:16:99:88:87:9d:69:fc:6d:51:45:
        f5:4d:0f:38:21:b5:7b:68:95:f2:02:83:03:02:56:4e:b4:9d:
        83:0d:e8:5e:40:64:d1:c8:a6:af:7f:18:aa:76:d5:e2:47:74:
        96:09:c4:95:62:1a:82:67:ff:28:b5:3c:72:07:36:b8:e2:9b:
        88:4d:cb:fd:f6:b1:28:e8:42:82:f4:f5:42:b4:e1:e5:2f:d0:
        c0:db:88:76:71:32:84:10:fb:af:c5:0f:1a:7c:25:a8:65:d5:
        d4:ca:34:42:5e:d3:3b:cd:48:22:46:b0:c9:a1:75:12:30:9e:
        fd:44:93:a5:6a:a2:2a:f4:e0:86:8e:d1:f8:22:23:c4:50:00:
        84:53:22:18:73:35:54:35:36:a5:4e:9e:21:77:2a:f5:4a:0c:
        90:09:b5:c6:fd:44:b5:4b:01:2e:76:3c:c4:b4:df:f2:2a:cd:
        e3:e8:f8:4f:47:70:46:7d:a7:ff:3d:2f:a7:b8:52:9c:f9:ac:
        e5:b4:e4:03:38:9a:3d:49:66:ba:0e:e6:12:47:f4:87:c6:e8:
        b7:02:0f:14
-----BEGIN CERTIFICATE-----
MIIEKjCCAxKgAwIBAgIBAjANBgkqhkiG9w0BAQQFADCBpTELMAkGA1UEBhMCVVMx
EzARBgNVBAgTClNvbWUgU3RhdGUxEjAQBgNVBAcTCVNvbWV3aGVyZTEVMBMGA1UE
ChMMWW91ciBDb21wYW55MRQwEgYDVQQLEwtEZXZlbG9wbWVudDEjMCEGA1UEAxMa
WW91ciBDZXJ0aWZpY2F0ZSBBdXRob3JpdHkxGzAZBgkqhkiG9w0BCQEWDHlvdUBz
b21lLm5ldDAeFw0wNTEyMzEwMzM2NTVaFw0xMDEyMzAwMzM2NTVaMIGIMQswCQYD
VQQGEwJVUzETMBEGA1UECBMKU29tZSBTdGF0ZTEVMBMGA1UEChMMWW91ciBDb21w
YW55MRQwEgYDVQQLEwtEZXZlbG9wbWVudDEiMCAGCSqGSIb3DQEJARYTaWNlY2xp
ZW50QEBzb21lLm5ldDETMBEGA1UEAxMKSWNlIENsaWVudDCBnzANBgkqhkiG9w0B
AQEFAAOBjQAwgYkCgYEAywRiZONlVioHcsFcm+QyWUaO4yvObauAwAYEysnxw4Pd
sIZtK0J7tkbFkoFZTjoNSCV3bZbSnzvMobcFhZO3Oharr28fhcLPgyg4DpZzTjxP
1u4++ytELQNYCX2CEnrfpPio+xZCB5Ciy4j6qVA7cv/rStgdRbc/AMne/y6PIlkC
AwEAAaOCAQIwgf8wCQYDVR0TBAIwADAdBgNVHQ4EFgQU4YEDQ9O7YoqsVTAxYlv+
84hTTXIwgdIGA1UdIwSByjCBx4AUXaucFY6H92fuzpNmr6p5TY7Y58yhgaukgagw
gaUxCzAJBgNVBAYTAlVTMRMwEQYDVQQIEwpTb21lIFN0YXRlMRIwEAYDVQQHEwlT
b21ld2hlcmUxFTATBgNVBAoTDFlvdXIgQ29tcGFueTEUMBIGA1UECxMLRGV2ZWxv
cG1lbnQxIzAhBgNVBAMTGllvdXIgQ2VydGlmaWNhdGUgQXV0aG9yaXR5MRswGQYJ
KoZIhvcNAQkBFgx5b3VAc29tZS5uZXSCAQAwDQYJKoZIhvcNAQEEBQADggEBAH8z
PfBMlQ083U0M0X9Gf//jV5pLPxWWBkdeoN/PesmiotjgvuxizUAdsVhmFpmIh51p
/G1RRfVNDzghtXtolfICgwMCVk60nYMN6F5AZNHIpq9/GKp21eJHdJYJxJViGoJn
/yi1PHIHNrjim4hNy/32sSjoQoL09UK04eUv0MDbiHZxMoQQ+6/FDxp8Jahl1dTK
NEJe0zvNSCJGsMmhdRIwnv1Ek6Vqoir04IaO0fgiI8RQAIRTIhhzNVQ1NqVOniF3
KvVKDJAJtcb9RLVLAS52PMS03/IqzePo+E9HcEZ9p/89L6e4Upz5rOW05AM4mj1J
ZroO5hJH9IfG6LcCDxQ=
-----END CERTIFICATE-----
