Certificate:
    Data:
        Version: 3 (0x2)
        Serial Number: 2 (0x2)
        Signature Algorithm: md5WithRSAEncryption
        Issuer: C=US, ST=Florida, L=Palm Beach Gardens, O=ZeroC, Inc., OU=Ice, CN=ZeroC Test CA/emailAddress=info@zeroc.com
        Validity
            Not Before: Mar 27 17:11:26 2006 GMT
            Not After : Mar 26 17:11:26 2011 GMT
        Subject: C=US, ST=Florida, O=ZeroC, Inc., OU=Ice/emailAddress=info@zeroc.com, CN=Client
        Subject Public Key Info:
            Public Key Algorithm: rsaEncryption
            RSA Public Key: (1024 bit)
                Modulus (1024 bit):
                    00:d5:f4:d8:a1:f6:fd:eb:1a:7d:39:f4:00:f6:a1:
                    73:40:aa:8c:47:8b:d2:93:aa:80:48:5b:f2:2e:b3:
                    c7:5e:d1:a7:9c:f6:1a:09:1f:d5:60:ab:36:09:8b:
                    df:cc:77:14:ce:a9:d5:be:9b:55:f0:fa:6a:d4:fc:
                    0c:a5:e7:3e:07:fa:33:51:b6:cb:4d:04:10:b0:ec:
                    af:76:a2:d7:5e:89:4a:1a:c3:ed:de:56:d0:ed:ff:
                    5a:bf:7f:a6:54:16:f0:74:64:3f:28:d9:8d:8d:6b:
                    e4:72:b3:92:c3:ce:75:91:86:b3:75:11:4a:aa:a8:
                    27:4a:86:50:96:cf:3f:e1:3b
                Exponent: 65537 (0x10001)
        X509v3 extensions:
            X509v3 Basic Constraints: 
            CA:FALSE
            X509v3 Subject Key Identifier: 
            0C:4A:44:31:A3:7B:C2:17:F2:79:E2:1B:70:1E:77:7E:97:01:A9:8D
            X509v3 Authority Key Identifier: 
            keyid:9F:A2:17:D5:F0:19:FA:38:09:39:AA:22:26:BF:7A:B5:42:7B:66:EE
            DirName:/C=US/ST=Florida/L=Palm Beach Gardens/O=ZeroC, Inc./OU=Ice/CN=ZeroC Test CA/emailAddress=info@zeroc.com
            serial:00

            X509v3 Subject Alternative Name: 
            DNS:client, IP Address:127.0.0.1
    Signature Algorithm: md5WithRSAEncryption
        03:39:43:d2:42:28:38:ad:5b:f3:65:6e:55:c4:34:4f:42:cd:
        da:66:d0:72:75:f6:cb:34:01:95:29:e0:00:39:71:23:15:27:
        bf:fd:18:7d:ff:b2:f5:fc:9a:76:25:6c:e6:d0:8a:3d:51:4f:
        1e:5a:81:3b:a9:46:89:05:fb:d6:bf:45:49:b0:46:ed:e4:7c:
        61:40:03:06:cb:5d:02:be:43:76:29:30:e7:d3:73:d2:a0:81:
        a6:bc:8b:55:f7:2c:9b:f7:85:8e:3f:4f:4d:d0:ed:ec:e5:4b:
        a8:5b:bd:c8:fb:0b:a8:ee:43:90:f4:ab:3b:4a:0f:f3:47:45:
        89:f9:4f:dc:58:a8:0d:6e:f3:dd:bd:f4:a6:1e:de:96:14:fa:
        b6:84:50:f6:67:a6:35:80:26:15:ba:c3:01:c7:7e:93:85:63:
        1d:ce:cb:b0:b1:97:56:34:dd:4f:9d:aa:87:43:58:60:20:7f:
        4a:df:64:49:bc:5b:30:0d:13:54:cc:4c:69:de:c9:4d:d8:98:
        fd:5f:40:ec:f4:b9:04:67:dc:b6:76:c3:bf:84:c0:81:ff:95:
        a9:c3:ae:00:9d:6e:96:24:a3:4d:9c:76:36:87:12:8c:fc:39:
        f0:d0:f7:93:36:3d:63:ee:c2:14:d1:ce:58:84:ad:f2:58:32:
        65:2c:1b:9f
-----BEGIN CERTIFICATE-----
MIIEEjCCAvqgAwIBAgIBAjANBgkqhkiG9w0BAQQFADCBlzELMAkGA1UEBhMCVVMx
EDAOBgNVBAgTB0Zsb3JpZGExGzAZBgNVBAcTElBhbG0gQmVhY2ggR2FyZGVuczEU
MBIGA1UEChMLWmVyb0MsIEluYy4xDDAKBgNVBAsTA0ljZTEWMBQGA1UEAxMNWmVy
b0MgVGVzdCBDQTEdMBsGCSqGSIb3DQEJARYOaW5mb0B6ZXJvYy5jb20wHhcNMDYw
MzI3MTcxMTI2WhcNMTEwMzI2MTcxMTI2WjBzMQswCQYDVQQGEwJVUzEQMA4GA1UE
CBMHRmxvcmlkYTEUMBIGA1UEChMLWmVyb0MsIEluYy4xDDAKBgNVBAsTA0ljZTEd
MBsGCSqGSIb3DQEJARYOaW5mb0B6ZXJvYy5jb20xDzANBgNVBAMTBkNsaWVudDCB
nzANBgkqhkiG9w0BAQEFAAOBjQAwgYkCgYEA1fTYofb96xp9OfQA9qFzQKqMR4vS
k6qASFvyLrPHXtGnnPYaCR/VYKs2CYvfzHcUzqnVvptV8Ppq1PwMpec+B/ozUbbL
TQQQsOyvdqLXXolKGsPt3lbQ7f9av3+mVBbwdGQ/KNmNjWvkcrOSw851kYazdRFK
qqgnSoZQls8/4TsCAwEAAaOCAQ4wggEKMAkGA1UdEwQCMAAwHQYDVR0OBBYEFAxK
RDGje8IX8nniG3Aed36XAamNMIHEBgNVHSMEgbwwgbmAFJ+iF9XwGfo4CTmqIia/
erVCe2buoYGdpIGaMIGXMQswCQYDVQQGEwJVUzEQMA4GA1UECBMHRmxvcmlkYTEb
MBkGA1UEBxMSUGFsbSBCZWFjaCBHYXJkZW5zMRQwEgYDVQQKEwtaZXJvQywgSW5j
LjEMMAoGA1UECxMDSWNlMRYwFAYDVQQDEw1aZXJvQyBUZXN0IENBMR0wGwYJKoZI
hvcNAQkBFg5pbmZvQHplcm9jLmNvbYIBADAXBgNVHREEEDAOggZjbGllbnSHBH8A
AAEwDQYJKoZIhvcNAQEEBQADggEBAAM5Q9JCKDitW/NlblXENE9Czdpm0HJ19ss0
AZUp4AA5cSMVJ7/9GH3/svX8mnYlbObQij1RTx5agTupRokF+9a/RUmwRu3kfGFA
AwbLXQK+Q3YpMOfTc9Kggaa8i1X3LJv3hY4/T03Q7ezlS6hbvcj7C6juQ5D0qztK
D/NHRYn5T9xYqA1u89299KYe3pYU+raEUPZnpjWAJhW6wwHHfpOFYx3Oy7Cxl1Y0
3U+dqodDWGAgf0rfZEm8WzANE1TMTGneyU3YmP1fQOz0uQRn3LZ2w7+EwIH/lanD
rgCdbpYko02cdjaHEoz8OfDQ95M2PWPuwhTRzliErfJYMmUsG58=
-----END CERTIFICATE-----
