Certificate:
    Data:
        Version: 3 (0x2)
        Serial Number: 2 (0x2)
        Signature Algorithm: md5WithRSAEncryption
        Issuer: C=US, ST=Florida, L=Palm Beach Gardens, O=ZeroC, Inc., OU=Ice, CN=ZeroC Test CA/emailAddress=info@zeroc.com
        Validity
            Not Before: Mar 15 17:51:49 2006 GMT
            Not After : Mar 14 17:51:49 2011 GMT
        Subject: C=US, ST=Florida, O=ZeroC, Inc., OU=Ice/emailAddress=info@zeroc.com, CN=Client
        Subject Public Key Info:
            Public Key Algorithm: rsaEncryption
            RSA Public Key: (1024 bit)
                Modulus (1024 bit):
                    00:a6:61:97:35:de:03:33:db:41:90:d7:33:01:d4:
                    fd:66:56:a2:e6:da:53:6a:ed:94:cc:17:fc:e4:50:
                    d5:8f:d0:3c:87:27:aa:cf:f5:b2:a1:72:66:f7:36:
                    6e:7f:ea:31:4d:67:e0:89:71:e4:d9:3b:b3:84:94:
                    5d:08:44:b0:dc:4a:dd:45:f7:61:ae:8c:0f:d9:b8:
                    66:e1:f0:70:7c:41:d4:f7:b8:85:1a:fd:18:4e:b5:
                    54:1b:2e:6d:71:df:ac:66:5b:24:ce:33:46:94:fe:
                    85:fc:bb:7f:19:f2:b9:86:da:1c:d9:10:f3:9e:be:
                    88:c7:e1:89:57:5a:1d:b0:79
                Exponent: 65537 (0x10001)
        X509v3 extensions:
            X509v3 Basic Constraints: 
            CA:FALSE
            X509v3 Subject Key Identifier: 
            5A:7C:B0:53:25:B0:40:B2:D8:4D:8E:0C:EE:1C:FB:EC:12:8F:8C:D6
            X509v3 Authority Key Identifier: 
            keyid:F6:04:02:42:46:5A:F1:21:FD:71:42:D6:7B:C4:79:65:7E:1D:1E:86
            DirName:/C=US/ST=Florida/L=Palm Beach Gardens/O=ZeroC, Inc./OU=Ice/CN=ZeroC Test CA/emailAddress=info@zeroc.com
            serial:00

    Signature Algorithm: md5WithRSAEncryption
        87:64:9b:c7:9d:fc:5a:d9:01:11:87:6d:bd:12:74:a9:97:02:
        e3:4b:9a:3b:d0:02:f1:b1:ad:84:1f:0f:ed:f4:54:93:bb:d0:
        02:cf:c3:15:7e:c6:f3:72:0f:2c:95:b7:90:ea:33:be:79:06:
        bf:cb:74:9b:85:74:c2:e2:f9:7c:28:f3:96:f0:0b:97:b4:11:
        69:d9:85:ba:79:e8:49:54:96:02:47:32:34:12:81:04:65:04:
        65:a3:50:ec:1b:b4:cc:fc:1e:a6:c2:9a:6c:ef:a4:be:ef:d8:
        ba:7f:f5:e6:6d:65:3c:4a:fc:a2:d3:27:80:1e:19:2d:7a:9f:
        f9:9d:de:c5:67:0a:20:99:98:65:02:38:06:be:ad:20:49:9d:
        c5:46:92:46:13:01:f6:fb:07:ae:aa:c1:43:62:1c:4e:6b:c5:
        55:18:e0:e1:09:3b:11:42:46:3b:a7:c9:56:06:4c:eb:15:74:
        16:d4:0e:8d:b3:fd:b1:24:af:29:7e:97:b8:39:83:f0:7b:0b:
        d1:50:a3:a6:a4:9e:a4:98:02:a6:25:62:6f:08:24:08:e3:53:
        3c:c1:bb:bc:d1:79:88:9b:3e:78:ec:8b:5e:40:2f:bf:f6:aa:
        ed:f2:25:12:3e:4c:29:92:33:0a:8c:12:61:f9:cb:67:e2:2d:
        48:a7:89:ee
-----BEGIN CERTIFICATE-----
MIID9zCCAt+gAwIBAgIBAjANBgkqhkiG9w0BAQQFADCBlzELMAkGA1UEBhMCVVMx
EDAOBgNVBAgTB0Zsb3JpZGExGzAZBgNVBAcTElBhbG0gQmVhY2ggR2FyZGVuczEU
MBIGA1UEChMLWmVyb0MsIEluYy4xDDAKBgNVBAsTA0ljZTEWMBQGA1UEAxMNWmVy
b0MgVGVzdCBDQTEdMBsGCSqGSIb3DQEJARYOaW5mb0B6ZXJvYy5jb20wHhcNMDYw
MzE1MTc1MTQ5WhcNMTEwMzE0MTc1MTQ5WjBzMQswCQYDVQQGEwJVUzEQMA4GA1UE
CBMHRmxvcmlkYTEUMBIGA1UEChMLWmVyb0MsIEluYy4xDDAKBgNVBAsTA0ljZTEd
MBsGCSqGSIb3DQEJARYOaW5mb0B6ZXJvYy5jb20xDzANBgNVBAMTBkNsaWVudDCB
nzANBgkqhkiG9w0BAQEFAAOBjQAwgYkCgYEApmGXNd4DM9tBkNczAdT9Zlai5tpT
au2UzBf85FDVj9A8hyeqz/WyoXJm9zZuf+oxTWfgiXHk2TuzhJRdCESw3ErdRfdh
rowP2bhm4fBwfEHU97iFGv0YTrVUGy5tcd+sZlskzjNGlP6F/Lt/GfK5htoc2RDz
nr6Ix+GJV1odsHkCAwEAAaOB9DCB8TAJBgNVHRMEAjAAMB0GA1UdDgQWBBRafLBT
JbBAsthNjgzuHPvsEo+M1jCBxAYDVR0jBIG8MIG5gBT2BAJCRlrxIf1xQtZ7xHll
fh0ehqGBnaSBmjCBlzELMAkGA1UEBhMCVVMxEDAOBgNVBAgTB0Zsb3JpZGExGzAZ
BgNVBAcTElBhbG0gQmVhY2ggR2FyZGVuczEUMBIGA1UEChMLWmVyb0MsIEluYy4x
DDAKBgNVBAsTA0ljZTEWMBQGA1UEAxMNWmVyb0MgVGVzdCBDQTEdMBsGCSqGSIb3
DQEJARYOaW5mb0B6ZXJvYy5jb22CAQAwDQYJKoZIhvcNAQEEBQADggEBAIdkm8ed
/FrZARGHbb0SdKmXAuNLmjvQAvGxrYQfD+30VJO70ALPwxV+xvNyDyyVt5DqM755
Br/LdJuFdMLi+Xwo85bwC5e0EWnZhbp56ElUlgJHMjQSgQRlBGWjUOwbtMz8HqbC
mmzvpL7v2Lp/9eZtZTxK/KLTJ4AeGS16n/md3sVnCiCZmGUCOAa+rSBJncVGkkYT
Afb7B66qwUNiHE5rxVUY4OEJOxFCRjunyVYGTOsVdBbUDo2z/bEkryl+l7g5g/B7
C9FQo6aknqSYAqYlYm8IJAjjUzzBu7zReYibPnjsi15AL7/2qu3yJRI+TCmSMwqM
EmH5y2fiLUinie4=
-----END CERTIFICATE-----
